38735267	1926526857	Had a nice afternoon watching Disney channel and downloading music Watching Charlie Wilsons War at eeeeeeeight	2009-05-26 18:43:52
373514	538654172	 Charlie Wilsons War is excellent And not that long Definitely a pleasant way to spend an afternoon	2007-12-27 18:11:58
8132735	809823511	going to watch charlie wilsons war I hope its good	2008-05-13 01:52:24
7934560	1081584080	Having a fantastic day todayJust finished baking soft thick and soft chocolate chunk cookies Watching Charlie Wilsons War	2008-12-28 01:08:18
5291026	772124463	Just saw the Charlie Wilsons war I would definitely recommend it and I normally really hate Tom Hanks	2008-03-15 22:55:28
13327836	1908047860	Watching Charlie Wilsons War	2009-05-25 01:37:01
55763587	564339762	Charlie Wilsons War wasnt bad	2008-01-05 05:10:48
55663449	946015837	En ces temps de d233bats pr233sidentiels US de discussions IrakAfghanistanPakistanIran un film 224 avoir ABSOLUMENT  Charlie Wilsons War	2008-10-04 10:37:34
7375164	824465901	downloading vlchad enough with media player classic couldnt load the subtitles for charlie wilsons war mehh	2008-06-01 07:26:35
55799217	550639932	off to a best steak in Dallas dinner and movie  Charlie Wilsons War Happy New Year all	2007-12-31 22:16:01
5806	3068753509	Charlie Wilsons Warnot bad	2009-08-01 11:19:22
6576191	1128568364	Charlie Wilsons War Good Movie Very Sober ending Never forget about the end game	2009-01-18 18:17:37
7294848	2696107103	Wow just saw Tom Hanks naked rear end in Charlie Wilsons War Huh	2009-07-17 21:53:25
33764880	1488851490	After leaving the office at 1100pm I did some grocery shopping and then watched a fun movie Charlie Wilsons War Time for bed	2009-04-10 05:55:31
34668136	2010280237	MASTERMIND wow I JUST went to the library and picked up Charlie Wilsons War Novocaine Casanova and Capote not to mention 15 cds	2009-06-03 00:06:58
32965183	1921313239	Remake of zapp quotcomputer lovequot tpain Charlie Wilson gap band not war vet and lil kim Sounds fine to me	2009-05-26 07:10:37
19794843	1143684526	going to watch either the bucket list or charlie wilsons war no popcorn thoughbummer	2009-01-24 02:10:36
682862	1069151985	reading Charlie Wilsons War by George Crile a former 60 Minutes producer	2008-12-20 16:33:26
55827525	3195139406	watching Charlie Wilsons War Interesting stuff	2009-08-08 17:10:23
53272550	3115516919	RT  Ha Charlie Wilsons War just started Wish US could do the same for Iranian peoplegr88 iranelection	2009-08-04 01:23:25
11351325	3120203223	 looking back at their stuff last year they released City of Ember which i hated but loved Mama Mia and Charlie Wilsons War	2009-08-04 06:41:57
14902371	3738271549	Quiet frustrated brought copy of charlie wilsons war with me on dvd to watch on train from stuttgart to basel amp it wont playfail	2009-09-03 17:47:18
38375863	2112057139	im looking forward to going to a charlie wilson concert this summer  	2009-06-11 02:46:09
31357699	2282485777	Watching Charlie Wilsons War again	2009-06-22 18:25:46
3050281	846184013	Watching The Kite Runner amp Charlie Wilsons War Not sure I am going to like my 2nd choice  just as well there is an OFF button	2008-06-29 13:03:27
25274070	523291872	is kareoking at peyote cafe charlie wilsons war was amazing	2007-12-22 05:45:58
2176131	798448459	now playing Charlie Wilsons War at homedimming lights	2008-04-28 04:16:36
41178168	2432877839	 OMG I LOVE ALL HIS MOVIES phidadelfiadavinci codeAngels and demonsforrest gumppolar express and charlie wilsons war	2009-07-02 05:33:18
39452972	2104298399	Charlie Wilsons War en de inmenging in Afghanistan Vlak voor 11 september 2001 trok Afghanistan reeds internat 	2009-06-10 15:21:04
22000910	1393677468	gave 5 stars to Charlie Wilsons War by George Crile  	2009-03-26 10:57:51
55876625	528227772	Just saw charlie wilsons war with my mom it was the best movie i saw this year	2007-12-24 04:23:40
7003316	845785095	Charlie Wilsons War was much better than I expected SemiPro was so bad I stopped after 45 minutes Wow 2 opinions in 140 characters	2008-06-28 18:48:54
18832358	1500883941	our work on Charlie Wilsons album Charlie Last name Wilson is rewarded the album is now CERTIFIED GOLD 	2009-04-12 03:06:05
51651907	805691185	Watching Charlie Wilsons War	2008-05-07 17:43:48
22370173	2561056192	Still sick Am watching Charlie Wilsons War Philip Seymour Hoffman is also a weapon	2009-07-10 02:09:39
55888761	754316272	tudo no ar night night twittos amanh227 cedo daqui a pouco tem charlie wilsons war pq o oscar 233 s243 uma noite temos outras 364	2008-02-25 05:24:25
21239521	1711697564	This movie is boring Charlie Wilsons War	2009-05-06 00:24:28
5415728	898919089	Why is Congress saying one thing and doing nothing Charlie Wilsons War	2008-08-26 03:03:40
9536129	819782274	Watching Charlie Wilsons War w Kathryn	2008-05-25 22:55:20
55752422	591361172	deciding on film to see tonight  sweeney todd charlie wilsons war 	2008-01-12 15:35:46
56007510	835008865	just finished Charlie Wilsons War   Good flick	2008-06-15 02:28:39
15535395	1507090256	watching amp liking Charlie Wilsons war	2009-04-13 03:48:10
4067837	834378651	just watched charlie wilsons war  so good	2008-06-14 02:34:34
45618836	3073633067	Watching Charlie Wilsons War then ill read some more of The Osama Bin Laden I Know	2009-08-01 18:28:45
24094249	1159326877	and Steve just finished watching Charlie Wilsons War and the infusion pump just beeped Well be headed home soon	2009-01-29 19:00:27
4197238	1030216013	 Liked Charlie Wilsons War too Love that the characters were um morally ambiguous but achieved cool stuff Power of one	2008-11-30 03:07:40
15005578	2256950860	Charlie Wilsons War is a much better book than a movie	2009-06-20 20:33:27
2594	796365275	ReWatched quotCharlie Wilsons Warquot	2008-04-25 00:54:28
25273290	1484749901	Charlie Wilson had a war now he has a 1M chair New UT CW Chair in Pakistan Studies 	2009-04-09 17:18:42
1030227	542198372	Have seen The Reaping Rescue Dawn Bros Solomon and Charlie Wilsons War lately None are making my Top Ten of 2007 I need a good movie	2007-12-29 00:00:21
585892	564016022	Just saw Charlie Wilsons War  Great movie Great cast	2008-01-05 02:39:21
6289188	843625655	Enjoyed Charlie Wilsons War last night	2008-06-25 21:21:58
54759055	800035140	Sending out the Bloggers Unite email and watching Charlie Wilsons War	2008-04-30 02:37:09
55829403	1018875524	Im going to relax and watch Charlie Wilsons War	2008-11-23 02:01:23
55987249	2249450939	watching Charlie Wilsons War	2009-06-20 05:21:15
30300610	1386509040	Rereading Charlie Wilsons War for Afghanistan paper Highly entertaining with a wealth of easilydigested info 	2009-03-25 05:50:34
33432568	1986757437	 via   one more example of American hedgemony hiding behind the skirts of other nations  Charlie Wilsons War	2009-06-01 02:16:34
2661192	884106604	224 und propos zynismusCharlie Wilson8217s War featured fr246hlichlist selbigen und wischt USA UND auch verschw246rungstheortikern eins aus	2008-08-11 13:17:44
17685832	1929465100	  Charlie Wilsons war Now thats a great movie	2009-05-26 23:35:52
47202345	566898562	Charlie Wilsons War 07 Nichols 53 Very lightweight Oscar bait	2008-01-06 01:48:04
50374038	505217802	Blog Rep Charlie Wilson Watches 8220Charlie Wilson8217s War8221 The last few months it8217s been somewhat  	2007-12-16 05:43:37
18491230	1030963720	Im watching Charlie Wilsons War Id forgotten how much fun it is to watch Phillip Seymour Hoffman Get this guy a TV show stat	2008-11-30 18:00:43
28404214	2330962485	RT  Ohio dem Charlie Wilson is leaning toward no Burn up the phones2022255705	2009-06-25 19:37:36
32519192	1437232699	 Charlie Wilsons War ofThe Worlds fastest indian cowboy up in smoke signals in the night of the living dead man on fire and ice	2009-04-02 08:28:59
53648289	3117876957	wondering if Im the only one who likes Charlie Wilsons War	2009-08-04 03:45:46
2410703	773121314	Watched Charlie Wilsons War Philip Seymour Hoffman was great so were Tom Hanks and Julia Roberts	2008-03-18 02:05:33
8667900	1057739746	Watching Charlie Wilsons War again	2008-12-15 02:24:14
55718483	825382483	watched 12 movies this weekend really liked Mr Magoriums Magic Emporium Becoming Jane Copying Beethoven amp Charlie Wilsons War	2008-06-02 18:52:46
27252456	3195995140	Finally back home  laying on the couch watching the rest of Charlie Wilsons war  Ate too much and spent too much  today I feel sick	2009-08-08 18:26:27
20379336	1662755375	just met the lovely joanne herring charlie wilsons war at a luncheon i performed at today	2009-04-30 20:56:15
1957998	822250169	Charlie wilsons war I give it a solid B I liked it	2008-05-29 04:44:46
5024193	799171745	Watching Charlie Wilsons War on DVD	2008-04-29 01:36:06
39045310	3615999365	 Read or see movie quotCharlie Wilsons Warquot You cant make this stuff up	2009-08-29 01:16:31
6955083	2161163084	Charlie Wilsons war  loved the movie Parting shot of the movie shows how the incomplete US intervention led to the Taliban in the 2000s	2009-06-14 03:16:09
5043	1729469141	Grammy Award Winners Lil Kim Charlie Wilson and TPains New Music Video quotDOWNLOADquot Featuring urFooz 	2009-05-07 18:15:02
55790632	2130677065	 Charlie Wilsons War is fantastic Seen it 6 times already lol Tom Hanks Julia Roberts and Philip Seymour Hoffman are excellent	2009-06-12 12:45:06
12490616	1101156237	Just saw Charlie Wilsons War  Great movie  Philip Seymour Hoffman was excellent	2009-01-07 04:30:44
29367855	1487186651	Charlie Wilsons War sucked balls I really wanted it to be good too But Philip Seymour Hoffman is still BA	2009-04-10 00:23:42
17567917	1340121845	We are watching Charlie Wilsons War	2009-03-17 02:47:30
31246414	2527100607	Taken was good I thought About to watch Charlie Wilsons War	2009-07-08 04:05:31
55919177	531986752	Charlie Wilsons war Great acting aaron sorkin script but wheres the ending	2007-12-25 12:08:24
17948581	1112965670	charlie wilsonss warworst movie ive seen in avery long time	2009-01-12 12:48:38
43911088	2038555389	Today is charlie wilsons war and swordfish omg there r too many films to watch	2009-06-05 03:21:00
1828110	569350992	Charlie Wilsons War  excellent	2008-01-06 21:25:33
13820951	1178959867	 you obviously didnt see the cinematic masterpiece that was Charlie Wilsons War	2009-02-05 06:48:28
6149693	2319811183	Power outage macbook Charlie Wilsons War dvd vino verde bowl of ice front porch good times	2009-06-25 01:53:08
18310801	3260540733	Watching Charlie Wilsons War  love this movie  whats everyone else doing  Hit me up	2009-08-12 05:44:32
8640616	1027556507	Recently on my blog Rewatch Redux Charlie Wilsonamp8217s War 	2008-11-28 06:55:23
29061069	2273939279	 Im such an Aaron Sorkin apologist its not even funny  WW Sportsnight Charlie Wilsons Wareven Studio 60 shhhhh	2009-06-22 03:20:36
18358859	2331070553	RT  RT  Ohio dem Charlie Wilson is leaning toward no Burn up the phones2022255705 via 	2009-06-25 19:45:33
27757977	1244787460	Tom Hanks on Acting and Charlie Wilsons War Actor Tom Hanks has been nominated for a Golden Globe award as bes 	2009-02-24 13:27:59
17719379	1579451065	Watching Charlie Wilsons War and doing some work at home	2009-04-21 22:56:09
3226	828504726	see charlie wilsons war	2008-06-06 15:37:24
8319857	806923340	Watching Charlie Wilsons War	2008-05-09 03:08:02
56029591	550824262	Lunch bank Unos Charlie Wilsons War then fireworks at home Boy oh boy	2007-12-31 23:44:05
3861	1030207110	Google24613199782611912527125401248912391 12302charlie wilson s war12303 12364120301124342955424471 	2008-11-30 02:59:37
29125277	3470053479	Brilliant niight last night watched Charlie Wilsons War tons of Dara OBriain and Shakespeare Retold Taming of the Shrew  v chilled now	2009-08-22 10:42:19
13453537	1463502244	inspired by the movie am now reading Charlie Wilsons War	2009-04-06 15:43:11
55942700	536827552	Watched Charlie Wilsons War today Verdict good movie though it perhaps assumes a bit too much of the audience in its conclusion	2007-12-27 04:35:24
7684795	806922647	Im watching Charlie Wilsons War its much better than I was expecting	2008-05-09 03:06:47
853988	857635231	NetFlix Charlie Wilsons War	2008-07-14 02:07:42
12807157	1031906780	Finally watching Charlie wilsons war	2008-12-01 07:43:58
24988019	1380015042	watching charlie wilsons war  It is actually pretty good	2009-03-24 04:22:25
50829751	774449814	I wonder if the fact that I find Charlie Wilsons War an invigorating wonder of cinema mean Im getting old	2008-03-20 14:35:57
54022220	799546117	Ended up sleeping at Kyles last night due to watching Charlie Wilsons War and getting up at 530am yesterday now i need to cram shit	2008-04-29 14:28:00
5178358	841513396	Watched Charlie Wilsons War last night Not bad Gives a bit of insight intob todays war	2008-06-23 09:50:36
3829566	525856722	then saw a movie charlie wilsons war damn good and am settling down to start 8 months of expenses sigh	2007-12-23 07:19:50
3381117	799137379	  so did you like Charlie Wilsons war	2008-04-29 00:32:30
15385158	1087542527	Charlie Wilsons war was pretty good	2008-12-31 07:01:37
21485729	1225417038	 FunnyI just chuckle whenever I think of Murtha Period Is Charlie Wilsons War accurate Been wondering tcot	2009-02-19 03:15:49
52043837	3581755315	New blog post Video of Emily Blunt smoking in movie quotCharlie Wilsons Warquot  celebrity	2009-08-27 16:00:06
44978580	1929881135	I watched charlie wilsons war this morning Good movie	2009-05-27 00:19:23
7163577	950650469	Okay McCain watched Charlie Wilsons War	2008-10-08 02:12:22
56001346	784676085	Better than expected Now watching Charlie Wilsons War	2008-04-07 22:04:48
1534363	847092329	Watching Charlie Wilsons Warmeanwhile doing some data amp paperwork	2008-06-30 19:04:36
872289	788942131	Charlie Wilsons War 304752010226377312782908724713303402161936947652922140720358 Aaron Sorkin 261592581220219 screenplay editor 303403732535201241492446024037203162015421729	2008-04-14 15:58:22
9173238	812758119	If you havent yet I highly recommend watching the movie quotCharlie Wilsons Warquot	2008-05-16 13:36:21
20055319	1112511293	Last nights double feature Charlie Wilsons War and In the Valley of Elah and I was reading The Strongest Tribe  Thats alot of MidEast	2009-01-12 05:52:17
36341110	2803248482	 Philip Seymour Hoffman But the second nom was for the 07 film Charlie Wilsons War not in 05 That or Im wrong	2009-07-23 18:47:24
5315770	806013210	Just watched Charlie Wilsons War Pretty good	2008-05-08 02:03:19
52327514	786084629	Philip Seymour Hoffman in Charlie Wilsons War ampgt most badass spook ever	2008-04-09 22:58:59
19157926	1908138459	What to watch Body of Lies Leatherheads Slumdog Millionaire W Marley amp Me The Express The Happening Charlie Wilsons War Meet Bill	2009-05-25 01:47:54
2724	603463642	Tom Hanks Tells Hollywood Whopper in Charlie Wilsons War In the latter half of the movie there is one 	2008-01-16 00:47:12
49190980	2718714994	 Charlie Wilsons war is more about how US involvement in Pakistan started	2009-07-19 06:50:06
45360809	2456452734	shortfuse You got that scene from Charlie Wilsons War right Which one	2009-07-03 16:57:40
11909289	1120584689	didnt expect that Ill like Charlie Wilsons War movie wow it is serious story u know that it is based on a true story Julia is goooood	2009-01-15 09:06:59
30879333	1902614002	  I have not read Charlie Wilsons War yet but it sounds interesting I want to read John Adams by McCollough and Truman	2009-05-24 13:56:20
8136991	1187896086	Charlie Wilsons War is on	2009-02-08 02:30:35
53377057	836447588	Watching Charlie Wilsons War and kicking back by for a rare quiet night by myself at home while my boys are kicking it at the lake	2008-06-17 01:05:51
22159656	1094816192	Still up watching Charlie Wilsons War	2009-01-04 06:58:22
16393628	1206864580	Rented Charlie Wilsons War from Netflix for the weekend  Has anyone seen it  Comments	2009-02-13 16:29:45
29560898	1295376250	just saw Charlie Wilsons War for the 1st time  highly recommend it	2009-03-08 04:55:04
27246243	2059502742	is going to watch Charlie Wilsons War	2009-06-07 00:03:49
5634	2580251499	about to watch Charlie Wilsons War	2009-07-11 05:45:35
55207518	3534006899	Charlie wilsons war tells the story of the birth of taliban It shows how the US funded the 911	2009-08-25 12:50:18
20498266	1051951603	Watched Charlie Wilsons War It was pretty mehThat was a Mike Nicols film Mike what have you done with yourself	2008-12-11 20:16:03
11401895	1214781700	Charlie Wilsons War oder 20 Jahre nach dem sowjetischen AfghanistanFeldzug Lesenswert 	2009-02-16 09:15:14
24006442	1984697369	Charlie Wilsons War is pretty amazing probably shouldnt watch it in a slow week though	2009-05-31 22:37:28
14012723	1042695911	planning to watch Charlie Wilsons War on HBO tonight Never saw it in theatre Anyone have a review	2008-12-07 00:08:21
10585950	1029996136	 Philip Seymore Hoffman is outstanding in Charlie Wilsons Warwatch it	2008-11-29 23:38:57
13828108	2838846265	RT geeky Why is Congress saying one thing and doing nothing Well tradition mostly Charlie Wilsons War	2009-07-25 16:04:00
55669450	533766062	Got home from Charlie Wilsons War  great movie	2007-12-26 03:58:48
17772512	1355772893	watching Charlie Wilsons War on Boxee check it out at 	2009-03-19 18:08:34
6943375	851663160	I love Charlie Wilsons War  Id like to take a moment to review the several ways in which youre a douche bag	2008-07-07 02:50:27
36023933	1619897643	 according to imdb he did some movie last year ive never heard of  and charlie wilsons war in 07  that was a good one	2009-04-26 11:25:36
48911880	2707978479	Saw Charlie Wilsons warwas he a hero or something else	2009-07-18 16:20:51
9922700	1236565986	ok  gotta finish charlie wilsons war before bed   but im fkin tired	2009-02-22 06:51:50
5880071	2195075667	Just posted quotMovie Guru Which Classic to Watch Tonight Charlie Wilsons Warquot 	2009-06-16 17:38:44
41548191	868667330	Watching Charlie Wilsons War	2008-07-26 02:08:59
53444393	803494554	Finished watching Charlie Wilsons War  What a great flick	2008-05-05 00:12:34
756662	660719972	WTF am I on about Charlie Wilsons war	2008-01-30 20:52:49
1618530	1085086583	 charlie wilsons war oh and iron man	2008-12-30 01:58:17
3023743	1233053229	just watched charlie wilsons war  good movie	2009-02-21 02:52:44
6315762	1089199859	Watching Charlie wilsons war and getting really wound up	2009-01-01 01:58:29
19884177	1017550964	is tired of reading slush and is going to watch CHARLIE WILSONS WAR on DVD	2008-11-22 01:52:53
11422383	927962325	 Charlie Wilsons War Showtime  10PM Have some reading to do first The movie is motive for finishing my reading Oh the life	2008-09-20 01:16:55
55745883	548469172	Wondering if I should download quotCharlie Wilsonsquot war  I mildly enjoyed it in the theater	2007-12-31 06:04:55
10715409	859634024	Going to finish watching Charlie Wilsons War tonight	2008-07-16 03:03:06
55778197	794945247	Bought Juno and Charlie Wilsons War on Digital Video Disc tonight Cannot wait for the commentary on both of them	2008-04-23 08:07:05
55946439	531071042	 Charlie Wilsons War was indeed interesting Very funny 	2007-12-25 03:21:32
14739634	906485477	Artworking and watching Charlie Wilsons War	2008-09-02 05:29:45
55929951	542337222	goin to the movies Charlie Wilsons War	2007-12-29 01:05:17
51293591	3096830481	hboCharlie Wilsons War Widescreen459 	2009-08-03 02:30:00
25971434	1930751434	Amazing revelations in the book Charlie Wilsons War gives an insight into how Islamic militancy was given a giant fillip by US	2009-05-27 01:46:33
35733388	2710546775	PS Speaking of Charlie Wilsons War there used to be a movie at Castle called Charlie Wilsons Whore Hooray porn	2009-07-18 19:42:15
55915327	1031663546	watching Charlie Wilsons War movie	2008-12-01 03:41:18
6236357	1632179371	Watched Charlie Wilsons War last night Great movie Foreign policy more then quotus against themquot Must consider unintended consequences	2009-04-27 20:20:46
26849941	1330103641	 I wasnt sure about it going in but ended enjoying Charlie Wilsons War immensely I cant bring myself to watch The Kite Runner	2009-03-15 04:00:03
42507750	2162811318	just finished Charlie Wilsons War very good movie karaoke tmrw with mah gurls amplt3	2009-06-14 06:40:17
9421740	844723092	charlie wilsons war  TRS  Digg Reel  long ass bus ride tomorrow Day 1 of the rock tomorrow 08 do us proud	2008-06-27 05:27:20
30980214	2330935093	RT   Ohio dem Charlie Wilson is leaning toward no Burn up the phones2022255705	2009-06-25 19:35:36
23628933	2094872564	wow just vbelatedly watched Charlie Wilsons war  a film with big names that delivers mostly thanks to a cracking script and amazing story	2009-06-09 21:39:30
45452360	1971387436	Thinking of going to watch Charlie Wilsons War	2009-05-30 13:59:28
2809	719779422	hotpost Charlie Wilsons War  3626359135883619363436173588363936093626360936293591 	2008-02-16 14:59:09
55695677	533916802	We were not impressed with Charlie Wilsons War	2007-12-26 05:17:50
46923110	2672044454	Gabrielle Union just received the Screen Image Award from Indiana Black Expo she look beauitful Charlie Wilson is up next	2009-07-16 16:41:22
25565680	1913271506	has diverse tastes Im downloading the latest episodes of both American Chopper AND Coronation Street while watching Charlie Wilsons War	2009-05-25 15:35:04
38203089	2116020847	WalMart Movies Charlie Wilsons War Exclusive Full Frame  Steven Soderbergh Charlie Wilsons 	2009-06-11 11:54:24
39612253	797781453	Watching quotCharlie Wilsons Warquot with my girl 	2008-04-27 01:44:01
24081574	1203628106	fell asleep with 20 mins left of charlie wilsons war enjoyed it though when hank meets hoffman it comes alive three bulldogs	2009-02-12 18:46:22
55951164	1493607282	Watching Charlie Wilsons War Great film Great Actors Great story	2009-04-10 22:43:38
37425222	3606280900	julia roberts i love hermore on the movie watching anvil this wk are charlie wilsons warerin brockovichmonalisa smile	2009-08-28 16:51:06
55875419	540107162	Charlie Wilsons war is very good	2007-12-28 05:02:58
19623960	1035327136	 Charlie Wilsons War	2008-12-03 01:40:55
17772512	1363352029	watching Charlie Wilsons War on Boxee check it out at 	2009-03-20 23:30:20
32252426	1626939208	about to write a report on charlie wilsons war but i havent seen it yet 	2009-04-27 06:21:54
46353962	3523379904	Phillip Seymour Hoffman in Charlie Wilsons War greatperformancesinbadmovies	2009-08-24 23:53:28
55772797	546981882	I think Im going to see Charlie Wilsons War today	2007-12-30 17:38:18
5564253	895982964	enjoyed Charlie Wilsons War	2008-08-22 22:21:03
4058529	1962927476	I watched Charlie Wilsons War tonight very good film 45	2009-05-29 18:56:18
1761302	965658062	getting ready to watch Charlie Wilsons War	2008-10-18 23:42:16
55296880	913790089	 I like Charlie Wilsons War and yes the end is telling 	2008-09-08 13:07:21
55707561	828669516	Thanks for buying our movie please enjoy a generous dallop of AIDS guilt with it free of charge  Makers of charlie wilsons war DVD	2008-06-06 21:43:04
43414972	807683819	Just watched Charlie Wilsons War  Pretty good film	2008-05-10 01:14:33
9410992	1261270530	 Charlie Wilsons War is pretty close to the facts but the Iraq version probably wont be as entertaining	2009-02-28 05:55:19
19129031	1889002449	Watching Charlie Wilsons War and its awfully good And I love Amy Adams shes so cute	2009-05-23 01:21:12
55945498	545085982	Movie 2  charlie wilsons war Recomend but respect the r rating	2007-12-30 00:56:17
29134938	1944430985	I like that is seems to rain every Thursday It makes laying in bed easier Im going to watch Charlie Wilsons War Ill let you know	2009-05-28 05:57:05
55930948	794644731	Picked up quotCharlie Wilsons Warquot from Redbox today  Ive seen it before but am excited to watch it with Meghan tonight  great movie	2008-04-22 22:22:09
3906080	1147609264	is watching Charlie Wilsons War	2009-01-25 22:36:41
9012620	1411560179	Watched Charlie Wilsons War 2night Now wide awake always seems to happen on Saturday nite for some reason	2009-03-29 09:52:52
3698	936573689	McCain just acknowledged his place in history dropping the ball after Charlie Wilsons war in Afghanistan	2008-09-27 01:53:47
1677791	551133202	Charlie Wilsons war SEE IT Now for some noodles and then sleep 2008 is quite as usual so far	2008-01-01 02:18:32
15494153	963321259	watching Charlie Wilsons War	2008-10-17 03:18:16
51893645	553140272	Off to see Charlie Wilsons War	2008-01-01 20:33:49
9596044	825580607	netflixed charlie wilsons war this weekend     killer flick    way underrated    sticking on my brain 3 days later   well see	2008-06-03 00:24:18
54358209	690741032	I didnt forget you Charlie Wilsons WarIm on it 	2008-02-08 14:58:33
55181209	570032392	Just saw Charlie Wilsons War Great movie  gets thumbs up from us both	2008-01-07 02:10:32
50491580	1060032860	 Ive been seeing ads here for Charlie Wilsons War on one of the movie channels It looked like it was worth checking out  thoughts	2008-12-16 04:51:33
48276748	2607958573	Reading about how we dropped the ball on Afghanistan reminds me of Charlie Wilsons War  It seems we made the same mistake twice not good	2009-07-13 02:53:33
55842292	813312265	 I actually just finished watching Charlie Wilsons War Really enjoyed it	2008-05-17 03:38:55
52409488	2826811746	liked Charlie Wilsons War alot good movie now its time to enter sandman	2009-07-24 22:02:05
269886	799325875	watchin Charlie Wilsons War	2008-04-29 06:59:03
32273650	2847291454	sorting through the 12 mixed CDs my BFF made me watching Charlie Wilsons War or we	2009-07-26 02:59:16
19593034	1102481444	 Im a big fan of Philip Seymour Hoffman  I like Charlie Wilsons War  Did u see Capote	2009-01-07 18:44:01
950012	1030130857	is watching Charlie Wilsons War Were the naked women at the beginning really necessary	2008-11-30 01:47:49
4838	1503833651	Recovering from last nightwatching Charlie Wilsons War good movie	2009-04-12 17:09:50
52915289	773739654	edite luego fui a ver charlie wilsons war luego a grabar a los leftovers y estoy de regreso en la oficina	2008-03-19 05:51:39
9576389	1008529271	Watching Charlie Wilsons War	2008-11-16 19:22:12
1453383	621644702	Just saw Charlie Wilsons War  Interesting to see the way politics works in covert operations	2008-01-20 23:23:25
47874357	2222151007	Charlie Wilsons War Finally watched ityikes	2009-06-18 13:34:18
32992106	2096644142	Charlie wilsons war was really good	2009-06-10 00:18:32
9122472	810955124	Reading Charlie Wilsons War before work	2008-05-14 09:51:25
3815458	798218926	watched walk hard and Charlie wilsons war both very well made watching a guy tear sinks out if the wall is just great	2008-04-27 20:08:19
7173735	1035289129	Speaking of east Texas Charlie Wilsons War is on HBO	2008-12-03 01:14:40
20846918	2026150341	watching charlie wilsons war Might as well sleep in the couch 	2009-06-04 05:18:58
8714333	898797561	About to watch Charlie Wilsons War	2008-08-26 00:43:46
55813420	533548582	Gettin ready to watch quotCharlie Wilsons Warquot	2007-12-26 02:07:40
41024850	798309503	watching charlie wilsons war	2008-04-27 23:28:38
40063723	817981920	taking the eveining off from site dev and content work  tooo many late nights this week  going to watch Charlie Wilsons War instead	2008-05-23 03:42:55
5558564	1084140018	  I think Charlie Wilson says something to this effect in the  movie Charlie Wilsons war	2008-12-29 16:13:05
54913410	861940360	Just rented quotCharlie Wilsons Warquot to watch on the plane to Chicago tonight This iPhone thing is neat it just might take off	2008-07-18 15:33:05
7224598	794081072	Charlie Wilsons War DVD is now out  get it here 	2008-04-22 05:15:09
55927486	797236782	Charlie Wilsons War is GREAT EXTREMELY FUNNY	2008-04-26 03:43:30
38229798	1506387944	Watching Charlie Wilsons War after a great run and big meal	2009-04-13 01:34:56
54852365	784643809	Just watched Charlie Wilsons War Philip Seymour Hoffman has now replaced William H Macy as my favorite character actor	2008-04-07 21:02:51
1643108	844654196	I need to watch my typing  Just finished Charlie Wilsons War excellent movie I definitely recommend	2008-06-27 03:13:32
1983094	803600219	is watching Charlie Wilsons War via Netflix  So far so goodnot at all what I expected	2008-05-05 03:49:09
9946441	2577846670	last call DVR run of the Tour est fini  Movie time  w btr half Lions for Lambs or Charlie Wilsons War  latter  made by frmr CEOs huz	2009-07-11 02:21:03
55071890	1373516623	Watched Charlie Wilsons War and  now Karissa wants to learn about the Cold War and I want to watch The West Wing 34	2009-03-23 02:42:31
5375733	2246138008	Watching Charlie wilsons war	2009-06-20 00:08:56
8754073	1042668011	group movie night tonight  dunno whats on tap yet  Maybe Charlie Wilsons War	2008-12-06 23:45:22
10103491	876251114	Film Night tonight from 8pm  Charlie Wilsons War will be showing on our big screen	2008-08-03 08:48:04
55811072	1145416752	Watching Charlie Wilsons War	2009-01-24 21:58:46
34957219	1386487955	Just finished watchin Charlie Wilsons War with Allie	2009-03-25 05:43:47
55758290	906664604	Watching Charlie Wilsons War againEnjoyed it the first time so whats the problem Hmm	2008-09-02 11:00:11
32310437	1636125583	Watching Charlie Wilsons War Great movie Love the humor Going to bed	2009-04-28 04:15:11
10593585	1030112768	half watching charlie wilsons war	2008-11-30 01:30:27
55980196	852517225	Watching Charlie Wilsons War w subway Thinking that I should maybe go grocery shopping soon	2008-07-08 03:20:32
11618771	3237401458	 I cant decide what I will watch I am thinking A Charlie Wilsons War B Taken C Nick and Noras Infinite Playlist	2009-08-11 02:06:40
14111040	1048053243	headed home crazy day Good stuff though Gym steak charlie wilsons war	2008-12-09 23:08:18
19833698	3309266558	Huffington Post Ente Jonathan Kim ReThinking Charlie Wilsons War the Afghan War that Keep 	2009-08-14 15:24:48
2461596	830977875	watched quotCharlie wilsons warquot last night 2 thumbs way up	2008-06-10 01:41:43
33373921	1334992828	Just watched Charlie Wilsons War great movie I definitely recommend it Sleep time	2009-03-16 05:29:54
30133778	1249244146	Enjoying Charlie Wilsons War	2009-02-25 14:07:32
16186322	1060118973	Watching Charlie Wilsons War on HBO Hilarious so far Very West Wingish no surprise	2008-12-16 06:01:09
54312723	521846362	No Complaints About Charlie Wilsonampaposs War WOSU film critics Joyce and Rico Long say Charlie Wilsonampapos 	2007-12-21 17:55:13
18748309	1071325352	Watching Charlie Wilsons War rather than going to a friends house and watching the game  he doesnt allow talking during the game natch	2008-12-22 00:13:57
2943023	566531352	Charlie Wilsons War pretty darn good	2008-01-05 22:56:37
53962772	3500614979	termine mi tercera pel237cula las tres 250ltimas son quotCharlie Wilsons Warquot quotKaliforniaquot y quotLA Confidentialquot	2009-08-23 23:03:53
6848861	1264888728	charlie wilsons war is hilarious and terrifying at the same time	2009-03-01 08:18:51
55778197	794970680	No commentary on Charlie Wilsons War This should be illegal	2008-04-23 09:04:34
52919082	1343750620	Philip Seymour Hoffman is a great actor Noticed him first in Charlie Wilsons War and now in Doubt Not to mention Meryl Streep is superb	2009-03-17 18:36:46
14056457	1903972490	if you havent seen charlie wilsons war  you should	2009-05-24 17:07:29
8683857	809632822	Charlie Wilson8217s War Nudity 4 Boobs One Sentence  	2008-05-12 20:42:45
9527794	908029195	I just watched Charlie Wilsons War heres my review 	2008-09-03 13:02:19
55674705	1055502791	Just finished quotCharlie Wilsons Warquot  great film	2008-12-13 17:14:09
679249	2186367220	Watching Charlie Wilsons War in HD OnDemand	2009-06-16 01:44:17
6938110	819360525	watches charlie wilsons war	2008-05-25 04:31:45
16666036	1112076719	watching Charlie Wilsons War again seeing how it compares to the book Book was awesome	2009-01-12 01:37:53
56008897	786708403	Charlie Wilsons war is a cool movie	2008-04-10 20:25:56
15886458	3724557478	what a day settling into bed watching Charlie Wilsons War hmmm love that like everyone i have tried to talk to tonight has ignored me	2009-09-03 02:00:21
53098025	548588262	Go see Charlie Wilsons War	2007-12-31 07:09:25
55659751	564093642	 Mahalo for the rec on Charlie Wilsons War Were running late so its quotJunoquot tonight and CWW next time	2008-01-05 03:14:36
34206774	2353814931	 Oh goshtheres so many Gran Torino Doubt Charlie Wilsons War Benjamin Buttonhave you see any of those	2009-06-27 02:33:03
19503894	1030216782	Top on FeO News charlie wilson s war wwwFeONewscomt55464charlie wilson s war	2008-11-30 03:08:24
27711311	1521767713	between Charlie Wilsons War Spy Game and the Recruit  how much is actually real	2009-04-15 01:27:13
55661668	1990970929	 listening to NA Wondering what your thoughts about the Charlie Wilsons War Would Russia had won if US didnt supply weapons	2009-06-01 13:08:27
995090	933609264	Glad the play went well wishing hed stayed awake for Charlie Wilsons war afterwards	2008-09-24 22:30:28
3702481	948149549	Watching Charlie Wilsons War What a life Nice movie	2008-10-06 12:14:40
55850937	542499052	just saw Charlie Wilsons War  Pretty good movie  Not the antiReagan script that I thought it was going to have	2007-12-29 02:22:34
50647935	1031375107	watching Charlie Wilsons War	2008-11-30 23:48:24
18758243	1115947404	RT  movie trivia 2 films 2 state governorsForrest Gump or Charlie Wilsons War guess	2009-01-13 16:18:53
27116438	1276235393	 Nancy Wilson Charlie Wilson Tom Hanks Tom Thumb Thumb Wars Star Wars George Lucas Indiana Jones Harrison Ford FordFusion	2009-03-03 23:50:53
55683243	794337782	Netflix is sending me both Cloverfield and Charlie Wilsons War on the day of release  I am shocked	2008-04-22 14:36:10
5219912	830412200	Morning all I watched movies over the weekend Charlie Wilsons War Resurrecting the Champ and The Bank Job I quite enjoyed the last one	2008-06-09 12:24:08
17297742	1196428714	charlie wilsons war was pretty damn good wish it would have taken up a larger portion of the day though	2009-02-10 19:02:13
25863030	1832368434	Watching Charlie Wilsons War	2009-05-18 03:41:42
29916389	3076041521	Watcing Charlie Wilsons war I want a heat seeker missle lauch thingy this is like when I watched the good the bad amp the ugly	2009-08-01 21:25:03
30292496	1672794720	going to see Charlie Wilsons War at MOMA	2009-05-01 20:54:41
17300234	1046444294	watched Charlie Wilsons War today Ohhhh bittersweet raunchy tasty painful irony	2008-12-09 04:17:54
54339668	3323004576	Charlie Wilson performing at the freedom party awards right now His hat glistening too much for my eyes	2009-08-15 04:37:43
29877540	590563372	 On Charlie Wilsons War if you didnt catch Tom Hanks on Jonathan Ross last night I can highly recommend it A very human actor	2008-01-12 09:03:05
10562125	875956721	Its movie night at Chez Julenesque Were starting off with Charlie Wilsons War	2008-08-02 23:03:12
18202520	1049519942	 I liked him in Charlie Wilsons War Played the CIA guy great	2008-12-10 17:17:59
55715708	838216640	I didnt know the screenplay for Charlie Wilsons War was written by Sorkin Hello Amazon Unbox	2008-06-18 23:57:57
3069726	2201157585	Love Charlie Wilsons War the dialogue is quite clever	2009-06-17 02:53:13
55855923	839941935	Having one of those wonderful coconut martinis that  got me hooked on and watching Charlie Wilsons War	2008-06-21 00:48:20
853373	876045605	Guess I can watch a movie on my computer until the battery dies Charlie Wilsons war here I come	2008-08-03 01:43:47
27958967	1413865861	Watching Charlie Wilsons War  hopefully it will be good	2009-03-29 20:40:56
56006936	807559132	watching Charlie Wilsons War   	2008-05-09 21:22:50
8241391	864723076	Charlie Wilsons Wara movie made at an interesting time Well played	2008-07-22 02:46:41
14958427	1078739659	Watching Charlie Wilsons War with Lynn Language not good but enjoying the history side	2008-12-26 02:30:10
10826141	851701955	Just finished watching quotCharlie Wilsons Warquot Very good movie I recommend it	2008-07-07 04:05:27
27788862	1730653230	Hip Hop Press Grammy Award Winners Lilamp39 Kim Charlie Wilson and T  	2009-05-07 20:27:51
26506450	2746627640	charlie wilsons war has boobs in the first scene thank you mr hanks	2009-07-20 22:16:56
10060302	815464442	sitting here updating 30 servers and watching Charlie Wilsons war  I wanna have fun	2008-05-20 03:12:10
56013079	2716371007	absorbed in my own little Mad MenCharlie Wilsons War mans men world I failed to noticed that it is raining now	2009-07-19 03:32:04
18762300	3219337294	Watched Charlie Wilsons War with  amp really liked it This TED talks highlights a solution to the end game 	2009-08-10 03:23:16
6463629	847358984	Finally  2 updates got lost in cyberspace today  I am currently trying to focus on Charlie Wilsons War  I cant tonight  Why	2008-07-01 03:28:05
13497840	875356362	Charlie Wilsons Wargives me ideas	2008-08-02 03:46:50
49989248	871278103	Just watched Charlie Wilsons War amazing how one guy made such a big impact on the world as we know it	2008-07-29 05:17:47
39124128	819891202	just rented 27 Dresses and Charlie Wilsons War  	2008-05-26 02:45:59
683306	592401682	pushing the R envelope a little going to see Charlie Wilsons War with kids will report soon	2008-01-12 22:58:21
13124034	875292146	is watching Charlie Wilsons war	2008-08-02 02:02:38
39841214	2457557109	BET AWARDSUSHERLUDACRISANTHONY HAMILTONCHARLIE WILSONRICK ROSSTYLER PERRYRAHEEM DEVAUGHRYAN LESLIE	2009-07-03 18:15:29
5984650	1094439514	Watching Charlie Wilsons war and being crafty	2009-01-04 02:16:52
27106265	1839267140	medievalmovies Charlie Wilsons Warlock	2009-05-18 19:56:04
56018812	543113472	Charlie Wilsons war was only exciting when his fingertips accidentally grazed my elbow for a good fifteen minutes Move on	2007-12-29 07:35:58
6605338	814011755	Watched Charlie Wilsons War I enjoyed it very muchGoodnight all	2008-05-18 05:33:15
55960332	1031388543	This vacation I managed to watch 27 Dresses Charlie Wilsons War a documentary on the homeless in NYC Subways and Nat Geo Science Channel	2008-11-30 23:59:36
31489834	559179342	thinking about going to the movie Charlie Wilsons war	2008-01-03 18:21:49
13072648	1408414283	watching Charlie Wilsons war Tom Hanks hasnt annoyed me yet This is a a good thing and b rare	2009-03-28 19:35:59
11545614	1211019407	Hopefully this chinese food  Charlie Wilsons War will make me feel better	2009-02-14 23:49:00
55700500	1235192252	about to settle down with some wine and watch either XMen or Charlie Wilsons War decisions decisions	2009-02-21 20:50:15
55951164	790572314	Charlie Wilsons War was phenomenal	2008-04-16 20:03:51
24612283	1375737948	watching Charlie Wilsons War and playing around with the flyer	2009-03-23 14:35:17
23426504	1094324978	Starting my first book for the year  Charlie Wilsons War	2009-01-04 01:00:04
19235465	2131630217	RT  about you playing Russians by Sting just saw quotCharlie Wilsons Warquot last night with Tom Hanks about the Russians Good movie	2009-06-12 14:18:22
8899148	865109236	 charlie wilsons warthe movie does a good job but truly the book is a more detailed look into his life	2008-07-22 13:53:28
55898322	528445522	just saw charlie wilsons war liked it a lotesp reference to goofy western pennsylvania	2007-12-24 06:15:42
22236408	1231734280	 it was Mr Reagans war Not this Charlie Wilson guy	2009-02-20 19:34:35
35181464	2414836828	 Yes gotta love Charlie Wilson Did you watch the Bet awards	2009-07-01 03:36:42
2609652	1063420057	watching Charlie Wilsons War	2008-12-17 19:40:30
33201702	2624533146	Also trying to decide if I watch Charlie Wilsons War tonight or record a song Currently just sitting on my deck cooling off	2009-07-14 01:38:00
56006782	1108708982	 Charlie Wilsons War When the congessman from Texas asks for a whiskey in the pakistani presidential palace Priceless	2009-01-10 07:59:45
6075079	3319532930	War Games War of the Worlds Star Wars War of Roses Charlie Wilsons War 	2009-08-15 01:00:14
55979408	968115796	okay i wanna throw this charlie wilson war dvd againts the wall	2008-10-20 22:36:37
6886963	826861827	Watching Charlie Wilsons War	2008-06-04 14:25:41
55550429	3880809259	old school repubs watch charlie wilsons war  just the end is fine  Good intentions dont mean good results  all politicians know this	2009-09-10 04:23:29
20227092	2506121082	Charlie Wilsons War at the RayRayPlex  830	2009-07-07 00:57:04
12887967	1030689214	Watched Charlie Wilsons War again last night Joanne Herring is an interesting American	2008-11-30 13:38:44
31639342	1518171492	watching Charlie Wilsons War on Boxee check it out at 	2009-04-14 17:22:14
15234259	1237109938	is watching Charlie Wilsons War	2009-02-22 13:29:27
52010331	2802138757	Tryna to put my girl onto charlie wilsons warits a great movieI recommend you watch it	2009-07-23 17:42:03
6304003	809055165	Charlie Wilsons War DVD Have missed the cadence of Aaron Sorkins dialog w Hanks Roberts Hoffmanjust excellent	2008-05-12 04:02:50
28830734	1776282101	 hey of you like frostnixon you should trat charlie wilsons waru have prob already seen it though	2009-05-12 19:07:08
571093	607584022	Charlie Wilsons war kicks ass and not an exception to equation American warstruthdepressing	2008-01-17 01:43:04
7877602	961544162	Watching quotCharlie Wilsons Warquot	2008-10-16 01:22:07
15494910	1046475329	watching Charlie Wilsons War  he sure knew how to party	2008-12-09 04:40:31
2407	497751822	Shiri Appleby  8220Charlie Wilson8217s War8221 World Premiere And the Wiki saysampamp8230Shiri Freda Appleb 	2007-12-13 17:16:29
2030710	793514340	Cinema Charlie Wilsons War 	2008-04-21 11:25:10
20791124	1030341727	Im watching charlie wilsons war on hbo and its real good San Diego bbh crew news for 2008	2008-11-30 05:10:07
11855369	1085462838	Just saw Charlie wilsons wargreat movie psh is the man	2008-12-30 06:25:37
52212821	1039199749	just started watching Charlie Wilsons War	2008-12-05 00:14:03
143568	548732222	philip seymour hoffman is awesome in Charlie Wilsons War	2007-12-31 08:30:41
38665445	815507540	watched Charlie Wilsons War not bad Labs snoring on couch	2008-05-20 04:23:48
5332076	823799020	Next up Charlie Wilsons War	2008-05-31 03:57:29
55714135	941507710	I just finished charlie wilsons war That movie if you skip the first scene is not bad and it makes me angry I dont have words	2008-10-01 04:43:12
7211016	863181905	I watched Charlie Wilsons War	2008-07-20 03:50:58
8640132	814628211	wants to see Charlie Wilsons War now heh	2008-05-19 03:50:03
19031887	1466392472	Watching Charlie Wilsons War	2009-04-07 00:19:53
4906	1560636954	Going skating tonight  Cant wait to skate backwards to Charlie Wilsons There Goes My Baby	2009-04-19 21:16:47
39829534	1555234707	just watched Charlie Wilsons War  liked it more than expected	2009-04-19 02:10:36
10500278	2270219113	Nun schauen wir noch Charlie Wilsons War und dann geht es ab ins Bett D	2009-06-21 21:32:43
3503111	845806035	Watching Charlie Wilsons War	2008-06-28 19:36:45
29323560	2100521670	Just watched Charlie Wilsons War Really enjoyed this movie though I relied heavily on Chris to fill in historical info	2009-06-10 06:48:09
21373691	1973457560	FRF Charlie Wilsons War 710 As per title US influence in SovietAfghan war shown Political biography Worth a watch	2009-05-30 18:11:08
45702561	2862718666	Watching Charlie Wilsons War Takes me back to my jovial Reagan years	2009-07-27 02:04:20
55742258	1081285077	Watching Charlie Wilsons War with my mom Already liking it bc its quotbased on a true storyquot	2008-12-27 20:52:53
38016822	2807019519	we will see Philip Seymour Hoffman Charlie Wilsons War	2009-07-23 22:30:04
455935	828808307	About to watch quotCharlie Wilsons Warquot Anything Tom Hanks FTW	2008-06-07 02:18:19
55790356	783045538	Charlie Wilsons war has boobs within 3 minutes  It has to be good	2008-04-04 20:28:43
55747806	830216769	Watching Charlie Wilsons War	2008-06-09 05:14:31
48592915	3169016953	Welcome my New World Friendsrolou h225 4pode comemorarYesterday a watched quotCharlie Wilsons Warquotbased in a true storygreat	2009-08-06 20:42:17
31895220	2312597685	dullmovies quotCharlie Wilsons Wardrobequot	2009-06-24 16:34:35
20669411	1231884074	Just watched Charlie Wilsons War Another amazing story that took a long time to get a wider audience How many more are out there	2009-02-20 20:17:19
1187614	779234047	Funny quoute quotYou can teach them to type but you cant teach them to grow titsquot Charlie Wilsons War	2008-03-29 16:56:44
7129508	3061064240	watching Charlie Wilsons War with 	2009-08-01 00:03:09
30182572	1274582004	Bit of a bummer at work today  i think ill watch charlie wilsons war and eat ice cream to comfort myself	2009-03-03 17:20:03
16490277	1623518631	loved Charlie Wilsons War what a great film But the ending pissed me off so fucking much	2009-04-26 21:33:53
55814760	531353942	go see Charlie Wilsons War	2007-12-25 05:51:47
19047950	1060026616	Opted for Reign of Terror Don Cheadle et al See also Charlie Wilsons War re success with Boogie Nights alum Phillip Seymore Hoffman	2008-12-16 04:46:50
55790493	869793680	Watching Charlie Wilsons War I didnt know Amy Adams was on this Ooo Time for some Aaron Sorkin goodness	2008-07-27 15:41:36
30528727	2524929029	caught a case of the yucks from Stephen Watching Charlie Wilsons War and sipping Theraflu	2009-07-08 01:37:24
55940980	503490962	Also forcing myself to see I Am Legend So my list is up to 10 unless I decide Charlie Wilsons War is too lame	2007-12-15 13:47:36
2638891	1030133690	watching movie Charlie Wilsons War	2008-11-30 01:50:25
35773898	2584339763	 did u rent Charlie Wilsons War or did you buy it  I hate traillers in DVDs u buy Imagine putting trailers on Schindlers List	2009-07-11 14:49:01
21504945	1561103729	Watching Charlie Wilsons War  Love Julia Roberts and Tom Hanks	2009-04-19 22:49:23
50558782	592347632	 We saw Charlie Wilsons War last weekend  Were Sorkin fans and really enjoyed it	2008-01-12 22:33:01
55239938	1069551506	 Charlie Wilsons War Excellent movie	2008-12-20 21:40:04
19501215	1376877257	Watched charlie wilsons war and pride and prejudice today  in class	2009-03-23 18:04:54
55339800	646739262	O maior erro da Academia foi n227o ter indicado Charlie Wilsons War para Melhor Roteiro Adaptado Aaron Sorkin 233 genial	2008-01-27 11:52:06
10246176	883452565	Watching Charlie Wilsons War	2008-08-10 18:55:32
42924378	525898042	Charlie Wilsons War was such a disappointment How can you go wrong with Mike Nichols and Alan Sorkin Tom Hanks	2007-12-23 07:52:04
5386815	798939930	Read an article on Charlie Wilsons War added movie to Netflix cue movie now on short wait cuz everyone else did the same	2008-04-28 19:08:14
27324790	1467987167	Charlie Bronson I mean Charlie Bird I mean Charlie Wilsons War	2009-04-07 06:07:58
137718	535521942	Seeing Charlie Wilsons War with the family	2007-12-26 18:18:55
8140811	809062456	Is watching Charlie Wilsons War  It is awesome	2008-05-12 04:18:26
17242072	2037913574	agree with yall on Charlie Wilsons War  good flick  End Gamethe ball keeps bouncingmany times we mess that up	2009-06-05 02:22:05
55759132	599571132	FF08  Charlie Wilsons War lacks the politics to be great but Philip Seymour Hoffman really helps raise this Good but not great	2008-01-15 00:14:26
8540781	888151539	 Charlie Wilsons War is engaging entertaining film Watch interview with real Charlie Wilson afterward Hes a national treasure	2008-08-15 04:32:42
34366453	2508826778	Watching Charlie Wilsons War with my dad My hand hurts  but daddy might be buying me a longboard Hahaha lolz	2009-07-07 04:11:45
10519732	990419759	Wanted to watch something patriotic Charlie Wilsons War is a great movie	2008-11-05 00:39:41
34486208	1745918443	Charlie Wilsons War Great movie 	2009-05-09 12:42:58
55974563	843733693	Watching Charlie Wilsons War	2008-06-26 00:26:38
4680045	896434249	Watching Charlie Wilsons War	2008-08-23 11:57:38
25720314	1329186676	Enjoyed watching Charlie Wilsons War	2009-03-14 23:37:30
5421197	1092476751	Had pizza and beer for dinner Now Im stuffed and thinking about a nap Were due to watch a movie Charlie Wilsons War Should be good	2009-01-02 23:41:53
55973485	975843744	Ironman is awesome Movie 2  Charlie Wilsons War	2008-10-26 05:57:53
55010674	1236758195	Watching Charlie Wilsons War DVRed from HBO HD channel	2009-02-22 09:09:53
39396207	2603002731	total movie day watched Charlie Wilsons War then The Reader now Ghostbusters the first	2009-07-12 20:20:23
4938	1786064761	Check this video out  TOM HANKS part1 01072008 Charlie Wilsons War 	2009-05-13 16:46:25
9962090	822318644	I Really enjoyed Charlie Wilsons War and my Japanese beer	2008-05-29 07:22:58
35164050	3550457735	 Charlie Wilsons War movie good but book was so much better Usually the casebook to cinemabut more so here Way more	2009-08-26 04:52:17
1785056	803103011	Charlie Wilsons War on DVD Well written story of senator covert involvement in Afghan War Like an average episode of West Wing 610	2008-05-04 09:29:35
34034300	1700749290	Watching charlie wilsons war for the second time now Its ok i chugged a cup of coffee	2009-05-04 23:36:32
5480717	1145372333	Watching Charlie Wilsons war	2009-01-24 21:32:20
7505540	846041881	Getting ready to watch Charlie Wilsons War  gotta love movie night at home	2008-06-29 05:10:50
9814353	820325034	watching Charlie Wilsons War	2008-05-26 17:43:46
5809464	1056310977	Watching Charlie Wilsons War so far no so bad but I love Tom Hanks	2008-12-14 04:06:30
7531995	794697028	Im about to watch Charlie Wilsons War	2008-04-23 00:00:14
31152752	2477222920	UmmmCharlie Wilson is great but his wardrobe changes are killing me He thinks he is 18 yrs old in a boy band with these outfits	2009-07-05 02:23:24
55976845	2869687452	Anita Baker and Charlie Wilson to play a free concert tonight at Brooklyns Wingate Field for MLK Jr concert series 	2009-07-27 12:49:46
53636229	902055802	Oh this is great  Arron Sorkin writer of West Wing and Charlie Wilsons War  gonna do a movie on Facebook  	2008-08-28 19:59:55
12243729	1135705968	 Did you like Charlie Wilsons War is it worth seeing	2009-01-21 07:19:44
53140029	808428520	Just watched quotCharlie Wilsons Warquot Id like to be like Charlie minus the booze drugs and floozies	2008-05-11 04:33:29
6129705	1512274498	Cu7897c Chi7871n C7911a Charlie Wilson Charlie Wilsons War Image  	2009-04-13 22:27:08
31489834	806773610	 charlie wilsons war	2008-05-08 22:46:44
3699	944260530	Building Schools in Iraq  The thing we messed up in Afganistan in the 90s  Check out Charlie Wilsons War	2008-10-03 02:00:36
55878983	1303258747	 Yes love Sorkin not as much as Maura tho  Just watched Charlie Wilsons War and loved it noted Sorkins name at endAHA	2009-03-10 00:59:17
37436477	2016777174	 was Jumping Joe from Pensocol ever a journalist  Only thing he ever did was get elected twicefrom Charlie Wilsons War	2009-06-03 14:20:36
8898544	995758153	Just saw Charlie Wilsons War  a great movie More amazing the true story its based on	2008-11-08 00:37:14
55682542	1052944163	Just saw Charlie Wilsons War Good moviebut bad times in how we helped arm the current radical extremists 	2008-12-12 06:56:46
55899474	1057822711	Enjoyed quotCharlie Wilsons Warquot Hard to go wrong with a cast that strong and a Sorkin script	2008-12-15 03:23:39
32700239	1418782829	Charlie Wilsons War starring Tom Hanks is a great movie involving US foreign policy and support of Afghanistan during the 80s	2009-03-30 16:47:24
55712477	869991899	nu heb ik dankzij Zomergasten zin om Charlie Wilsons War te kijken	2008-07-27 21:21:34
13240294	1030289774	Back at my place and watching CHARLIE WILSONS WAR Love this movie	2008-11-30 04:18:59
12664726	1056296958	Watching Charlie Wilsons War with The Ass and eating SmartPop even though I want the buttery stuff	2008-12-14 03:54:43
5261	2043871232	New blog post Charlie Wilsons War Widescreen 	2009-06-05 15:32:10
8640616	1019052908	Rewatched Charlie Wilsons War tonight Liked it better this time but it mostly made me miss The West Wing	2008-11-23 04:56:08
20944483	1932752155	Man Amy Adams is cute even in quotCharlie Wilsons Warquot  I dont know how she does it	2009-05-27 05:08:17
28523976	1406054892	Watchedlistened to Charlie Wilsons War Again PP the Fashion Seniors portraits Im getting better at this pufpuf	2009-03-28 07:53:48
38114189	2185273805	my mom knows the chick from charlie wilsons war the real one Oo	2009-06-16 00:08:17
9717997	850546265	hung out with james all day watched charlie wilsons war with dana now converting old shell scripts to python for the hell of it I kno 	2008-07-05 06:30:49
55869714	1037551253	Watching Charlie Wilsons War and loving this move so far	2008-12-04 04:11:20
55899239	2669314609	Chris Denham Charlie Wilsons War Shutter Island I envy Scorceses energy  	2009-07-16 13:20:49
25114751	3077238700	Julia Roberts is beautiful in real life Awful in Charlie Wilsons War	2009-08-01 22:55:27
7853575	2051537301	Watching Charlie Wilsons WarummmI more then a little confused  Not my type of movie  My husband seems to like it though  	2009-06-06 05:15:22
35724755	2158394254	viendo charlie wilsons war	2009-06-13 22:14:23
3590	898668285	Journalist Diane Sawyer arrives at the Universal Pictures presents a screening of Charlie Wilsons War at the 	2008-08-25 22:01:00
53426979	1777727394	How was Charlie Wilsons War	2009-05-12 21:39:09
8002619	1122864136	Should I watch Primer or Charlie Wilsons war	2009-01-16 03:53:44
30005129	1091037624	Watching Charlie Wilsons War	2009-01-02 04:26:03
35378589	2687863145	Dont you love Amy Adams Charlie Wilsons War Sunshine Cleaning and last but not least Doubt Havent check out Junebug tho Bummer	2009-07-17 13:09:51
15527970	1894746517	Watching Charlie Wilsons War on HBO 9788 Read about the movie  	2009-05-23 17:08:47
23670433	2920163735	Wonder how many ppl will show up to that Keith SweatCharlie Wilson After his performance  I dont think ill be spending the 	2009-07-30 00:27:22
18224385	1254986281	history channel on Charlie Wilsons war what a great way to spend an afternoon off	2009-02-26 19:46:14
4061648	795344726	 Charlie Wilsons War	2008-04-23 18:56:18
25530553	1246300018	Wondering how I missed Charlie Wilsons War when it was on the cinema	2009-02-24 20:32:27
6971603	796275225	Netflix sent me my 4th 5th and 6th choices instead of 123 I want my top choices The Savages an Charlie Wilsons War	2008-04-24 22:05:56
27825021	1329804762	Charlie Wilsons War not bad 35 I guess	2009-03-15 02:31:09
55954782	798710873	Infomaniac blog Movie Watch Charie Wilson8217s War I watched Charlie Wilsonamp8217s Wa 	2008-04-28 13:54:02
2981978	770106429	New blog post Charlie Wilsons War 2007 Review 	2008-03-12 00:15:23
15306119	1125284491	Just finished watching Charlie Wilsons War  Amazing	2009-01-17 01:59:42
52635803	787638670	Went to see Charlie Wilsons war 3 stars interesting but a bit slow	2008-04-12 04:37:35
8358428	820181891	oh yea CHARLIE WILSONS WAR was ok not amazing not crappy either	2008-05-26 13:47:52
29199707	2256710230	watching Charlie Wilsons War on Boxee check it out at 	2009-06-20 20:11:13
55952982	814539360	Finishing some work on Wii Transfer 26 as Traci queues up Charlie Wilsons War	2008-05-19 01:02:41
36498137	1694807530	Theres not yet a single decent film made about the Soviet invasion of Afghanistan Charlie Wilsons War was a total disaster	2009-05-04 11:11:58
40648803	1591432503	Gotta go to Delaware tommorrow Im going to b Spring Balling it Ryan Leslie suppose to sing and I am still in Charlie Wilson mode DESU	2009-04-23 04:09:52
25452358	543105092	Charlie Wilsons War was good Go see it	2007-12-29 07:31:59
45603498	2229931474	VIDEO Charlie Wilson Talks Solo Career and Cancer Awareness 	2009-06-18 23:24:28
22910925	2535049681	 Like Charlie Wilsons War only starring a turn in a punch bowl	2009-07-08 16:52:43
6444927	857668937	Watching Charlie Wilsons War	2008-07-14 03:01:25
55661236	598242212	Saw Charlie Wilsons war last night  pretty decent flick	2008-01-14 17:01:54
46026642	522990682	Charlie Wilsons War has some amazing Sorkin dialogue but I already forgot what it was	2007-12-22 02:53:30
17547104	1074859773	watching charlie wilsons war really good	2008-12-23 19:25:12
53145658	1070781631	softar hemma med Elin Kollar Charlie Wilsons War och 228ter ekologisk glass	2008-12-21 17:25:18
56015221	819949701	Which to watch the last half of Atonement or Charlie Wilsons War	2008-05-26 04:55:42
25833093	1184724001	is off to bed having just watched Charlie Wilsons war which was very interesting and filled in a few gaps of knowledge	2009-02-06 22:28:20
38665445	814553383	up at the CT house Carbonara PBR dvd Charlie Wilsons War	2008-05-19 01:29:11
2423948	856905946	Charlie Wilsons War	2008-07-13 01:32:43
25114751	3065566367	Started watching Charlie Wilsons War So far so good Tom Hanks is talented	2009-08-01 05:10:13
25957223	1927320763	I totally love Phillip Seymour Hoffman Hes even sexy in Charlie Wilsons War	2009-05-26 20:01:07
1447494	1233285705	Watched Charlie Wilsons War  A darn fine movie	2009-02-21 04:31:51
3500223	1006623054	Charlie Wilsons War was a very good movie  Thanks for  for the recommendation	2008-11-15 04:38:36
1407859	836927939	Watched Charlie Wilsons War last night I liked it Very entertaining	2008-06-17 15:14:32
5581	2488107731	3 Film Boxset Charlie Wilsons WarApollo 13Philadelphia  163499  Sainsburys INSTORE 	2009-07-05 22:34:02
5641617	890633597	Charlie Wilsons War is the first movie based on a book that I have not hated	2008-08-18 01:45:27
16713795	1372074142	Charlie wilsons war  emily blunt and amy Adams in one place 	2009-03-22 21:06:33
9036029	1088891670	 Charlie Wilsons War Great read and a pretty good movie too Though I dont know if its available on BluRay	2008-12-31 22:30:50
15580282	914173625	Working on a review of Charlie Wilsons War	2008-09-08 19:01:44
17436851	1383801733	 whats it gonna take  A Pineapple Express airfreshener  Charlie Wilsons War tshirt Name your price	2009-03-24 20:24:02
24044969	1109229736	is watching Charlie Wilsons War	2009-01-10 16:26:55
55981912	1059922535	Watching quotCharlie Wilsons Warquot  Sorkins politics are ridiculous but he can sure write entertaining dialogue	2008-12-16 03:35:37
55699284	534747092	I saw Charlie Wilsons War managed to get past the butchered Texas accents to enjoy it I wonder what Molly Ivins would have to say	2007-12-26 12:52:37
26351534	1188895643	Saw Charlie Wilsons War last night what a great film Waiting for the rugby to start	2009-02-08 14:36:08
19566992	1923845173	Watching Charlie Wilsons War for the second time	2009-05-26 14:18:09
55777647	2856722828	Watching Charlie Wilsons War continuing the 80s cold war theme to my weekend	2009-07-26 18:51:13
28829779	3266854300	Thanks to Congressman Charlie Wilson for his endorsement today Look forward to working w him in Washington on behalf of eastern OH	2009-08-12 15:25:32
37554878	1934383054	They were one of the producers of Charlie Wilsons war Good movie	2009-05-27 10:08:26
16332373	1281352020	watching Charlie Wilsons War  I think I can be as cool if I were elected to Congress	2009-03-05 01:36:42
40858538	2490253158	Reservation Rd over didnt care for the ending plus the movie itself drug on Now Charlie Wilsons War	2009-07-06 01:38:25
9644988	1091990676	 and if you had any doubt  I made a funny watch Charlie Wilsons War PSH was stelluar	2009-01-02 18:38:53
1285730	525547522	Back from Charlie Wilsons War great fun and the Mandarin cheesy Chinese buffet but awesome service Now Snuggling and videogames	2007-12-23 03:53:50
212804	1260590902	Just watched Charlie Wilsons war now im gonna call it a day long essay to write this weekend and an election to look forward to Vote Me 	2009-02-28 01:28:06
32058782	1313321879	Just watched CHarlie Wilsons War on DVD Never heard of the congressman who helped the Mujo defete the Russians in 85	2009-03-11 23:29:09
563762	592414142	were going to watch Charlie Wilsons War	2008-01-12 23:03:17
2409	497183402	Nominees for best comedy or musical are Across the Universe Charlie Wilsons War Hairspray Juno and Sweeney Todd	2007-12-13 14:15:20
56001971	851589983	Renting Charlie Wilsons War on iTunes  This should be interesting	2008-07-07 00:27:51
5621217	814585116	Cloverfield  weird Lets see what Charlie Wilsons war has in store	2008-05-19 02:28:56
5203024	838248360	Watching Charlie Wilsons War	2008-06-19 00:51:07
10347150	1271309790	Comment fait Julia Roberts pour avoir un tel accent du Sud dans Charlie Wilsons War  Epatante 	2009-03-02 23:05:00
16657757	1057708391	Watching Charlie Wilsons War I heart Tom Hanks	2008-12-15 02:02:13
25718347	1370272875	Charlie Wilsons war is about to start is it worth watching or should I stick to the Bio channel	2009-03-22 13:11:45
54603941	1562647703	Just watched Charlie Wilsons War Great	2009-04-20 03:30:30
29031856	1410089116	Anyone ever seen Charlie Wilsons War the Tom Hanks joint Pretty Good Movie Ehh	2009-03-29 01:49:50
55938993	592843632	Charlie Wilsons War 07 Nichols B Funny though only brilliant when PSH is onscreen Solves dreaded third act problem by not having one	2008-01-13 02:16:00
43155237	2780051445	WowI had not seen Charlie Wilsons War until last nightwhat an eye openerLesson learned Maybe not Well seeZyn Master	2009-07-22 16:02:15
23304358	1286953452	How About That Charlie Wilson winning The Silver Bucket Award	2009-03-06 04:40:22
4799503	811356517	Charlie wilsons war was awesome 	2008-05-14 19:14:31
55929599	1094739957	Im 53 minutes into Charlie Wilsons War I adore this man He drinks like me 	2009-01-04 05:47:32
25440488	1192849754	Just had a nice bath playing with harrymy son Now for a film Charlie Wilsons war I think	2009-02-09 19:19:32
51062376	523410162	watching charlie wilsons war	2007-12-22 07:03:21
18474471	1077441972	currently watching Charlie Wilsons Wardamn staut movie how did I miss this gem	2008-12-25 04:00:24
37690003	1506693520	Watching Charlie Wilsons War and writing Political Behavior EssaysI feel educated and productive	2009-04-13 02:32:22
44243732	2881131110	watching Charlie Wilsons War	2009-07-28 01:00:21
27814953	1558584942	2659729702183230412357236874303402511220105 charlie wilsons war	2009-04-19 15:49:10
28710960	1312291763	 Zip sent us Charlie Wilsons War Since when do you clean And no Im not doing it for you	2009-03-11 19:47:24
20945422	1272141352	Palak Paneer and Charlie Wilsons War with a lovely houseguest	2009-03-03 03:03:05
8253887	1039586794	charlie wilsons war	2008-12-05 04:38:30
55904063	957213304	watching Charlie Wilsons War with Cathy	2008-10-13 04:13:45
28510031	1294281571	Tijd voor n filmpje Charlie Wilsons War	2009-03-07 22:25:25
576029	852691547	Insomnia has helped me to catch up on movies Loved quotLars and the Real Girlquot and quotBe Kind Rewindquot quotCharlie Wilsons Warquot was depressing	2008-07-08 10:02:25
9763161	1127819501	Just watched Charlie Wilsons War good movie Explains a lot about what we have going on now	2009-01-18 07:51:33
55747635	1031465492	Charlie Wilsons War is a very smart well written movie Excellent cast makes this a great flick	2008-12-01 01:03:29
4938	1605691264	Check this video out  Charlie Wilsons War  TrailerHD Tom Hanks Julia Roberts 	2009-04-24 17:40:13
55926178	553373642	Charlie Wilsons Warexcellent film and historical reminder	2008-01-01 22:45:19
9393546	1314677848	charlie wilsons war old movie but good for all the wars started and ended well well see	2009-03-12 05:11:18
11687512	1079580669	Im watching Charlie Wilsons War Suprisingly I like the Movie 	2008-12-26 17:41:48
41357531	546611792	 charlie wilsons war	2007-12-30 14:53:02
9469690	816298576	Watching Charlie Wilsons War with roommates I heart Aaron Sorkin	2008-05-21 05:05:14
39808666	834831600	watched Charlie Wilsons War on DVD with my girlfriendgreat movie	2008-06-14 19:43:29
55944349	2718681806	Watched Charlie Wilsons War yesterday  A fantastic history lesson on the fall of communism in Afghanistan	2009-07-19 06:46:40
24469162	2074649332	On my way home to do some laundry and tidyingup  Might watch half of Charlie Wilsons War	2009-06-08 10:10:06
2423	521341362	Charlie Wilsons War on the Box Office 	2007-12-21 15:01:14
56022479	544624052	Saw Charlie Wilsons War last night I liked it a lot	2007-12-29 20:40:55
5999612	871006034	viewing charlie wilsons wartoy mines explosive candymy dad said in Estonia the soviets dropped founten pens to hurt children	2008-07-28 22:39:27
16193322	1081013041	Saw Charlie Wilsons War Excellent The Zen Master parable was memorable  and the Zen Master said Well See 	2008-12-27 17:10:53
56010395	2074116076	 Charlie Wilsons War The Terminal Road to Perdition Catch me If You Can Cast Away Shaving Ryans Privates	2009-06-08 08:25:20
5798673	1503620211	Thanks but ill keep to charlie wilsons war	2009-04-12 16:26:13
416275	847292137	Watching Charlie Wilsons War	2008-07-01 01:23:09
32124020	2008480284	Watching Charlie Wilsons War	2009-06-02 21:11:32
2355304	2194292403	watching Charlie Wilsons war	2009-06-16 16:35:58
17776885	1529557305	deep into act two charlie wilsons war on in background	2009-04-16 00:02:41
56013749	1030384496	Just watched Charlie Wilsons War and enjoyed it	2008-11-30 05:57:44
30071233	1404863400	watching Charlie Wilsons War playing with his computers andandthats it	2009-03-28 01:57:18
20474600	1031264372	 get out of my head  We spent the day watching the same things  Apes marathon amp Charlie Wilsons War	2008-11-30 22:15:50
43210464	2449964817	Favorite movie used 2B  2001 then it was Close Encounters then Apocalypse Now then Wag the Dog now its Charlie Wilsons War	2009-07-03 05:49:02
17406293	1128142777	Book recommendation George Crile  Charlie Wilsons war  London Atlantic 2002	2009-01-18 13:41:56
55989524	529292352	was pretty impressed with Tom Hanks in Charlie Wilsons War	2007-12-24 13:43:24
30349370	1970174339	 Lying on the couch watching Charlie Wilsons War  boring knitting tweeting PARTY	2009-05-30 09:45:48
22528889	1081929874	Just finished watching Charlie Wilsons War Tom Hanks with hubby on DVD Criticism wasnt good dont know why Liked the movie	2008-12-28 06:00:55
6768194	1327461608	Charlie Wilsons War  smart script best line  quotAnd thats the day I fell in love with Americaquot	2009-03-14 16:15:59
16197462	1932790067	A line in the movie quotCharlie Wilsons Warquot  quotWhat do you want to be when you grow upquot	2009-05-27 05:13:30
56008013	837830864	  and I watched Charlie Wilsons War on Saturday Not really a girls night movie	2008-06-18 14:45:01
41094788	1792936462	Watching quotCharlie Wilsons Warquot with several travelers from Israel	2009-05-14 07:45:54
3747377	814420564	Sundays MoviesGriffin amp Phoenix and Im about to  start PS I Love You  I also have Charlie Wilsons War just because I love Tom Hanks	2008-05-18 21:04:23
38999776	2031841562	and finally plan for investment towards education and health care in Afghanistan Remember Congressman Charlie Wilson anyone	2009-06-04 17:23:48
17007787	940201053	Just watched Charlie Wilsons War I	2008-09-30 05:15:43
4237	1110293989	Charlie Wilsons War	2009-01-11 03:27:58
3818233	752649392	Shit throw in PSH in Charlie Wilsons War for Best Supp Actor and make it a trifecta  If it hits drinks hookers and blow are on me	2008-02-24 21:20:54
33920714	1610346526	just finished watching charlie wilsons war  you should see it prolly my favorite movie of recent memory	2009-04-25 03:52:45
49763712	3073766970	Update Charlie Wilsons War DVDRIP 	2009-08-01 18:38:34
31548329	1392373455	About to watch quotCharlie Wilsons Warquot	2009-03-26 03:36:42
6629136	1281132115	Just watched Charlie Wilsons War  Damn good movie	2009-03-05 00:32:17
4165767	820576963	Good weekend now going to watch quotCharlie Wilsons Warquot	2008-05-27 02:13:09
19033875	1435809684	Charlie Wilsons War was about as good as a political historical movie set after 1900 can conceivably be Thank you Mr Sorkin D	2009-04-02 02:21:37
7625240	826241049	Rewatching the amazing Charlie Wilsons War	2008-06-03 19:31:36
19183327	1741916924	I think Ill watch a DVD I have either season 4 of The Wire or Charlie Wilsons War  better refill my huge wine glass	2009-05-09 00:10:58
52756231	605327662	 Charlie Wilsons War is a great film  puts into context how we got Afghanastan into the mess it is now in	2008-01-16 13:28:49
55661466	1149055533	 Charlie Wilsons War	2009-01-26 14:00:27
11132385	1412681515	Watched Charlie Wilsons War last night Excellent movie 910 would have been 1010 but 1 for Julia Roberts having two sets of eyebrows	2009-03-29 16:20:54
55800645	1325499660	Internet search aint all its cracked up to be Id love to know a quote in a movie Charlie Wilsons War a Chinese legend about fortune	2009-03-14 03:08:18
55711215	864689740	going to watch charlie wilsons war with my lovely wife  kids playing in the lightning  natural consequences I guess  theyll learn	2008-07-22 01:58:35
4106628	3589324796	watching Charlie Wilsons War on Boxee check it out at 	2009-08-27 22:23:48
33103242	1400234296	means Charlie Wilsons War the book not the movie	2009-03-27 10:58:17
5651698	1410268162	Charlie Wilsons War was a good view May have to rewatch to get what they are saying but still a good movie	2009-03-29 02:32:56
10036039	1093456489	Putting in Charlie WIlsons War 2 watch whilst comicking amp hoping it doesnt suck  Tom Hanks usually doesnt disappoint but u never know	2009-01-03 14:58:20
34112535	1454809822	watching CHARLIE WILSONS WAR	2009-04-05 02:03:50
9284353	830138125	Is watching charlie wilsons war and is starting to like his new blackberry	2008-06-09 02:35:25
55712239	797820659	watching charlie wilsons war with kadie	2008-04-27 03:15:39
28523266	1506593952	Julia Roberts looks great in her bikini in Charlie Wilsons War	2009-04-13 02:13:37
35365631	1450545941	Reading Charlie Wilsons War  I love a book that can hook me in the first four pages	2009-04-04 07:35:06
889430	569165972	Off to see Charlie Wilsons War Gosh I love foreign policy films If only Id been alive for more than 4 years of the Cold War	2008-01-06 20:02:57
12400390	859607486	downloading charlie wilsons war and reading The Onion	2008-07-16 02:24:36
36246841	3136222613	Julia Roberts has the worst quotsouthern accentquot I hated it in Steel Magnolias amp I hate it in Charlie Wilsons War hubs is watching it	2009-08-05 01:29:36
6325499	1556281446	Half watching Charlie Wilsons War	2009-04-19 05:15:23
7550145	797227674	Watching Charlie Wilsons War	2008-04-26 03:21:45
55712966	1888470307	I rated Charlie Wilsons War 3 out of 5 amp9654 	2009-05-23 00:17:53
55938788	1282410949	Watching charlie wilsons war	2009-03-05 07:16:07
1546329	533990092	Had too much dimsum for which I waited in line for more than 45 minutes Oh and btw Charlie Wilsons War is pretty flat	2007-12-26 05:55:38
1306188	2331237080	is in LA  the BET Awards this weekend but in Detroit Sat Charlie Wilson  Floods Sun its SoSo White wJermaine Dupri	2009-06-25 19:57:51
55869332	766362780	Charlie Wilsons War	2008-03-04 04:07:24
8093331	1035551232	 I thought Charlie Wilsons War was very good Put a lot of current events in context too	2008-12-03 04:14:38
7977627	1171532196	listening to Charlie Wilsons War books on tape on the way to and from work	2009-02-03 00:49:44
54755137	749580202	heading out to see Charlie Wilsons warCloverfield double feature with my honey	2008-02-23 23:39:26
5367132	1238978879	Havent seen any movies this year let alone oscar nominated ones I did just see charlie wilsons war It was missing whitford amp sheen	2009-02-23 01:31:25
4801009	848375362	 LOVE YOUR WORK IN CHARLIE WILSONS WAR I WENT UP FOR THE LEAD IN HUSTLE amp FLOW STILL WAITING ON A CALL BACK	2008-07-02 12:06:00
33205803	1580498413	gonna finish watching charlie wilsons war	2009-04-22 01:06:22
917882	3403546569	ross  Very true Charlie Wilsons War covered that part of history very well Taliban funded by CIA for years	2009-08-19 11:44:51
55938120	798819333	 to quote Charlie Wilsons War I like to use my name from time to time and need it as undamaged as possible P	2008-04-28 16:16:27
34378984	1787074575	watching CHARLIE WILSONS WAR  I heart Amy Adams	2009-05-13 18:32:23
55714400	787667500	368252096022825199812115229677652923047520102200043709629255233766529212298Becoming Jane122992164412298Charlie Wilsons War1229965292Becoming Jane19981381696529225293303402637736259199812654329157652922742736175Anne Hathaway35828305281996833324333243034033521222693352135821652923527324471284362159236824261592445629992245153034012290	2008-04-12 06:08:39
8031325	1030273882	 korina Walk around in the wintery dark then watch Charlie Wilsons War	2008-11-30 04:03:41
15008826	950653335	 Look McCain has seen Charlie Wilsons War too Does he get his foreign policy advice from movies	2008-10-08 02:13:54
39013456	1634661840	quotThe Soviets didnt come into Afghanistan on a EuroRail pass they came in on T55 tanksquot Charlie Wilsons War	2009-04-28 01:18:04
16423253	1090910388	Watching Charlie Wilsons war Good flick so far I think	2009-01-02 02:49:19
55891254	1383762510	Let the right one in Happy go Lucky Charlie Wilsons War  all waiting for me at home This is going to be a great evening	2009-03-24 20:16:21
5880071	2193898013	now watching Charlie Wilsons War on HBO Tom Hanks rules	2009-06-16 16:04:35
52391346	1929053207	Charlie Wilsons War A history lessonshould be shown in every schoolesp in the USGreat performances from Hanks and Hoffmanas u  	2009-05-26 22:52:52
29822750	1267442788	har just sett f228rdigt Charlie Wilsons War Tokbra film Se den	2009-03-02 01:28:20
35724808	1768045297	Charlie Wilsons Angelic War Fuller Throttle unlikelysequels	2009-05-11 23:32:15
12300194	931161434	Watching Charlie Wilsons War waiting for my pizza to be delivered	2008-09-23 02:19:08
47655055	514181842	Invited by Yedda to answer  Charlie Wilsons War  Roberts and Hanks 	2007-12-19 12:52:20
55694466	1044402812	is getting ready to watch Charlie Wilsons War  Gotta love Tom Hanks and Phillip Seymour Hoffman	2008-12-08 03:12:08
5943813	878884775	Watching Charlie Wilsons War  Oh my	2008-08-06 01:58:36
6712112	802247738	Picked up a movie Charlie Wilsons War with Melissa  Now Melissa and I are eating at Corner Pub Grill	2008-05-02 23:07:46
33790357	2157114598	Cd van Charlie Wilson gekochtnieuwe koptelefoon voor iPhone Sony geworden prima ding Vriendin heeft een zwarte Skullcandy gekocht geil	2009-06-13 19:59:21
56011506	804151503	Well this afternoon sucked  Time to go home and watch Charlie Wilsons War  	2008-05-05 20:37:25
12142202	1428231715	Finally watched Charlie Wilsons War Good movie liked the book even more quotThe Boy and the Zen Masterquot is an extremely illuminating story	2009-04-01 00:55:20
56007577	856134333	with an exhausting week behind me and a full working weekend ahead of me im taking the night off to watch Charlie Wilsons War 	2008-07-12 00:04:35
55805493	545674712	enjoyed Charlie Wilsons war	2007-12-30 05:57:51
3343	843029395	20080606  Charlie Wilsons War 2007  Grade A  	2008-06-25 05:41:07
34365008	1110159236	is watching Charlie Wilsons War	2009-01-11 02:02:00
4679102	2837667151	Just saw quotCharlie Wilsons warquot Brilliant movie Great actors lots of funny lines and an amazing and true story	2009-07-25 14:25:12
41565506	2201461718	  your very welcome had a great day  watch Charlie Wilsons War now surprising amount of boobies 	2009-06-17 03:18:28
21416068	1041371895	watching Charlie Wilsons War and thinking its a really dull movie	2008-12-06 02:23:43
16218052	1237131925	is watching quotCharlie Wilsons Warquot on HBO but doesnt get it And I love Aaron Sorkin movies	2009-02-22 13:42:19
5354	2136026559	Netflix just shipped Charlie Wilsons War to me   	2009-06-12 20:10:31
9108513	860864337	Watched half of Charlie Wilsons War good grief now off to bed	2008-07-17 13:27:52
55989352	779097087	Cynthia is thinking about Afghanistan after finishing Kite Runner and Charlie Wilsons War	2008-03-29 10:32:06
55971148	569552332	Just saw Charlie Wilsons War Good acting all around but Amy Adams deserves the GG nomination not Julia Roberts	2008-01-06 22:51:54
19098980	1112076114	Watching Charlie Wilsons war	2009-01-12 01:37:32
19150598	1678888672	here I am yesterday on TYT reviewing CHARLIE WILSONS WAR and discussing the SovietAfghan war and AFG policy 	2009-05-02 14:59:41
55821444	863121068	Charlie Wilsons War  Moore Square	2008-07-20 02:03:00
9453771	1268168979	Great night w the familydinner at Olive Garden  amp then watched Charlie Wilsons Warincredibly awkward to watch with your rents fyi	2009-03-02 05:31:19
10836169	835711736	Cancel that work stuff mumbojumbo Watching Charlie Wilsons War instead	2008-06-16 04:35:12
10326024	1340567953	Finally watched quotCharlie Wilsons Warquot  Disappointing script no arc just stuff happening  Pleasant but blown opportunity	2009-03-17 04:38:36
55804529	529888102	Saw Charlie Wilsons War last night good movie  has grown on me eversorelevant slice of history presented	2007-12-24 17:33:14
12006763	1213662640	  Hmmmsounds just like Charlie Wilsons War except that at least Charlie Wilson was cool	2009-02-15 23:53:55
8126579	1538317789	Watching Charlie Wilsons War  damn Netflix DVD keeps skipping  ampltannoyedampgt	2009-04-17 01:11:16
34079961	2783771599	Jus about to settle down and watch charlie wilsons wargot some cool news bout my musical endevors to share soon toopeace	2009-07-22 19:41:23
55674323	509191692	As an Aaron Sorkin fan I feel obligated to see Charlie Wilsons War	2007-12-17 23:57:10
45702561	2864454115	Watching Charlie Wilsons War reminded me of my training drills with shitty rifles from the 1940s	2009-07-27 03:57:54
42567125	950873842	Gisterenavond overigens nog een geweldige film gekeken quotCharlie Wilsons Warquot 9755 aanrader	2008-10-08 04:50:45
3430580	1751017803	To quote Charlie Wilsons War  we fucked up the endgame	2009-05-10 01:28:21
55674281	1635193454	 charlie wilsons war 4 it started well just never felt finished to me	2009-04-28 02:20:18
1888855	750705172	rain again oh well  when it rains play in the puddles  charlie wilsons war  food for thought  why show it in only one theatre	2008-02-24 07:54:06
32030742	1363189396	Wondering what to write about Young Victoria  I now see Emily Blunts talents paradoxically hidden in Charlie Wilsons War	2009-03-20 22:54:27
37978449	1622886083	Did nothing yesterday but watch movies Charlie Wilsons War made me depressed Slumdog made me sad but hopeful Show tonight in CDA	2009-04-26 20:07:24
27590034	2755688054	 Have you seen Charlie Wilsons War	2009-07-21 10:11:09
25830642	3195189515	Watching Charlie Wilsons War	2009-08-08 17:14:31
21989760	1876777589	Watching Charlie Wilsons War wfriend so not listening but still lurking here  hhrs	2009-05-22 00:01:55
26216537	1788445401	Just back from going out Got 2 books and a movie Is Charlie Wilsons War any good It was the only decent one in the library Im afraid	2009-05-13 21:47:00
1665116	642540652	Saw Charlie Wilsons War  I thought I would be disappointed  But it was really a fun movie  I would suggest it	2008-01-26 04:30:49
48189851	2372774694	Reading The Story Sisters by Alice Hoffman  Not my favorite but an okay read  Saw Charlie Wilsons War  everyone should see it	2009-06-28 16:00:47
24929200	1878339826	I just watched Charlie Wilsons War Emily Blunt is awesome She is makin her mark in Hollywood FYI  	2009-05-22 02:55:57
20539708	1674485222	Was kinda fed up with reruns on tv so decided to put on a movie Charlie Wilsons war which Ive already seen Oh well its a good movie	2009-05-02 00:27:33
34303580	2103879478	CHARLIE WILSONS WAR Angels amp Demons star Tom Hanks in Mike Nichols look at US Afghanistan Policy in the Cold War 	2009-06-10 14:45:10
2972545	869236866	Im watching Charlie Wilsons War	2008-07-26 20:28:50
54219675	542506742	Waiting to see Charlie Wilsons War Hope it lives up to the hype its getting	2007-12-29 02:26:26
28518992	2313900324	In bed watching Charlie Wilsons Waruntill i fall asleep anyway	2009-06-24 18:11:32
37879200	3096863601	Really enjoyed charlie wilsons war	2009-08-03 02:32:03
52157825	829447613	watching Charlie Wilsons War and trying to understand the new neighbor by snooping out the window	2008-06-08 00:29:05
48031262	541753182	About to see Charlie Wilsons War  Im on a movie rampage	2007-12-28 17:53:10
3670	927611937	Scud Stud Arthur Kent settles lawsuit over footage in film  Charlie Wilsons War 	2008-09-19 19:00:19
31627869	1827197640	watching Charlie Wilsons War over coffee	2009-05-17 17:11:58
48171563	3228260066	 Must See if you havent already Charlie Wilsons War 	2009-08-10 17:08:51
8001727	873433695	Cast Away and Charlie Wilsons War  Mhmm enough Tom Hanks to slaughter a giant moose at an Egyptian festival yep Im tired	2008-07-31 08:24:06
3490541	1081430219	dpois de ver made of honor o proximo 233 charlie wilsons war	2008-12-27 22:58:12
48048372	820541762	Watching Charlie Wilsons war and having a pint	2008-05-27 01:02:27
12604343	1025801448	Finally saw Charlie Wilsons War Great movie Nichols Sorkin and Hanks are a brilliant team They need to make more movies together	2008-11-27 03:57:44
28650640	1395603755	 Like Phillip Seymour Hoffman said in Charlie Wilsons War Well see	2009-03-26 17:20:41
9283563	864204348	 I just got around to Charlie Wilsons War last night	2008-07-21 14:48:09
24887946	1129924322	Watching Charlie Wilsons War at Jeremys for movie night	2009-01-19 07:12:08
52444906	527731252	Top 5 box office 1  National Treasure 2 2  I Am Legend 3  Alvin amp the Chipmunks 4  Charlie Wilsons War 5  Sweeney Todd	2007-12-24 00:18:36
15684952	1030265868	 Im watching Charlie Wilsons War right now as a matter of fact	2008-11-30 03:55:47
56018203	814410057	Haha charlie wilsons war dvd has an advertisement for hddvd	2008-05-18 20:42:50
27647358	1998857700	Watched Awake now watching Charlie Wilsons War which is a great movie ps	2009-06-02 02:14:21
1632112	1052260282	Watching Charlie Wilsons War I love this movie	2008-12-11 23:05:01
55942469	842167737	Charlie Wilsons War was great These things happened They were glorious and they changed the world  amp then we fcked up the end game	2008-06-24 03:41:34
8585103	841244881	Getting ready to tear into a little Charlie Wilsons War and then probably a random horror flick	2008-06-23 00:18:13
26663502	1927546434	Watching Charlie Wilsons War  Class	2009-05-26 20:23:09
44512491	718978812	 have you watched Charlie Wilsons War yet Absolutely amazing movie	2008-02-16 08:08:40
5131328	1052944378	Just watched Charlie Wilsons war Very good Why do i start movies at 1145 pm	2008-12-12 06:57:00
11651510	2476355257	saw Charlie Wilsons War Mildly entertaining cold war era propaganda Subtitles on tried to learn Svenska	2009-07-05 00:56:02
40340699	1808693329	Charlie Wilsons War its hard not to love anything Aaron Sorkin writes this film is no exception	2009-05-15 18:22:49
32868976	1554544927	Watchin Charlie Wilsons War dvd  Facinatin   Ahaay	2009-04-19 00:17:15
23641718	2700428425	I agree RT  Check out the movie quotCharlie Wilsons Warquot starring Tom Hanks Good movie	2009-07-18 03:03:54
34353583	2312790441	 pensaba yo viendo Charlie Wilsons War el otro d237a A Fincher no lo conozco pero me f237o de  	2009-06-24 16:48:50
10500580	835631350	 Took Monday off knew from experience that I would be wrecked Downloading Charlie Wilsons War  you seen it	2008-06-16 01:56:49
987060	834643844	watching Charlie Wilsons War then beach starbucks suits	2008-06-14 13:56:27
10536578	831903274	watching Charlie Wilsons War with Nikki	2008-06-11 04:41:20
25878316	2485594225	Watching Charlie Wilsons War	2009-07-05 18:59:27
56007965	875948521	Folks Charlie Wilsons War is a mustsee	2008-08-02 22:48:29
55942400	533405332	saw I Am Legend and Charlie Wilsons Warnow making a Christmas Dinner and opening presents	2007-12-26 00:56:05
55721235	904111245	Watched Charlie Wilsons war last night It has some good humor and acting in it well worth watching	2008-08-30 17:04:12
26448579	1503507757	Chilling just waking up enjoying some coffee and greenwatching Charlie Wilsons Warpretty good so far	2009-04-12 16:02:52
16459492	1076860495	Watching Charlie Wilsons War and napping	2008-12-24 20:12:26
10214066	1459589323	well i cant keep my eyes open putting e down and then going to bed to watch the rest of charlie wilsons war love it so far night	2009-04-05 23:29:29
52728356	615850892	Saw Charlie Wilsons War very good film  Love Jack Nicholson amp Morgan Freeman what fun	2008-01-19 02:40:36
55763530	536593482	Charlie wilsons war  great movie	2007-12-27 02:46:01
37092373	1634388714	whoa  just saw the megan fox lookalike belly dancer in charlie wilsons warHELLooo	2009-04-28 00:45:48
3373	847092702	Back from the hike took the way west instead bout to BBQ ckn renting Body Heat and Charlie Wilsons War is this a vacation or what	2008-06-30 19:05:07
55761123	2511682886	 What about Charlie Wilsons War Did you see that Thoughts	2009-07-07 09:16:13
17948718	1835095394	charlie wilsons war	2009-05-18 12:07:27
8969020	1822428858	Charlie Wilsons Warsounds boring is boring	2009-05-17 02:33:24
5497897	1135312067	watched Charlie Wilsons War  Everything is so obvious when distilled to 90 minutes of unambiguityMore world issues should be like that	2009-01-21 03:17:44
1643573	952939977	Watching a slient quotCharlie Wilsons Warquot with a needle in my arm I love days off	2008-10-09 16:33:55
7506752	809119980	Charlie Wilsons War is a good flick  Catching some sweet sweet sleep	2008-05-12 06:34:48
26620396	1207238774	is watching Charlie Wilsons War again	2009-02-13 18:14:11
30432369	645105172	Twitter is handig om bij te houden welke films ik gezien heb De score van deze week Gone Baby Gone goed en Charlie Wilsons War goed	2008-01-26 23:02:49
29318602	1349569835	Listen Charlie Wilsons cancer 	2009-03-18 17:51:39
55979452	615840132	Charlie wilsons war	2008-01-19 02:35:50
8445080	830189664	Wonderful day Took parrots to the park worked out watched Charlie Wilsons War rescued frog that got in house updated here twice	2008-06-09 04:15:05
55799784	895117881	Reading Charlie Wilsons War Talk about Cl S3rvc3s	2008-08-22 03:23:40
41082690	1889175784	okay what movie should i watch first last chance harvey the wrestler or charlie wilsons war	2009-05-23 01:42:07
55766305	806107645	watched charlie wilsons war instead of finishing paper now off to top chef  guess im waking up early tomorrow to write nighty night	2008-05-08 04:53:32
3529894	1755392235	Just watched Charlie Wilsons War  Fave line quot Why is Congress saying one thing and doing another Tradition mostlyquot   Ha	2009-05-10 16:01:24
16158354	2757056672	 Hanks The of course Philadelphia and Charlie Wilsons War fuckin classic	2009-07-21 12:36:53
27284697	3195305131	Charlie Wilsons War what a great movie	2009-08-08 17:24:40
4103280	2078766191	watching Charlie Wilsons War	2009-06-08 17:46:12
55938993	594825482	Actually make that Charlie Wilsons War grade a B	2008-01-13 18:26:08
55973666	1010583038	Watching charlie wilsons war	2008-11-18 01:51:37
55806252	862505174	Watching Charlie Wilsons War Yay netflix	2008-07-19 05:05:12
55762484	1083222419	Finished Charlie Wilsons War and I think he might be right in his closing comments after messing up the endgamefrom what I know eh	2008-12-29 02:20:47
23842762	3136301700	Mama Krunk brought home some Rubios now Im watchin Charlie Wilsons War Boooored	2009-08-05 01:34:07
5378970	1291597069	 better or worse than Charlie Wilsons War	2009-03-07 04:07:26
32211529	1933015397	Watching Charlie Wilsons War for the 10th time What a good movie Florida in the morning w  mstephens jchen dscavone GColby	2009-05-27 05:46:37
5490269	1555669896	Just finished watching Charlie Wilsons War Back of the DVD said it was wickedly funny It wasnt But it was a really good film	2009-04-19 03:21:52
13652641	878961130	Watching Charlie Wilsons War  the talking blowback blues	2008-08-06 03:40:14
2166354	1057372176	I just Charlie Wilsondwar not gap my coffee Had to upgrade from unleaded to diesel to get the engine gunnin	2008-12-14 21:48:30
9216576	1014105821	thinks Charlie Wilsons War was mediocre despite Aaron Sorkins best efforts	2008-11-20 03:28:19
24858464	1225411357	 Facts I chuckle at the part of quotCharlie Wilsons Warquot book amp film when it references Murtha	2009-02-19 03:13:52
54972075	883767991	just watched quotcharlie wilsons warquot was unsurprised to see the  screenplay was by aaron sorkin im a sucker for fastpaced witty dialogue	2008-08-11 03:16:16
9616346	950666116	great now mccain is reciting the plot of charlie wilsons war	2008-10-08 02:17:55
43928133	2195439058	Who is responsible for attacks in INDIAwell Americawatch Charlie Wilsons War	2009-06-16 18:07:53
38071687	2492039138	just finished watching charlie wilsons war its awesome to think what can be done by one individual its too bad we fked up the end	2009-07-06 04:02:41
7964936	862513952	Neu im Blog Charlie Wilsons War  Politik made in Amerika 	2008-07-19 05:23:04
53138541	973160234	NEW Charlie Wilsons War The Extraordinary Story of How the Wildest Man in Congress and a Rogue  	2008-10-24 04:49:36
4242	1112077971	Charlie wilsons war  Check it out	2009-01-12 01:38:36
3544375	813774714	Watching Charlie Wilsons War better than expected	2008-05-17 20:40:07
10178679	1335975034	Watching Charlie Wilsons War	2009-03-16 12:27:34
6879277	1260627223	Watching Charlie Wilsons War with mom It is quite interesting	2009-02-28 01:41:24
8457483	2199405871	Listening to Joanna King Herring aka Julia Roberts in Charlie Wilsons War explain Winston Churchills dyslexia	2009-06-17 00:27:19
17501090	2854186589	Charlie wilsons war with Henry	2009-07-26 15:31:05
45078633	2118926256	Seems like a good day to watch a movie so I am watching Charlie Wilsons War	2009-06-11 16:39:02
11265851	1005046539	just watched Charlie Wilsons War and made pumpkin pie what a good movie it makes me like Philip Seymour Hoffman even more	2008-11-14 05:44:18
593135	923588977	about to watch charlie wilsons war after warming up a little and checking web	2008-09-16 17:18:37
51419099	577331782	Going to see Charlie Wilsons War with Dad	2008-01-08 22:39:07
25196008	1950378786	Mr B also deposits money into a joint checking account that we maintain He is complicit my bloggingIts a lot like Charlie Wilsons War	2009-05-28 18:50:39
46106746	2037486200	Happy to have been tweeted by Chewey12 who should be finished burning that movie 4 Ken  Is it Charlie Wilsons War  I hope so	2009-06-05 01:43:19
15688985	1147515794	Very much enjoyed Charlie Wilsons War  particularly now I know my broadband was being fixed simultaneously	2009-01-25 21:47:35
31654734	3610638294	is watching Charlie Wilsons War And likes it	2009-08-28 20:30:21
16654771	936572849	Aha  McCain saw quotCharlie Wilsons Warquot	2008-09-27 01:53:18
3031802	681030552	Adnan just watched Charlie Wilsons war and is underwhelmed at best	2008-02-05 19:49:16
2207727	891109198	just watched Charlie Wilsons War last night  Highly recommend it if you havent see it	2008-08-18 14:43:47
34037025	1845938287	Anyone who has not seen Charlie Wilsons war needs to see it asap Its amazing	2009-05-19 10:29:26
17835009	2130624466	Watched Charlie Wilsons War Was already a huge fan of Aaron Sorkins writing and Tom Hanks Now Im in awe of Philip Seymour Hoffman	2009-06-12 12:38:39
32692407	619676942	I just saw Charlie Wilsons war Short review hilarious and insightful	2008-01-20 08:33:39
41154490	1994228224	About to watch charlie wilsons war Looks kind of boring first impressions	2009-06-01 18:36:41
5250734	1498809305	just saw Charlie Wilsons War A stiff drink A little mascara A lot of nerve Who said they couldnt bring down the Soviet empire Watch	2009-04-11 20:08:23
34031652	3250189576	 I know I think Charlie Wilsons War should be mandatory viewing	2009-08-11 18:40:44
29332574	1705747185	finally watched Charlie Wilsons War last night  not what I was expecting but really liked the movie	2009-05-05 13:03:15
24760665	1176385471	Charlie Wilsons War 	2009-02-04 14:38:45
6423797	1081758715	Watching charlie wilsons war and talking to someone amazing is a good mix 	2008-12-28 03:31:53
9002601	855884619	Happy Friday I watched 2 movies last night Charlie Wilsons War and The Savages Both were good in their own right Brief reviews soon	2008-07-11 17:58:35
55716038	806007818	From a twenty point deficit down to four I love bball Watching Charlie Wilsons Wars extras	2008-05-08 01:54:41
47782650	2578623136	Watching charlie wilsons war n Im amazed at the level of dedication pakistans have to their Godin midst of wars stopping to pray	2009-07-11 03:22:32
55992224	2264562018	AlrightSuggestions for journalism movies are coming in nowRunaway Jury ampCharlie Wilsons War by  amp Final Edition by 	2009-06-21 11:15:43
17293745	1057660641	Watching Charlie Wilsons War	2008-12-15 01:26:52
55979398	897087595	And now I go to watch a Netflixed movie Charlie Wilsons War	2008-08-24 05:16:57
4297948	1037732919	watching charlie wilsons war	2008-12-04 06:56:37
55943104	974677203	Oh my goodness Charlie Wilsons War 2007 is fucking fantastic	2008-10-25 05:26:55
860385	560917302	just finished watching a pirated version of Charlie Wilsons War on watchmoviesnet Good times and a great movie	2008-01-04 05:44:52
55955435	1036573539	saw charlie wilsons war last night great story amazing character dev	2008-12-03 17:59:46
55889825	704567152	Off to see Charlie Wilsons War with a rush	2008-02-12 18:25:08
15641229	1030090709	 I loved Charlie Wilsons War and am rewatching it	2008-11-30 01:09:08
55952656	535739232	charlie wilsons war was the best movie i saw this year	2007-12-26 20:01:54
17425837	2312060175	 And SportsNight Studio 60 amp American President The book its based on actually sounds interesting Oh amp Charlie Wilsons War	2009-06-24 15:55:23
32912645	1901399376	 Malice and Charlie Wilsons War	2009-05-24 09:23:13
24856422	1266625924	I am watching Charlie Wilsons War tonight Lets hope its good	2009-03-01 21:07:59
55864191	998622764	Charlie Wilsons War is just as awesome the second time	2008-11-10 11:37:04
7476164	818811720	Back from Arbys time for Charlie Wilsons War	2008-05-24 05:40:37
52156712	1146130778	Cleaning cleaning cleaning and watching dvred movies Charlie Wilsons War good Lady in the Water abysmal	2009-01-25 05:04:20
16246751	927629554	going to watch quotCharlie Wilsons Warquot with my brotherI love this movie	2008-09-19 19:16:07
37333109	1805925380	Watching Charlie Wilsons waron ipod connected to 60 8221 TV in suitetechnology roooles	2009-05-15 13:35:07
33719309	2854497224	Underrated movie of the day Charlie Wilsons War	2009-07-26 15:57:33
54771057	814047881	just watched charlie wilsons war really good flick really really good	2008-05-18 07:17:54
30956199	1297856695	just watched charlie wilsons war  really enjoyed it	2009-03-08 22:23:36
15565263	2720631696	aMmadzRT  A civilian helicopter crashes in southern Afghanistan US militaryRead More  ampltCharlie Wilsons War	2009-07-19 10:46:35
19987731	1031370445	Watching Charlie wilsons war Good flick	2008-11-30 23:44:38
19177038	1938487834	Afghanistan Movie Marathon Kite Runner Charlie Wilsons War Beneath the Veil  Got other suggestions Tweet em StopAfghanWar	2009-05-27 18:32:52
34038062	2022530835	best part of job2 all our convos r made up of lines 4rm movies amp tv showsJust mixed Pretty WomanCharlie Wilsons War amp South Park yes	2009-06-03 23:08:43
9597447	1096305710	is watching Charlie Wilsons War	2009-01-05 02:57:31
24885559	1460887948	Just finished watching Charlie Wilsons War Very good And Tom Hanksthe best	2009-04-06 03:56:40
33706256	1370207282	 Been rereading Pratchett always fun after a break Started quotCharlie Wilsons Warquot All computer stuff after that	2009-03-22 12:44:51
30227289	1827705589	am I the only one who feels like they watchin a home made wedding video when that Charlie Wilson video comes onmad akward	2009-05-17 18:16:28
20922088	1033308968	Watching Charlie wilsons war in he from universal pictures	2008-12-02 00:57:32
55821582	814474809	Took the nephew to see Iron Man for the 2nd time Settling down to do some homework and watch Charlie Wilsons War	2008-05-18 22:51:35
36444059	572468592	Nandos Chickened out excuse the pun of getting the EXTRA HOT tonight Going to see Charlie Wilsons War at 630	2008-01-07 17:29:22
26824439	1698361907	Just saw Charlie Wilsons War Most blatantly facetious thing Ive seen since Scalias hair plugs just kidding AS	2009-05-04 19:00:24
43828637	799004199	Charlie Wilsons War  PT Charlie  Wadpaw Shoot down the helicopters  Well probably more to it but I just wanted to write that	2008-04-28 20:44:31
2616819	1515297273	Yeah well Id like to take a moment to review the several ways in which youre a douche bag  favorite line from Charlie Wilsons War	2009-04-14 07:45:48
55157940	1094849907	Just watched Charlie Wilsons War  Best thing about the movie  38 mins of Philip Seymour Hoffman on screen  Worst  The other 64 mins	2009-01-04 07:33:57
12860075	962660960	Charlie Wilsons War was a goody	2008-10-16 17:49:37
55774167	796139181	Less than 45 minutes to go at work and the boss is just now heading over Love it Be home in time to put Charlie Wilsons War in the mail	2008-04-24 18:24:20
6183364	824312686	watching Charlie Wilsons War	2008-06-01 00:52:14
6480917	834375594	Watching quotCharlie Wilsons Warquot I am parched I think I am going to get some water lol	2008-06-14 02:28:21
19703817	1030512995	While I was writing tonight the family watched scraps of Last Starfighter U571 Planet of the Apes amp Charlie Wilsons War Surreal combo	2008-11-30 09:04:05
6080494	858370874	Just finished watching quotCharlie Wilsons Warquot on iTunes  It was an okay experience Dont think Ill download more unless Im on a plane	2008-07-14 20:47:43
25520832	1187354640	Charlie Wilsons war ranks in as about as interesting as a Keane music video	2009-02-07 22:03:47
55902338	565401452	Charlie Wilsons War	2008-01-05 14:42:04
33474810	1830388426	This is so much scary knowledge Gates greatest fear is extremists garnering nuclear weapons Gates is from cia  wilson wartime	2009-05-17 23:44:05
16093007	974774828	needs to stay n nurse danielle n the bub charlie wilson war 2nite	2008-10-25 08:21:47
1452964	937641711	Just finished Charlie Wilsons War Really miss Aaron Sorkins writing on TV	2008-09-28 00:55:34
54446927	801643696	I highly recommend Charlie Wilsons War	2008-05-02 04:10:02
118014	1932633644	 1 Charlie Wilsons War is the shit  2 I want his life	2009-05-27 04:52:37
49196505	3194432492	I love saturdays Snacks and charlie wilsons war Maybe a john hughes marathon later	2009-08-08 16:08:57
39025741	1591133502	Movie Review Questions  Is the movie Charlie Wilsons War accurate   	2009-04-23 03:26:41
52322184	533193592	watching Charlie Wilsons War with the family	2007-12-25 23:01:44
55040283	1095468740	Charlie Wilsons War  16011740160416051740 16051578160815871591 15761575 1576157515861740 15761587174015751585 1586174015761575 15751586 15831608 15871578157515851607 1576158615851711	2009-01-04 18:05:08
55728683	996333988	Its been a while I havent watched any DVDs Today I Watched Charlie Wilsons War A bit heavy for me But I liked it	2008-11-08 14:11:10
33013009	2167750965	Charlie Wilsons War is actually a good movie if you can get past having to see Tom Hanks naked ass	2009-06-14 18:46:25
21480456	1098883995	watching Charlie Wilsons War   nobody warned me that Tom Hanks has a nude scene ughhhh	2009-01-06 05:25:24
55995481	775378416	Yesterday I watched Charlie Wilson War Jogos do Poder	2008-03-22 12:47:47
55953523	1035566428	Watching Charlie Wilsons War on HBO	2008-12-03 04:25:52
8347632	884783976	 you should watch the movie Charlie Wilsons War	2008-08-12 02:25:33
6444485	1122682294	Watching Charlie Wilsons War Movie 1 in the third straight movie night	2009-01-16 02:20:44
22432857	1068260376	hatin his stuffy face and about to watch Charlie Wilsons War	2008-12-20 01:24:10
2422756	1153673767	watching Charlie Wilsons War on Boxee check it out at 	2009-01-27 23:46:36
30485391	1086377986	watching Charlie Wilsons War on Boxee check it out at 	2008-12-30 18:48:33
23223018	2398552909	Was trying to watch Charlie Wilsons Warbut I havent paid no attention to it since its been onSMH	2009-06-30 03:47:24
55760391	577435002	I really want chicken mole from Three Crazies in Muskego and to see Charlie Wilsons War at Ridge	2008-01-08 23:13:44
4970887	1082473374	 I liked Charlie Wilsons War as well Putting that on my quotownquot list	2008-12-28 16:56:16
19150598	3308988633	My review of CHARLIE WILSONS WAR and how US involvement in Afghanistan started a war that keeps on taking 	2009-08-14 15:09:11
5569154	828916155	 Charlie wilsons war is very good	2008-06-07 06:07:30
36149101	1657262273	Charlie Wilsons war is a great movie Bombs suck I love my life even the bad days	2009-04-30 07:50:48
9189329	925835835	Loved Charlie Wilsons War last nightmay read the book now  great script that crackled thx its on my recommend list	2008-09-18 12:42:19
55997509	527879562	Going to see charlie wilsons war	2007-12-24 01:33:16
18692864	1331425389	ampltamplt Charlie Wilsons War ampltamplt	2009-03-15 14:15:56
11341791	850745044	Charlie Wilsons Warshockingly didnt trash ReaganBush 41	2008-07-05 15:24:55
55830567	527985022	Celebrating 2nd anniversary of proposing to Cathleen  Went to Charlie Wilsons War and Lennies	2007-12-24 02:25:11
3726133	961615355	Watching charlie wilsons war and drinking Thrusty thursday what can I say	2008-10-16 01:45:26
5342316	1008607461	Watching Charlie Wilsons War reading a trashy woman book and eating mint mampms  I could get used to this	2008-11-16 20:39:54
1219911	547468542	I am at the theater watching Charlie Wilsons War finally	2007-12-30 21:45:04
7899951	885480962	Building social network presence and watching CHarlie WIlsons War	2008-08-12 18:31:41
5156138	829711799	How was Charlie Wilsons War  Worth a looksee	2008-06-08 12:00:58
7126124	885879007	just finished watching Charlie Wilsons War with Tom Hanks	2008-08-13 02:42:10
42092824	537853142	Charlie Wilsons war was pretty good but Id expected more songs by the Gap Band	2007-12-27 13:07:24
53476936	781295416	just watched Charlie Wilsons War Unpleasent characters doing good deads	2008-04-02 06:00:08
9023204	2869766718	Wish I could go RT  Anita Baker and Charlie Wilson free concert tonight at Brooklyns Wingate Field 	2009-07-27 12:56:48
6895524	835724843	Enjoying the movie Charlie Wilsons War wTom Hanks and Julia Roberts  Been a Great Day	2008-06-16 05:04:23
11647717	855287453	In the midst of a PSH week  Another great performance in The Savages  Next up in the queue Charlie Wilsons War	2008-07-11 03:41:41
11774854	2931789389	Charlie Wilsons War 2007 free download  	2009-07-30 15:24:48
55685090	783927596	Eating pancakes and watching Charlie Wilsons War  As you can tell I enjoy combining food with films	2008-04-06 17:23:49
4242	1112053829	fuming and watching charlie wilsons war	2009-01-12 01:25:35
8133873	948927245	Watching Charlie Wilsons War  pretty good	2008-10-06 23:24:47
29705330	1240118324	Charlie Wilsons Wars was good	2009-02-23 07:19:30
25718347	1370656035	Charlie Wilsons war not my kind of film lets see what else is on	2009-03-22 15:18:08
168839	535353172	BTW Charlie Wilsons War was a fantastic movie I would have voted for Wilson	2007-12-26 17:06:45
17436851	1546237364	 you would get the Charlie Wilsons War Tshirt for pulling that maneuver	2009-04-17 22:30:10
52991336	853121137	Watching Charlie Wilsons War so I can take it and my other DVDs back to Redbox Watching by myself because s working late	2008-07-08 20:19:22
25539690	1148348334	Watching Charlie Wilsons War	2009-01-26 05:17:28
26897506	1372488271	Charlie wilsons war was a good film but changling was much betterstill gotta love tom hanks	2009-03-22 22:43:34
53487875	914563753	Charlie Wilsons War	2008-09-09 01:53:12
21074556	1314483850	Movie marathon On to Charlie Wilsons War wwwroughlanguagecom	2009-03-12 04:12:13
529365	974502688	just finished watching the movie Charlie Wilsons War I thought it was terrific at face value Im sure the true story was more complicated	2008-10-25 01:54:22
55863297	556192992	and staying along the same theme  has everyone seen Charlie Wilsons War yet Highly recommend if you like politics and war and reality	2008-01-02 20:54:29
16668292	1097133480	Viendo Charlie Wilsons War confirmo una vez m225s que todos somos villanos alguna vez Y adem225s que todas las cosas tienen siempre doble faz	2009-01-05 14:13:47
11288888	843791417	watching Charlie Wilsons War will probably only last an hour through the movie Good night	2008-06-26 02:07:35
33841013	1404331466	Watching Charlie Wilsons War I am so so tired  Installed Twitterberry but cant see anything other than my updates  hints	2009-03-28 00:01:10
46354446	2156186888	lmaaao  quotur dignifying her in the assquot Phillip Seymour Hoffman quotCharlie Wilsons Warquot	2009-06-13 18:22:28
9374518	1188024550	Just finished watching Charlie Wilsons War with my dad A real eye opener watch it its based on facts Really good movie	2009-02-08 03:41:47
55795740	795335695	Just received Charlie Wilsons War via Netflix	2008-04-23 18:43:48
41280278	1619753963	Im sitting watching Charlie Wilsons War	2009-04-26 10:37:58
11668411	2390703569	and we fampltamp3d up the endgame  Charlie Wilson From the movie Charlie Wilsons War 2007  Based on a true story	2009-06-29 17:51:53
33041635	2606111129	Cant sleep clown will eat me Going to watch quotCharlie Wilsons Warquot	2009-07-13 00:31:15
8584242	992693999	watching Charlie Wilsons War with Miss 	2008-11-06 02:35:03
55999050	1699452253	Remember  This is Charlie Wilson War film performed by Tom Hanks  9835 	2009-05-04 21:02:12
6183364	824408799	Charlie Wilsons War was so relevant for a movie about the 80s Tom Hanks reallly knows how to pick projects	2008-06-01 04:40:33
55794586	1054797532	Just watched Charlie Wilsons War Highly recommended for many reasons	2008-12-13 04:25:04
7248676	1175306596	At home finishing quotCharlie Wilsons Warquot then going to bed  Busy day tomorrow work school then a RustProof video shoot  Should be fun	2009-02-04 04:23:15
27536485	568850842	last night Charlie Wilsons War this morning NYT New covert US push in Pakistan Weird	2008-01-06 17:38:08
3204471	2562221458	Just watched Charlie Wilsons War	2009-07-10 03:32:40
5899087	998302597	 I watched Charlie Wilsons War a few weeks ago and was similarly wowed Very educational One person can do so much	2008-11-10 04:20:05
40137902	2330992938	RT  RT  Ohio dem Charlie Wilson is leaning toward no Burn up the phones2022255705	2009-06-25 19:39:52
32626700	2775486848	 No Prob I Love Watching Docudramas Myself Have You Seen Charlie Wilsons War I Thought It Was Very Interesting	2009-07-22 09:53:20
5440	2260721946	Enjoyed quotCharlie Wilsons Warquot Hanks Roberts  History repeats itself I guess On world peace and single malt scotch	2009-06-21 02:40:19
42161224	1671740231	Just watched quotCharlie Wilsons Warquotmmmhhhinteresting movieshould have gotten more attention than it did	2009-05-01 18:50:19
30051038	917079479	watching Charlie Wilsons War amp remembering my declaration of Tom Hanksicide hes better when bad  	2008-09-11 00:33:31
1830875	1078907732	 re Charlie Wilsons War the movie was good but the book was MUCH better	2008-12-26 05:03:38
281243	3278982055	I dont know why I love Charlie Wilsons War so much Its an awesome movie	2009-08-13 03:09:01
11060964	848156317	So Charlie Wilsons War is probably one of my favorite movies now He was such an incredible man	2008-07-02 03:56:44
46026642	522573062	going to 435 of charlie wilsons war at arclight	2007-12-21 23:17:46
28326374	1436363790	 Im about to watch Charlie Wilsons War its a pretty good movie	2009-04-02 04:08:18
38927967	2034708232	Watching Charlie Wilsons War and not comfortable with Tom Hanks cursing Hes still Forrest Gump 2 me Stop it TOM	2009-06-04 21:26:21
29001474	2212976277	just watched charlie wilsonss war quite gd	2009-06-17 21:46:35
55843341	532917482	just saw charlie wilsons war Outstanding	2007-12-25 20:17:21
7731203	896520888	Anyone see the movie 21 Charlie Wilsons War The Spiderwick Chronicles Any suggestions	2008-08-23 14:29:26
26676443	3434193216	Charlie Wilsons War is wonderfully Aaron Sorkin	2009-08-20 19:59:53
3133045	816869048	Has anyone seen the movie  Charlie Wilsons War  If so good bad just soso Thinking of renting it one day soon	2008-05-21 19:37:11
157020	812920940	Watched Charlie Wilsons War last night  Excellent movie and funny as hell	2008-05-16 16:54:01
39025741	1536074917	Movie Review Questions  What movie should I see today  Juno or Charlie Wilsons War   	2009-04-16 19:29:49
55868145	648189282	 of course I am a movie junkie Saw Charlie Wilsons War and loved it The writing crisp amp Hanks actually made me believe for a change	2008-01-27 21:28:50
7047296	1314124673	just watched charlie wilsons war very good flick	2009-03-12 02:39:16
39865330	2606873591	Watched Charlie Wilsons War onDVR Verywell writtn screenply top actng by Hanks Phillip SH Not gungho on hist fictn but this was good	2009-07-13 01:31:24
38661782	533141752	waiting for charlie wilsons war to start  Fresh popcorn  Life is good	2007-12-25 22:32:35
3479445	531238502	charlie wilsons war decent direction fantastic script  damn that sorkin is good	2007-12-25 04:50:58
46134488	3345235592	I want to read Charlie Wilsons War by George Crile  	2009-08-16 15:23:24
32536665	2259022725	Itinerary from now till sleeptimez Rest stomach and watch Charlie Wilsons War two Phillip Seymour Hoffman in one day Oo read SLEEP	2009-06-20 23:53:25
23260381	1504724049	thinks Charlie Wilsons War is awesome  Pimp Slap	2009-04-12 20:07:50
18983690	2631718901	watched Charlie Wilsons war last night  Id like to take a moment to discuss the several ways in which youre a DOUCHEBAG	2009-07-14 13:05:02
53464972	536834212	Im thinking that being a congressman cant be all badwatching charlie wilsons  war	2007-12-27 04:38:48
13138081	1257178759	Just got done watching Charlie Wilsons War that was really goodof course we dropped that ball after we helped get rid of the Soviets	2009-02-27 06:50:53
135577	470273412	back from Charlie Wilsons War a movie that could be great but is only entertaining the wrong achievement given the topic	2007-12-05 01:35:31
1775534	813978105	Finally watching Charlie Wilsons Warglad I watched the history channel special first	2008-05-18 04:10:40
6603965	863740393	Watching Charlie Wilsons War	2008-07-20 23:51:10
55742258	1081301083	Turned off Charlie Wilsons War because it was boring Looking for something better to watch	2008-12-27 21:06:37
1621893	872118004	Just finished watching Charlie Wilsons War Great movie	2008-07-30 00:57:55
10667169	839935386	 Brendans watching Charlie Wilsons War	2008-06-21 00:34:41
9834603	1054863588	Just watched Charlie Wilsons War  Decided I dont drink nearly enough scotch	2008-12-13 05:24:07
13728564	893994644	watching charlie wilsons wartom hanks and philip seymour hoffman both in the same movie makes for a good movie	2008-08-21 03:21:51
55937427	1184912494	Oh yeah and Im watching Charlie Wilsons Warso far pretty good	2009-02-06 23:39:40
49585185	834226121	 I think that might be Dr Strangelove Maybe Charlie Wilsons War Ive probably not seen that movie	2008-06-13 21:46:54
34067037	3280543881	watching charlie wilsons war	2009-08-13 04:44:04
43069635	1823429388	ever seen Charlie Wilsons war its boner inducing	2009-05-17 04:57:02
9770268	1083464097	Charlie Wilsons War doesnt stop being entertaining Hanks and Hoffman are standouts brilliant characterization and fast witty dialogue	2008-12-29 05:23:20
26292119	2390380804	 parallels with IranWatch Charlie Wilsons War amp ask parallels between end of USSR from Afghan involvement amp US 1Bad economy	2009-06-29 17:28:13
1203432	860464081	Going to watch Charlie Wilsons War tonight Is it any good	2008-07-17 00:56:55
55674093	1018893217	not enjoying charlie wilsons war so much but phillip seymour hoffman is HILARIOUS	2008-11-23 02:17:44
5605049	829617050	Just got home from seeing Kung Fu Panda and watching Meet the Spartans absolute shit and Charlie Wilsons War	2008-06-08 07:19:42
34941736	1819805804	Watching quotcharlie wilsons warquot enjoying how they say nacogdoches all French like	2009-05-16 20:49:38
14083188	3172770745	Beauty amp diplomacy charm amp compassion 4 refugee Joanne Herring Charlie Wilson Avrakotos trio won Afghan war wwwtinyurlcomlqaqag	2009-08-07 02:15:17
55662929	842935385	Charlie Wilsons War the movie isnt as good as the book  Its not bad though	2008-06-25 02:43:55
36289201	1570555239	Saw 3 movies Walk Hard The Dewey Cox Story B Charlie Wilsons War B Transformers B	2009-04-21 00:30:37
55785221	852033532	 Yup  Charlie Wilsons War  Thats what I get for tweeting early in the morning  UGH	2008-07-07 14:53:48
7137460	1030275710	Watching Charlie Wilsons War Pretty cool Taking a break and back to the grind on Sunday night	2008-11-30 04:05:23
42831961	2446800422	i really want to see public enemies but the last movies i saw in a theatre were ratatouille however you spell it and charlie wilsons war	2009-07-03 01:29:47
3582499	814586000	 let me know how you like Charlie Wilsons War I have it from Netflix not watched yet	2008-05-19 02:30:33
8300732	813095674	watching Charlie Wilsons War	2008-05-16 20:57:21
53090737	706968482	Saw Charlie Wilsons War tonight and its pretty good I have a thing for Sorkin	2008-02-13 10:39:29
33769572	2571267715	OK so going to watch Charlie Wilsons War from Netflix this should be interesting Later Tweeps	2009-07-10 17:51:08
49460096	3129423478	Charlie Wilsons War 2007 In the early 1980s Charlie Wilson is a womanizing US congressional repr  View Free	2009-08-04 18:49:10
1616581	832301384	finished charlie wilsons war the book version 18 plus hours Is the missing ch of modern history	2008-06-11 16:33:06
3089347	1485975723	Watching quotthe real charlie wilsons warquot documentary Pretty good	2009-04-09 20:50:20
56013079	2491106891	off to finish watching Charlie Wilsons War	2009-07-06 02:47:14
24564628	1264406804	is making a root beer float and debating whether he should watch The Bank Job or Charlie Wilsons War Recommendations	2009-03-01 04:11:35
13340785	1030078663	Nonsarcastic request to West Wing fans is Sorkins Charlie Wilsons War any good I loved West Wing but did not love Studio 60 on Sunset	2008-11-30 00:57:59
2164915	902871731	 die ersten 10 folgen oder so waren weltklasse danach gings bisschen runter aber schau mal sports night und charlie wilsons war	2008-08-29 13:28:58
14974220	3414029476	I want Phillip Seymour Hoffmans character from quotCharlie Wilsons Warquot on my side in any argument	2009-08-19 21:57:32
29993809	1267830751	Finally watched Charlie Wilsons War Its a pretty good movie	2009-03-02 03:30:26
55730732	834396633	Renting quotCharlie Wilsons Warquot from iTunes and seriously considering an upgrade to Shaws ExtremeI service	2008-06-14 03:11:24
42501517	1699626379	 charlie wilsons war ampgt savvy savs war	2009-05-04 21:21:50
21044165	2363916311	Sooooyeplooking forward to the quotCharlie Wilson Showquot tonight Will you be there	2009-06-27 21:46:21
26662556	1545677661	Have to choose to free up Sky box space Jumper No Country for Old Men Charlie Wilsons War There will be blood  which to watch	2009-04-17 21:16:31
56024274	550901412	Seeing Charlie Wilsons War	2008-01-01 00:20:31
137219	525393412	off to see the savageslast night was charlie wilsons war he was my Congressmanalso shared a dc cab whim and his current wife	2007-12-23 02:19:16
29983424	547484932	charlie wilsons war is excellent	2007-12-30 21:53:13
9605448	1817924384	What was the last good Tom Hanks movie youve seen or me it was the Terminal although I didnt see Charlie Wilsons War	2009-05-16 17:09:14
52994241	819312779	Watching Charlie Wilsons War Skipping around from the book but it still seems good	2008-05-25 02:20:55
42705156	3068608058	today mum and i watched duplicity max payne and charlie wilsons war we tried to watched before the devil knows youre dead but got	2009-08-01 10:58:24
55977160	541111752	 Giz  Charlie Wilsons War is an awesome flick isnt it Im still up for Atonement  tonight amp tomorrow would work for me	2007-12-28 13:26:04
24246111	1368219506	Watching Charlie Wilsons War  For the first time  Believe it or not	2009-03-22 00:11:48
20405492	1547590221	About to watch Charlie Wilsons War and snack on some homemade Nestle Tollhouse cookies  hot from the oven	2009-04-18 01:47:24
1118450	938550720	Using Time Warner VOD to watch Charlie Wilsons War	2008-09-28 23:14:06
32868976	1554566042	 Watchin Charlie Wilsons War dvd  Facinatin   Ahaay	2009-04-19 00:20:49
16224730	1319809385	watching Charlie Wilsons War Aaron Sorkin could have done a better job on the screenplay	2009-03-13 02:46:10
50429805	540174972	Im back from seeing Charlie Wilsons War  I highly recommend this movie 	2007-12-28 05:33:58
14012723	1042885588	Best line from Charlie Wilsons War These things happened amp then we fed up the end game We funded war but not rebuilding efforts	2008-12-07 02:50:17
5238	1978199961	I rated Charlie Wilsons War 3 out of 5 amp9654 	2009-05-31 05:41:42
22125730	1622603766	 isnt it charlie wilsons war	2009-04-26 19:28:55
12323264	858650153	just watched Charlie Wilsons War  cracklin dialogue	2008-07-15 03:44:58
9597352	927981739	Getting ready to watch Charlie Wilsons War on DVD	2008-09-20 01:41:23
7081036	872437581	cine charlie wilsons war 2007 mike nichols 12	2008-07-30 10:16:48
11887395	1451221210	Watching Charlie Wilsons War films	2009-04-04 12:32:45
6393260	898906636	Laughing my a off at Charlie Wilsons War Great flick regardless	2008-08-26 02:50:52
28181046	3332147547	 Charlie Wilson War is a load of old wank Never have I seen such dull talky exposition Avoid	2009-08-15 19:02:32
14585910	1729046818	Going to see director mike Nichols the graduate Charlie Wilsons war at 2 at hks Buzz me if you want to come	2009-05-07 17:26:24
15188096	1676757975	I just saw Charlie Wilsons war at MOMA Its an amazing film It got me so interested that Im watching some war footage of it right now	2009-05-02 06:05:29
48167693	1010902618	hello tworld Im still finishing Charlie Wilsons War I got kicked out of the tv room	2008-11-18 06:57:05
5765830	2919611054	Watching Charlie wilsons war from netflix Is it any good	2009-07-29 23:53:47
29791258	1290906596	Putins rented Charlie Wilsons War Dont you think hes the kind of guy that sits at home and thinks Its payback time	2009-03-07 00:23:41
53460599	3122523654	Charlie Wilsons War winning performance by Hanks but cant say I agree with the politics Also Julia Roberts sucked the life out of it	2009-08-04 11:05:20
35634909	1506345388	Last one of night promise fire right now charlie wilsons war learn something children of christ my god This is it	2009-04-13 01:26:57
55951445	608719642	Enjoyed Charlie Wilsons War last night very grumpy at Windows 2000 this morning	2008-01-17 09:15:44
1680414	566671862	Charlie wilsons war	2008-01-06 00:02:52
55676264	803323660	Watching Charlie Wilsons War	2008-05-04 18:05:45
51936244	862525532	Watching quotCharlie Wilsons Warquot which it turns out is Republican propaganda Ok youre right I shouldve known	2008-07-19 05:47:22
5430571	1415032214	 You should have Aaron Sorkin on the show A Few Good Men is terrific West Wing Sports Night Charlie Wilsons War Come on	2009-03-30 00:52:01
5387	2192807884	Met and interviewed Joanne King Herring  Charlie Wilsons War fame  love her  Want to be just like her when I grow up	2009-06-16 14:34:44
2580	545421502	saw Charlie Wilsons War Nice lil flick Now drinking some wine	2007-12-30 03:48:30
15728698	2223090275	nicerfilmtitles Charlie Wilsons Wardrobe	2009-06-18 14:50:17
9528363	974514297	just watched Charlie Wilsons War with Shelby Already tired enough from the week to go to bed soonbefore 10 pm on a friday oh well	2008-10-25 02:06:39
34378984	1933946302	best scene of charlie wilsons war is onthe gypsy girl dancingyummmmmmzeeeeee	2009-05-27 08:33:23
8608419	844042073	Watching Charlie Wilsons war with a cup of tea and a bikkie  the simple pleasures	2008-06-26 10:54:53
14963856	1056486575	they finally fixed my IMDB credit      Im no longer listed as Party Guest in Charlie Wilsons War 	2008-12-14 06:56:51
8048249	798518537	Winding up the big day I watched CHARLIE WILSONS WAR JUNO and GOD IS GREAT AND IM NOT today JUNO tops CHUCK next GOD is soso	2008-04-28 07:06:30
1776562	921526334	PS I Love You is a WONDERFUL movie  So glad I picked it over Charlie Wilsons War	2008-09-15 00:39:04
55994409	860814712	Watching charlie wilsons war	2008-07-17 12:25:07
29175181	808408048	Charlie Wilsons War playing in my hotel room  Hot	2008-05-11 03:49:28
33042120	3071764094	Just bought some DVDs Saving private ryan Reqium for a dream Charlie wilsons war and Pulp fiction All for 16320 Not too shabby	2009-08-01 16:13:18
19366780	1432558452	Watching Charlie Wilsons war I love this movie Call me crazy but I think its hilarious	2009-04-01 17:02:35
19134495	1512479068	He visto una pel237cula muy interesanteCharlie Wilsons War director Mike Nichols gui243n Aaron Sorkin  	2009-04-13 23:00:36
55990473	1055838628	quotwhy is congress saying one thing and doing nothingquot quottradition mostlyquot LOVE charlie wilsons war	2008-12-13 21:34:28
11648562	1035656377	Watching Charlie Wilsons War on my couch	2008-12-03 05:40:41
9192340	901493558	Aaron Sorkin who wrote The West Wing and Charlie Wilsons War now working on a film about Facebook 	2008-08-28 09:57:39
38909077	2170491037	just watched Charlie Wilsons war great movie	2009-06-14 23:15:57
21675457	1064400587	half watching charlie wilsons war but got sucked in by philip seymour hoffmans rant at his boss  holy shit hes good	2008-12-18 05:44:59
14680313	1067466959	first nominations for a WAKI Award 08Movie  Batman  Dark Knight 007 Quantum of Solace Semi Pro Iron Man Wanted Charlie Wilsons War	2008-12-19 17:31:20
13056345	897510918	Watching Charlie Wilsons War	2008-08-24 19:00:45
22801595	1108368268	261443001165306Charlie Wilsons War122883525132066124311238712383122902484722806123921242412363123871238312290	2009-01-10 03:28:35
17301293	943061187	baixei esses dias Charlie Wilsons War e deixei pra ver ontem a noite Eu n227o sei se pesquei em um dado momento mas odiei o final	2008-10-02 09:34:25
42912703	598540212	Im not there B migraine pr233tentieux Charlie wilson war B bien 233crit mais bizarre I am Legend C mieux que pr233vu	2008-01-14 18:30:12
7166918	795540843	Just woke up from a crappy nap that I took while watching Charlie Wilsons War and now goin to the climbing gym oh and Im already sore	2008-04-24 00:14:24
44512491	592339672	just finished watching Charlie Wilsons War Great movie and oh so relevant for the USs current foreign policy	2008-01-12 22:30:04
55952285	821369903	Just watched Charlie Wilsons War fantastic movie Aaron Sorkin is a great writer	2008-05-28 02:05:07
6922938	853310524	about to watch Charlie Wilsons War	2008-07-09 01:15:00
56025053	775498867	Taking a dollar theater break must pick from National Treasure Rambo I am legend Cloverfield and Charlie Wilsons War hmm	2008-03-22 18:51:26
16752234	1128060399	thinks that everyone should see Charlie Wilsons War starring Tom Hanks	2009-01-18 12:25:30
20437298	892883662	Charlie Wilsons War is excellent I only wish I drank as much as he does	2008-08-20 03:47:06
1432685	881116030	Since I did not get my Teevee today from storage to play SCIV I am watching ampltCharlie Wilsons War ampgt How did I wait so long to se 	2008-08-08 03:41:23
28126341	1467770048	Watching the Charlie Wilsons War on TV	2009-04-07 05:09:36
6598822	842978299	watching Charlie Wilsons war	2008-06-25 03:56:13
45565376	3075020165	poop missed the beginning of Charlie Wilsons War 	2009-08-01 20:10:07
20428669	2561511353	Watching Charlie Wilsons War while the internet is out  its comcastic	2009-07-10 02:42:05
5646248	873279365	Charlie Wilsons War is a really good true story  movie	2008-07-31 03:45:33
32841782	535818122	holiday movie outing charlie Wilsons war Where are the razor blades My wrists are itchy	2007-12-26 20:41:10
50175637	2487787715	Saw Charlie Wilsons War tonight not a bad film slow start but draws you in	2009-07-05 22:06:23
19738000	2365914479	 Charlie Wilsons War was pretty good if that helps	2009-06-28 01:04:32
20548419	1929407974	looky looky nbelloni loves quotCharlie Wilsons Warquot 	2009-05-26 23:30:02
37428072	3386644198	 u must love charlie wilsons adlibzlmao	2009-08-18 17:36:00
34615945	3127298351	Charlie Wilsons War Movie Charlie Wilsons War Movie photos are available 	2009-08-04 16:47:55
49331312	837210431	charlie wilson8217s war guter film	2008-06-17 21:06:13
10827062	847366402	Flight movies Charlie Wilsons War  Kite Runner  Taliban overload	2008-07-01 03:42:11
22153763	1454138417	Why come no one told me how good Charlie Wilsons War was	2009-04-04 23:34:04
9406830	1263916043	finally got around to watching Charlie Wilsons War pretty decent flick	2009-03-01 01:05:09
3821	1015068360	Charlie Wilsons War DVD 	2008-11-20 17:48:27
1619468	567008912	Went to see Charlie Wilsons War Very good Now just chilling at home watching Hannah Montana for my first time ever Oh Miley	2008-01-06 02:40:09
26479181	1333275646	Watching Charlie Wilsons War again Great movie	2009-03-15 22:08:41
55683253	840772016	watching charlie wilsons war  incredible	2008-06-22 07:20:31
27263196	834358795	dinner at Indio on Lake St was really good Thinking about watching Charlie Wilsons War	2008-06-14 01:53:56
27183732	1187341077	I am about to watch Charlie Wilsons War but dont actually know if it is supposed to be any good lol	2009-02-07 21:57:50
53138541	1081936772	NEW Charlie Wilsons War Widescreen Tom Hanks Julia Roberts Philip Seymour Hoffman Amy Adams Ned Beatty 	2008-12-28 06:07:26
5059	1752417790	Watching Charlie Wilsons War with the family	2009-05-10 04:52:07
31008144	829490357	Watching Charlie Wilsons War in HD on my VUDU I love technology	2008-06-08 02:09:23
991732	861920820	 tried watching Charlie Wilsons War last night maybe I was too tired may give it another shot seems 2B interesting story	2008-07-18 15:12:27
5187241	798466613	Watched Charlie Wilsons War tonight Good movie  interesting because its based upon actual events	2008-04-28 04:59:27
34688491	1619091693	Watching Charlie Wilsons WarWow I must be bored 	2009-04-26 07:04:55
55353726	869423851	Watching Charlie Wilsons War with my wife my brother and my sisterinlaw	2008-07-27 02:11:53
55866535	797300209	just finished watching Charlie Wilsons War Aaron Sorkin is a great storyteller	2008-04-26 06:25:59
10694395	853376286	Just saw Charlie Wilsons War  Hollywood star power at its best	2008-07-09 02:58:30
7731203	896525267	Looks like Charlie Wilsons War it shall be Its morning movie time	2008-08-23 14:35:56
3205339	1243294416	 I dont know Just looked it up though Fireflies in the Garden never heard of it and Charlie Wilsons War never saw it	2009-02-24 02:17:43
21711015	1515808808	Now I do like that lady in Charlie Wilsons war where ou est she	2009-04-14 10:35:28
40287188	2641838256	Movie of the Night is  Charlie WIlsons War  	2009-07-15 00:12:51
16393578	976943197	just watched quotcharlie Wilsons Warquot  Enlightening  It frightens me that I know so little about so much	2008-10-27 04:09:46
16068002	2744386302	Caught up on a couple oldish movie Charlie Wilsons War isnt bad	2009-07-20 19:56:06
34527006	2470556873	Am trying to decide between Hancock and Charlie Wilsons War Thoughts	2009-07-04 15:59:15
14804575	916367551	watching Charlie Wilsons War and drinking cheap but good wine Only 49 hours	2008-09-10 13:25:58
2354473	877572066	Watched Charlie Wilsons War last night  It was surprisingly good	2008-08-04 20:33:31
55844969	892810770	OMG I am glad I bought Charlie Wilsons War tonight It is pretty damn good	2008-08-20 02:14:52
2777	652919762	Movies Ive seen in the last two weeks Cloverfield Jane Austen Book Club Charlie Wilsons War and tonight Im seeing Sweeney Todd	2008-01-29 00:46:12
1723937	1188267484	Charlie Wilsons War  3 out of 5 stars  Funny what youll watch when the cable goes down	2009-02-08 06:15:04
37716228	1509179628	 Somebody was watching Charlie Wilsons War on HBO last night	2009-04-13 14:00:39
5217093	798467961	Just finished watching Charlie Wilsons War  great movie  might have to watch it again	2008-04-28 05:02:27
48139886	2527012030	Reading about this Afghanistan Films   The Kite Runner Charlie Wilsons War etc	2009-07-08 03:59:29
24046410	1499088994	watchin charlie wilsons war wow	2009-04-11 21:03:11
5646335	833418503	watching charlie wilsons war with my dad	2008-06-12 23:20:36
3133045	835593885	eau Just got done watching 27 Dressesloved itgonna buy it Taking a 15 min break then gonna watch Charlie Wilsons War 	2008-06-16 00:46:07
951444	525364052	Charlie Wilsons War was pretty awesome My friend was an extra in it Thats right we roll like a Hollywood posse	2007-12-23 02:01:33
35947049	3091967449	watching Charlie Wilsons War w tom hanks in itagain Great movie	2009-08-02 20:52:38
2403541	863776810	About to watch Charlie Wilsons War with my darling wife Nice thing about Comcast free movies is you can stop watching at any time	2008-07-21 00:59:37
45447241	536679062	Watching Charlie Wilsons war	2007-12-27 03:26:33
34378984	1933903222	 more of what charlie wilsons war tom hanks the wrestler	2009-05-27 08:24:23
55760391	816141928	is watching Charlie Wilsons War on the sweet ass TV	2008-05-21 00:09:35
21873471	1056597115	Watching Charlie Wilsons War on HBO and trying to decide where to take my dog tomorrow	2008-12-14 09:28:50
9647483	986666748	Its a good comedyCharlie Wilsons War is a good movie as well	2008-11-02 19:43:16
19575390	1003793308	Finished a hard day of finishing up another project draft  Im now winding down by watching Charlie Wilsons War with Tom Hanks	2008-11-13 13:41:26
17174475	1264602705	at home watching charlie wilsons war	2009-03-01 05:35:42
56029166	564404042	just saw Charlie Wilsons War at the Majestic Bay theater Its a pretty good movie	2008-01-05 05:39:51
55812181	581573752	Watching Charlie Wilsons War Great trailers before the movie StopLoss	2008-01-10 00:08:12
20266275	1599521795	Watching Charlie Wilsons War	2009-04-24 01:05:32
19264522	1298366833	Watching Charlie Wilsons War with my sweet	2009-03-09 00:58:14
55868261	807729967	Charlie Wilsons War then Half Life 2 then GTA IV till I puke	2008-05-10 02:46:02
41568396	2005630530	tronics The Most Recent Movie You Watched 110 Scale Gallery of Suicide Charlie Wilsonamp39s War  1010 l 	2009-06-02 16:58:26
28980820	2101543333	Watched Charlie Wilsons War yesterday Love Aaron Sorkins stuff Really want to watch The Terminal with Tom Hanks again  love it	2009-06-10 09:49:23
41063186	2296987403	I have an afternoon appointment with one charlie wilson and his war Enjoying my day off	2009-06-23 16:53:13
30687310	2447225064	Just finished watching OnDemand movie Charlie Wilsons War Good ish	2009-07-03 02:01:58
437409	852554540	Watching Charlie Wilsons War	2008-07-08 04:27:54
24466106	1506798495	Just got finished watching  charlie Wilsons war Pretty good movie if youre a politics head	2009-04-13 02:52:31
26373042	3183459152	Just watched Charlie Wilsons War brilliant film Aaaron Sorkin can do no wrong It really makes you think about the quality of people	2009-08-07 21:06:11
27514859	1265020550	started to watch Charlie Wilsons War kids got bored so we stopped it they watched Ant n Decs Takeaway  we read the paper	2009-03-01 09:50:37
48923955	2327435553	As a former spy in the sky for the US there is probably more going on than people know Watch Charlie Wilsons War	2009-06-25 15:20:37
55744101	1177873702	Family Video Used DVD Sale From 3  Free Shipping Charlie Wilsons War 	2009-02-04 22:46:09
55579893	1850954842	 I thought exactly same thing when I read Charlie Wilsons War Read cos while I love film it hasnt got same impact  endgame	2009-05-19 20:02:06
7454237	797725903	Got Charlie Wilsons War and Starting Out in the Evening Reviews	2008-04-26 23:30:33
55991193	598339322	Saw some good movies this month Juno Charlie Wilsons War and Atonement Highly recommend Juno	2008-01-14 17:29:58
38908160	2243894989	 You need a Congressman like Tom Hanks in Charlie Wilsons War write Tom Hanks to run in your state	2009-06-19 21:02:19
8568033	2042441017	Happened to catchup with movie Charlie Wilsons War on HBO  Tom Hanks  Julia Roberts Afghan backdrop	2009-06-05 13:14:41
55833294	623108862	 Charlie Wilsons War Hoffman steals it Great all round Deals well with complexity 810	2008-01-21 09:14:07
30601026	2943171187	charlie wilsons war and passin out	2009-07-31 02:20:16
1824656	1181309904	 Can you tweet if you like Charlie Wilsons war  I read the book but havent seen the movie yet	2009-02-05 22:36:22
13587152	1038301791	Charlie Wilsons War  Interesting but not dramatic Theres never any doubt that hell succeed Good performances MATINEE	2008-12-04 15:26:15
13895102	920415153	Waking up after trying to watch Charlie Wilsons War dullsville and too many fake southern accents ick	2008-09-13 20:35:28
4876407	809958416	Finished watching Charlie Wilsons War  Interesting as a prelude to our current situation  Also Julia looks awful in a blonde wig	2008-05-13 06:05:34
17033354	937727006	Watching Charlie Wilsons War on demand Its pretty good	2008-09-28 02:46:49
22908774	1148115969	watching Charlie Wilsons War	2009-01-26 03:05:40
30637502	2021260310	Just watched Charlie Wilsons War  Rather good though I remember reviews being sniffy at the time it came out  And now to bed I think	2009-06-03 21:10:03
7546533	2194160619	Watching Charlie Wilsons War Stellar performances from Tom Hanks amp Philip Seymour Hoffman Julia Roberts is totally underutilised	2009-06-16 16:25:29
16238034	1775481119	 Do you still want Charlie Wilsons War Im getting it in the mail today	2009-05-12 17:37:09
13344599	2832077247	Charlie Wilsons War was great Bedtime	2009-07-25 04:02:12
53168816	817311025	Watching 8220Charlie Wilson8217s War8221	2008-05-22 10:50:33
55709314	798283570	Charlie Wilsons War was enjoyable Sundays are always so nice Getting a little work done today Lots of announcements next week	2008-04-27 22:30:42
21017079	1560848269	watched charlie wilsons war  NOW a movie called child star  oh indian food you have betrayed me	2009-04-19 21:57:15
42851498	1112334521	Charlie Wilsons War  4 and 12 out of 5 stars Very much enjoyed that	2009-01-12 03:55:56
51549328	762147372	CHARLIE WILSONS WAR  WestWing with more nuditysexdrugs amp the CIA Sorkin rocks	2008-02-26 20:31:23
55783428	813894788	just watched charlie wilsons war for the 2nd time Saw it in theatre but this time I had a bottle of scotch Yay me	2008-05-18 01:01:06
50429805	539643942	Waiting 2 leave the gym and go 2 c charlie wilsons war	2007-12-28 01:28:49
55839557	1431861711	 sim e com o tom hanks tamb233m se que Charlie Wilsons War foi uma exce231227o	2009-04-01 15:10:01
27206059	1193353077	Going to watch Charlie Wilsons War in bed Ta ta	2009-02-09 21:58:13
56022010	798384921	Watching quotCharlie Wilsons Warquot Philip Seymor Hoffman is on fire	2008-04-28 02:07:31
31561485	2501518919	Charlie wilsons war Lol bored talk to me	2009-07-06 19:16:15
55753112	1080564930	Heard JJ laughing at parts of Charlie Wilsons War tonight Thats a good sign of coping wGoliaths death	2008-12-27 08:12:57
56025210	533791432	Saw Charlie Wilsons War Good not amazing	2007-12-26 04:10:40
49572881	2856945401	Watching Charlie Wilsons War its good to have friends with money	2009-07-26 19:07:44
48087691	2557360709	Sunny  Tent time Wathed Charlie Wilsons War  c ya nxt msg BBQ PM Bro amp sis week Listinin 2 Seal Kiss from a Rose Cya tomarrow TTT Big Top	2009-07-09 21:49:17
9073605	1058666352	saw Charlie Wilsons War and said wow this is like Sorkin liberal preachy but witty enough to interest me cause it was Sorkin	2008-12-15 15:35:16
21941989	1127738981	 reference Not charlie wilsons war is it	2009-01-18 06:34:08
21376431	2754036260	Ive seen Charlie Wilsons War too many times Such great dialogueHanks amp Hoffman kill it	2009-07-21 06:54:52
7211016	863181843	I watched Charlie Wilsons War	2008-07-20 03:50:50
17763223	1923569520	feeling a teeny tiny bit hungover eating a bagel drinking a lot of water watching charlie wilsons war and planning meetings	2009-05-26 13:47:48
28951045	3118321031	Watching Charlie Wilsons War with Courtney Good stuff	2009-08-04 04:14:19
427399	787971156	watching a movie CHARLIE WILSONS WAR	2008-04-12 21:24:07
13876959	1188165442	Charlie Wilsons War is a charming movie	2009-02-08 05:04:03
7918068	1509141232	tramer reminds me of wonderfully horrible story of Zen Master  boy with the horse referred to at end of charlie wilsons war	2009-04-13 13:53:37
33801328	1461674144	hookah charlie wilsons war now	2009-04-06 07:54:10
17297742	1196123114	watching charlie wilsons war during lunch oo to the ber	2009-02-10 17:28:18
27097988	3199968993	 If I had my way not one British soldier would have died in Afghanistan as they wouldnt be there Watch Charlie Wilsons War	2009-08-09 00:29:40
24469162	2075730713	just watched charlie wilsons war  good flick  tom hanks great  philip seymour hoffman terrific  julia roberts rowr	2009-06-08 13:04:16
28263839	2575653747	Charlie Wilsons War	2009-07-10 23:30:03
27592894	1233511526	watching charlie wilsons war while my wife hangs out on facebook  she will ask what happened after it is over	2009-02-21 06:26:45
21709105	2570891700	H246rsammar J246rgens rekommendation s229 h228r ett 229r senare och ska snart kolla p229 Charlie Wilsons War	2009-07-10 17:19:40
44457494	2621340118	thinkin about whats next watchin Charlie Wilsons War	2009-07-13 22:02:09
24909934	2176006833	 Maybe Charlie Wilson can fight this war also	2009-06-15 09:38:33
9411331	1052846561	Charlie Wilsons war is an awesome movie	2008-12-12 05:28:18
35342634	1749956559	I rated Charlie Wilsons War 3 out of 5 amp9654 	2009-05-09 22:51:30
7490382	2838754946	quotWhy is Congress saying one thing and doing nothingquot quotWell tradition mostlyquot Charlie Wilsons War	2009-07-25 15:57:03
6264660	794377243	charlie wilsons war	2008-04-22 15:30:04
55920082	2440015653	charlie wilsons war	2009-07-02 17:19:55
36600243	2696665908	Charlie Wilsons War on channel 661 and American President on 662 Dilemma of the Sorkin variety Michael J Fox tips the scales	2009-07-17 22:31:06
55790789	975456815	Watching Charlie Wilsons War Great movie beautiful dialogs great actors	2008-10-25 22:20:34
27669329	1798001729	Charlie Wilsons War was a brilliant film  Philip Seymour Hoffman was brilliant as always  As was Tom Hanks	2009-05-14 19:06:36
10050729	830171512	trying to watch Charlie Wilsons Waragain	2008-06-09 03:39:05
24315669	1301008366	 Julia Roberts was also very good in Charlie Wilsons War	2009-03-09 16:26:27
7161135	886367957	quotCharlie Wilsons Warquot is a little unattractive movie but its not so bad	2008-08-13 14:49:44
46356385	2274572185	charlie wilsons war is amazing	2009-06-22 04:19:17
6043622	1005116781	Charlie Wilsons War Solid meh	2008-11-14 07:09:48
4105997	1031483847	Em Charlie Wilsons War Tom Hanks mostra o lado bom de se enviar armas poderosas ao paquist227o Mas n227o mostra o que veio depois de 84	2008-12-01 01:18:19
55787873	555745602	Cant focus on web stuff so going to Charlie Wilsons War instead	2008-01-02 17:55:31
55948602	614797302	off to see Charlie Wilsons War	2008-01-18 19:50:45
37688552	1472921867	is watching quotHogfatherquot and quotCharlie Wilsons Warquot tonight with some friends	2009-04-07 23:37:11
1682528	564627782	Charlie Wilsons War was very good and dinner at Bennigans with the gang was great as always	2008-01-05 07:37:31
4473	1342794135	8am Charlie Wilson S War The Band Wagon Vizio Vs370e Mhsaa Wi Unemployment Wicked Julia 	2009-03-17 15:55:09
16390537	1535246563	just finished Charlie Wilsons War  good fn movie	2009-04-16 17:31:01
55899095	1329256023	 coincidence  I have a large Laphroaig watching Charlie Wilsons War with me	2009-03-14 23:56:22
2781306	820501721	getting ready to watch charlie wilsons war btw looks like twitter is taking another dump	2008-05-26 23:37:48
55660807	803382204	watching Charlie Wilsons War w Megha	2008-05-04 20:06:33
18151048	1165903395	Thumbs up on Charlie Wilsons War Nice to see John Slattery playing Roger Sterling wa different name 	2009-02-01 02:14:26
5901721	781081441	tonights film Charlie Wilsons War 7pm Chrysler Museum Theatre	2008-04-01 21:21:57
38298596	1548341365	Charlie Wilsons war kinda like the Bad Santa version of political moviesgood show but drops more fbombs than a trailor trash mommy	2009-04-18 03:41:14
30488133	2507874455	Just watched Charlie Wilsons War  Great movie and you can learn a little history	2009-07-07 03:02:18
6483352	1501234186	No more Spaced for tonight About to begin watching Charlie Wilsons War	2009-04-12 04:20:52
43878547	1809343488	Charlie Wilsons War review is now up at Lunch and on Facebook  LJ to come in a bit 	2009-05-15 19:30:54
29791064	3516827957	Went to the library amp brought along 5 CDsthe final episodes of Carniv224le S1 Woody Allen box INCLUDING Match Pointamp Charlie Wilsons War	2009-08-24 17:45:51
40087379	1640358215	catcher He is pretty good I really liked him in CHARLIE WILSONS WAR It was FUNNY He deserved his Oscar nod for that one	2009-04-28 16:40:00
14343237	933750072	Watching Charlie Wilsons War	2008-09-25 00:59:09
8967018	1030086556	Watching Charlie Wilsons War I loved this movie the first time lets try it again	2008-11-30 01:05:10
4193	1094447893	watching Charlie Wilsons war	2009-01-04 02:22:32
10884214	889925767	New blog post Charlie Wilsons War  Movie Review 	2008-08-17 03:36:58
1453177	801586115	watching Charlie Wilsons War	2008-05-02 01:32:14
54020134	563110032	Going to see Charlie Wilsons War	2008-01-04 20:26:55
31073274	1287883869	has recently watched the movies Slumdog Millionaire Forrest Gump LotR Sex Drive 300 Watchmen and Charlie Wilsons War	2009-03-06 11:36:10
52401364	1058104888	finally watched Charlie Wilsons War tonight really enjoyed it except for the wavering accents	2008-12-15 07:28:08
17685832	1931862186	I think I am going to watch Charlie Wilsons war	2009-05-27 03:29:55
7776650	795594445	Is watching Charlie Wilsons War	2008-04-24 01:54:13
34353583	2204387965	watched yesterday Charlie Wilsons war make me think again about the conflicts of tomorrow the still unexpected ones	2009-06-17 09:05:06
27579992	1197056417	watching charlie wilsons war and aching like crazy from the gym	2009-02-10 22:13:35
26059599	2079772771	Am gona tape a thing for work then put these bubbas to bed then watch Charlie Wilsons War on DVD Nice day off tomorrow 	2009-06-08 19:04:27
6200402	2040276909	Watching Charlie Wilsons War Didnt know Tom Hanks was in it Pretty good	2009-06-05 07:07:39
55714735	828104857	I talk about God for one single reason I want him on our side JoAnneCharlie Wilsons War	2008-06-06 01:19:10
8413747	819862697	Watching charlie wilsons war and working on brians blanket	2008-05-26 01:47:35
15389228	904397046	Watching Charlie Wilsons War with mi Padre	2008-08-31 00:16:42
3225266	1143787419	watching Charlie Wilsons War on Boxee check it out at 	2009-01-24 03:09:28
3431730	1122496194	is reading charlie wilsons war and ripping some cds	2009-01-16 00:50:51
29694007	1468382987	 Sunshine Cleaning looks great She was under appreciated in Charlie Wilsons War amp beyond amazing in Catch Me If You Can amp Junebug	2009-04-07 08:20:00
11361766	2346447340	Putting on Charlie Wilsons War and getting down to business	2009-06-26 16:57:19
16491698	1590768435	Just watched Charlie Wilsons Wargood movie	2009-04-23 02:37:36
24375773	1293947014	Charlie Wilsons War is well made film Some real solid acting	2009-03-07 20:38:43
2418421	645271312	Just back from watching Charlie Wilsons War  Its awesome  Go watch it	2008-01-27 00:10:37
19016493	1110424977	hanging with the seamstress watching charlie wilsons war making warm things	2009-01-11 04:56:15
9565717	820554059	Parents are gone  Watching Charlie Wilsons War	2008-05-27 01:27:18
21730169	1683350727	OK so some fantastic hot wings and incredible beer have done a lot to improve my mood Watching Charlie Wilsons War was a good thing too	2009-05-03 01:36:59
25182621	1181973529	 what movie  we just watched Charlie Wilsons warnot bad but not great  Frustrated with Suny	2009-02-06 02:52:44
8046365	825661897	Watching Charlie Wilsons War and being disgusted at the fact that there are such things in existence as quottoy bombsquot  sick	2008-06-03 02:46:15
31345313	3196375062	More people should see the wonderful Charlie Wilsons War In spite of Julia Roberts looking like a transvestite in it Really great film	2009-08-08 19:00:40
31213286	2859702498	Im eating BBQd chicken taters and watching Charlie Wilsons War	2009-07-26 22:28:18
14802009	1911311330	 it was funny to see in Charlie Wilsons War that how the pious Saudis worked hand in hand with Israeli in Afghan holy war P	2009-05-25 10:24:24
34483625	2084586850	ps Charlie Wilsons War  great movie	2009-06-09 02:23:45
756579	835586675	Trying to decide between Charlie Wilsons War and The Great Debators PPV is slim pickings tonight	2008-06-16 00:30:56
55950836	798355463	Havent been able to get a hold of my dad in over a day Starting to get worried Going to watch Charlie Wilsons War	2008-04-28 01:08:18
7478208	797161369	about to watch charlie wilsons war Till then messing on the laptop in the dark	2008-04-26 00:57:11
55772797	552826142	I liked Charlie Wilsons Warbut that was so yesterdaynow its 2008	2008-01-01 17:47:15
1124048	1317072938	Charlie Wilsons war a movie which was welleducational and fun never thot i cud use the 2 words in one sentence	2009-03-12 17:18:23
7995056	3206834927	 in response to your last tweet did you see quotCharlie Wilsons Warquot Good movie	2009-08-09 12:28:03
51398324	825565187	Watching Charlie Wilsons War	2008-06-02 23:55:50
15973668	1118484037	reading Charlie Wilsons war and inspired to learn whos on the housesenate appropriations committee	2009-01-14 15:34:09
19755113	1044501772	Getting ready to watch Charlie Wilsons War	2008-12-08 04:28:01
1706227	550585922	Trying to decide between Sweeney Todd and Charlie Wilsons War	2007-12-31 21:47:41
39396207	2600017385	Finally watching Charlie Wilsons War Like it so far	2009-07-12 16:16:16
53444228	536647972	 What did you think about Charlie Wilsons War	2007-12-27 03:10:56
25434694	2440321345	I just sang to the lady Julia Roberts portrayer in Charlie Wilsons War OMG	2009-07-02 17:40:45
7530725	1059908671	Phillip Seymour Hoffman is fantastic in Charlie Wilsons War	2008-12-16 03:26:39
32284407	1507194671	watching charlie wilsons war gotta love our quagmire in afghanistan	2009-04-13 04:09:19
55794692	926623835	Watching Charlie Wilsons War How I got so behind on Netflix Ill never know	2008-09-19 00:55:42
29889330	1246046294	Watching Charlie Wilsons War Awesome movie	2009-02-24 19:25:43
10836169	835765594	Aaron Sorkin is a genius The West Wing Charlie Wilsons War A Few Good Men	2008-06-16 06:38:04
5261	2019828230	New blog post Charlie Wilsons War Widescreen 	2009-06-03 19:06:13
52531402	856033662	Shaggy Dog was for fun Pushing Tin skips and hates me so now on to Charlie Wilsons War But now there are distractions all round	2008-07-11 21:16:44
55829217	3163815804	Watching Charlie Wilsons War	2009-08-06 09:10:01
33677907	1933666133	watchin charlie wilsons war 	2009-05-27 07:37:40
41724840	2649588488	watching charlie wilsons war	2009-07-15 11:33:47
35293176	2084713058	has any one ever watched Charlie Wilsons War	2009-06-09 02:35:32
49547579	2542185598	watching Charlie Wilsons War and packing for Illinois	2009-07-09 01:00:17
10890208	1030284198	Watching Charlie Wilsons War Never imagined Id see so much nudity in a Tom Hanks movie	2008-11-30 04:13:46
33148333	1444924758	watching charlie wilsons war	2009-04-03 12:32:45
54755137	750446282	Loved Charlie Wilsons war the film Am downloading the audiobook 20h My goodness	2008-02-24 05:42:14
51438680	814708321	thought very highly of Charlie Wilsons War	2008-05-19 06:47:45
55669450	533350502	Heading out to see Charlie Wilsons War with the family	2007-12-26 00:27:33
12102665	2131115263	Watched Charlie Wilsons War last night Verdict Philip Seymour Hoffman was the bomb as usual and Julia Roberts looked freaky	2009-06-12 13:31:23
4936	1601155019	Game didnt go so well Im watching Charlie Wilsons War ready to fall asleep	2009-04-24 04:48:01
55901876	944265070	Yes Afghanistan is different from Iraq Didnt they at least screen Charlie Wilsons War in debate prep	2008-10-03 02:02:15
39976352	1825626588	Watched Tom Hanks BRILLIANT movie Charlie Wilsons war last night WOWand as the Zen master saidWell seeand indeed  now we SEE	2009-05-17 13:20:31
29125704	1287869079	Watched Charlie Wilsons War last night very good and enlightening Explains how Afghanistan has the power they have today Shame on us	2009-03-06 11:29:25
1248798	863861520	Watched Charlie Wilsons War last night Enjoyed it I think some bureaucrats need to watch it with follow up new coverage of what happened	2008-07-21 03:13:22
50199742	2699386855	Friday night Homemade Pizza Charlie Wilsons War	2009-07-18 01:47:53
890168	801436825	saw Charlie Wilsons War last night  on the whole it was a good movie   	2008-05-01 20:21:06
7093630	798354802	to the peanut gallery  Charlie WIlsons War or Cloverfield to watch  what should i watch tonight know CWW is great but mood not right mayb	2008-04-28 01:06:56
5527135	846230745	 I used my free audible book credit from TWiT on quotCharlie Wilsons Warquot  very interesting book Liked the movie too	2008-06-29 14:54:02
55720181	818792998	watched charlie wilsons war good flickalthough id like to see afghanistan from 1989present documentary now	2008-05-24 04:53:28
24693342	1125312679	watching Charlie Wilsons War with my husband	2009-01-17 02:15:39
16238034	1775497472	 Are you still doing the extra credit for Charlie Wilsons war I have it coming in the mail today	2009-05-12 17:38:57
55851615	528563112	Charlie Wilsons War passes off footage of an A4 F4 UH1 and F16 blowing up as if they were Russian planes Needed better consultants	2007-12-24 07:24:46
7731151	936573319	Congratulations senator mccain you watched charlie wilsons war	2008-09-27 01:53:34
38478304	1548459422	seeing Charlie Wilsons War	2009-04-18 04:00:44
25643322	1494459748	Charlie Wilsons War and matzah w peanut butternow this is what I call a friday night	2009-04-11 01:32:57
40404454	2034485428	Im watching Charlie Wilsons War ampltEllieampgt	2009-06-04 21:07:52
30361202	1548145728	Wknd netflix line up  Superbad Charlie Wilsons War Mostly Martha	2009-04-18 03:10:15
28438241	1239841150	 maybe so check out the zen master story in flick Charlie Wilsons War	2009-02-23 05:01:37
47221563	2737104559	Might give up on Charlie Wilsons War	2009-07-20 11:16:40
12862056	804177242	 Just watched charlie wilsons war Assume youve seen it	2008-05-05 21:15:47
16640092	1091073487	Currently watching Charlie Wilsons War	2009-01-02 04:55:31
5676462	792791991	Lions for Lambs horribly written decent direction Charlie Wilsons War Loved it but a bit of a white wash	2008-04-20 03:01:41
1419139	1502953345	Despert233 tan temprano que estoy viendo Charlie Wilsons War Las escenas entre Tom Hanks y Philip Seymour Hoffman son un lujo	2009-04-12 13:56:43
12590886	1030176454	Finally getting around to viewing Charlie Wilsons Warinitial reaction wasnt going to do it for me but 20min inI was hooked	2008-11-30 02:30:38
48945936	648409162	Really enjoyed Charlie Wilsons War didnt know it was written by Aaron Sorkin	2008-01-27 22:59:53
5131197	2051287497	Captivated by Charlie Wilsons War and Tom Hanks	2009-06-06 04:30:33
6592124	1189929199	 The Peacekeeper  Ch5 or Charlie Wilsons war on Sky 	2009-02-08 22:18:28
15039896	1988050924	Watching charlie wilsons war again How did tom hanks go from boosom buddies to being such a good actor WhatHappened2OtherBuddy	2009-06-01 04:31:12
50558782	567031932	I enjoyed a somewhat lazy day saw Charlie Wilsons War and got the laundry done	2008-01-06 02:50:41
41088524	1610524409	cooking quottwice the blueberryquot muffins watching Charlie Wilsons War and crocheting Trinas baby blanket	2009-04-25 04:22:01
2715537	811615653	 you were right charlie wilsons war was very good If you get a drink with can i get an invite p	2008-05-15 03:38:55
2625	559781932	Movies all  Charlie Wilsons War 	2008-01-03 22:16:03
296167	663603392	Standing around waiting for the cinema to be cleaned so I can watch Charlie Wilsons War	2008-01-31 20:23:31
50657669	1051811081	took a bath after cleaning the Boor  Now watching Charlie Wilsons War	2008-12-11 19:01:07
2041922	596770742	Charlie Wilsons War nominated for best comedy Makes no sense Drama maybe	2008-01-14 08:23:35
55919348	718610322	I saw Charlie Wilsons War this evening  Had to see it after reading about it in Nemesis	2008-02-16 04:52:29
19266567	1395731918	 good appearance on Letterman last night  I loved you in Charlie Wilsons War	2009-03-26 17:43:16
9647483	904266136	I watched the exellent Tom Hanks in the movie called Charlie Wilsons War	2008-08-30 20:47:43
9742964	822570103	Just finished watching Charlie Wilsons War  What a great movie  Now I need to clean up  I love my rainbow friends	2008-05-29 15:13:26
14209571	1901170876	Watching Charlie Wilsons war	2009-05-24 08:24:30
39308304	532940582	waiting for quotCharlie Wilsons Warquot to begin Way more people here than I thought	2007-12-25 20:32:08
43760326	2085658510	 Looked for a link to the full story  not seeing one  the movie Charlie Wilsons War uses the story also	2009-06-09 04:08:10
7404351	808400271	Just finished watching Charlie Wilsons War and knitting 34 of a Scarflet in Blue Sky Alpaca	2008-05-11 03:31:57
36241241	1822820782	watching charlie wilsons war waiting for my pizza to cook	2009-05-17 03:27:53
2464033	925431657	 Charlie Wilsons War script best decribed as crackling Sorkin now working on screenplay for the story of Facebook	2008-09-18 02:39:33
5673052	1392723684	RT  About to watch Charlie Wilsons War  GREAT MOVIE	2009-03-26 05:02:11
9777764	1266418093	 Just thought of a good topic Charlie Wilsons War how US aid in 70s and 80s helped the Taliban gain power in 90s and 00	2009-03-01 20:02:34
6561480	784537701	Watching Charlie Wilsons War  great movie	2008-04-07 17:52:49
8596445	960233088	Watching CHARLIE WILSONS WAR and drinking awesome fermented aloe tea yum yum	2008-10-15 05:54:03
48080058	1157618528	eating ramen in my jammies and watching charlie wilsons war yay wednesday night	2009-01-29 04:50:51
50544602	1086452158	Listening to Charlie Wilsons War to avoid the CW muzak	2008-12-30 19:30:42
5806486	1147492682	is doing homework w Charlie Wilsons War in the background	2009-01-25 21:35:27
32334428	2447519116	Charlie Wilsons War never gets old Good flick	2009-07-03 02:24:22
21674504	1081787884	Watching Charlie Wilsons War I love Tom Hanks	2008-12-28 03:55:51
5653110	1500758890	 How could you stand Philip Seymour Hoffman  The only thing I could stand him in is Charlie Wilsons War	2009-04-12 02:40:33
16203699	929040503	watching Charlie Wilsons war  not sure about it	2008-09-21 04:27:36
19895188	1045863309	Watch Charlie Wilsons War 2008 Movie Online  	2008-12-08 22:05:52
34017331	1536007868	Chillin amp watching charlie wilsons war	2009-04-16 19:19:17
27186594	1240488274	  quotcharlie wilsons warquot is a good Sunday nighter	2009-02-23 11:14:59
6223866	950653546	Wequot  dont you mean Charlie Wilson and the CIA in a covert war	2008-10-08 02:13:59
7229219	2430337224	watching charlie wilsons war not sure if i like it yet	2009-07-02 02:12:22
11252901	1147884077	geeky I watched Charlie Wilsons War today and somehow I think his model of getting things done is still the norm not cyberocracy	2009-01-26 01:04:45
55760129	981386411	Watching my first netflix arrival movie Charlie Wilsons War Im liking it	2008-10-30 00:12:38
10473190	878993232	Just finished watching Charlie Wilsons War very good very well written movie	2008-08-06 04:27:13
33909072	3063495834	Just watched Charlie Wilsons War Now we have to wiki that crazy man	2009-08-01 02:42:40
11409835	1091169661	watched Charlie Wilsons War with wikipedia as an entertainment supplement	2009-01-02 06:21:49
3920674	753109522	Charlie Wilsons War  Surprisingly quite good	2008-02-24 23:59:37
33103242	1400232800	thinks this is reminiscent of the political ego boosting in Charlie Wilsons War  this is NOT a good thing	2009-03-27 10:57:44
4947588	921108618	charlie wilsons war REALLY good movie  phillip seymour hoffman stole the show as he usually does he has a GREAT character  see it	2008-09-14 15:40:52
20226989	1051810596	Charlie Wilsons War 	2008-12-11 19:00:53
4885824	1028950210	Watching Charlie Wilsons War with Baker and Schwanny I love this movie	2008-11-29 04:10:36
55899068	532816792	 I wish No sexedup West Wing on Afganistan with Tom Hanks Charlie Wilsons War	2007-12-25 19:15:12
7977627	1171675770	Listening to Charlie Wilsons War book on CD on the way to and from work	2009-02-03 01:57:23
4473	1762107290	3am Charlie Wilson S War The Band Wagon Vizio Vs370e Mhsaa Wi Unemployment Wicked Julia 	2009-05-11 10:55:26
9996444	1239046007	is about to watch charlie wilsons war finally	2009-02-23 01:48:21
16599504	929759928	is watching charlie wilsons war	2008-09-21 23:03:04
18322010	1515270446	Recent Rentals Shipped Charlie Wilsons War Shipped on 041309Texas congressman Charlie Wil 	2009-04-14 07:37:50
6586870	2190343417	Charlie Wilsons war in Iran The Golden Crescent is all about Heroine amp Opium Other odds amp ends as well like Hemp amp Qef  amp deriviatives	2009-06-16 09:27:31
29508359	1342518047	210832108330475234363763620102229092003730340Charlie Wilsons War652883399519990228552516565289652923699619981376793047565281	2009-03-17 15:04:58
29613454	1080544354	 Yeah Charlie Wilsons War was awesome and PSHs was the awesomest of some pretty great performances in that movie	2008-12-27 07:45:06
38748650	2678645743	is watching Charlie Wilsons War Very good movie	2009-07-16 23:49:02
7728008	896521942	Charlie Wilsons war is the sweetness	2008-08-23 14:30:55
9770303	819977880	Watched Charlie Wilsons War after I got back from a run Interesting movie Glad to have tomorrow off Woot Probably gonna do a buncha hw	2008-05-26 06:03:50
50482635	765681955	I really didnt like Charlie Wilsons War	2008-03-02 14:35:56
21942201	1076485301	3 Cups of Tea is a book that is every bit as good as the movie Charlie Wilsons War perhaps better	2008-12-24 16:16:29
18172610	1094496357	Watching documentary of Charlie Wilsons War	2009-01-04 02:54:38
13895149	2194433381	too many interruptions while watching Charlie Wilsons War Damn	2009-06-16 16:47:19
20689588	2369677232	First time Ive gotten an extremely enthusiastic hit on both Doubt and Charlie Wilsons War on an IM chat So happy right now	2009-06-28 08:22:53
8502143	808378531	Just watching Charlie Wilsons War with the missusGreat film	2008-05-11 02:45:26
25726838	1576981757	Just watched Charlie Wilsons War  great film	2009-04-21 17:57:56
56013004	869496516	Charlie Wilsons War pretty good thus far then a scene pops up with Philip Seymour Hoffman and John Slattery Wow fantastic	2008-07-27 04:26:02
40185770	2624723913	Just had Chicken Pesto Pasta for dinner Fuckin delish I tell you Abt to watch Charlie Wilsons War Seems like a great night flick  	2009-07-14 01:50:44
1820107	1080353666	Just watched Charlie Wilsons War Loved all of it but Phillip Seymour Hoffman was magnificent I give it 5 out of 5 tragic consequences	2008-12-27 04:29:16
49439851	3089872205	Filmes de ontem Contact Charlie Wilsons War e Romance O melhor foi Romance nacional Contact j225 tinha visto peguei p relembrar	2009-08-02 18:25:03
15294161	1684051156	About to watch Charlie Wilsons War Anyone seen it	2009-05-03 03:12:31
39478716	1806316588	 hehe much like your bhangra collection I will not judge you for this His last movie I liked was Charlie Wilsons War	2009-05-15 14:19:38
8322032	2413475741	Watching Charlie Wilsons War and thinking about the book Three Cups of Tea If you havent read it I highly recommend it Very inspiring	2009-07-01 01:54:09
1642606	545339502	Charlie Wilsons War  good XOs keyboard  too tiny to type with	2007-12-30 03:07:28
55990370	543076972	I want to go see Charlie Wilsons War  Anyone interested	2007-12-29 07:14:10
55951164	790516465	Watching Charlie Wilsons War	2008-04-16 18:42:47
47457347	2698122579	Watching Charlie Wilsons War Its fantastic so far and there is still an hour left	2009-07-18 00:16:02
6380057	843861047	  I saw Charlie Wilsons War when I was in Indonesia I loved it too We should hang out	2008-06-26 04:11:13
20049589	1619327428	You know how sometimes at the end of a long day you realize youve been watching Charlie Wilsons War on HBO for 20 minutes in Spanish	2009-04-26 08:13:30
4792150	770586722	Watched Jeff Skoll of eBay on wwwTedcom  Didnt know his company produced Syriana Good Night and Good Luck  Charlie Wilsons War	2008-03-12 21:41:49
5379953	798218411	so after a weekend of watching movies I can say Charlie Wilsons War was pretty good amp Cloverfield sucked major assthat is all 	2008-04-27 20:07:09
28032229	1204407593	Im currently watching Charlie Wilsons War and thinking what music to buy with a 16310 itunes voucher	2009-02-12 22:37:33
53252136	528167362	Watching Charlie Wilsons War with friends I am excited this was one of the best non fiction books I have read	2007-12-24 03:54:01
1118062	589192812	Charlie Wilsons War 				Well I found this movie a great watch I work in an Afghan related project a 	2008-01-11 22:29:10
6009504	837483342	 Hey I just saw Charlie Wilsons War Aaron Sorkin rocks Further proof that some people just do better on coke	2008-06-18 04:38:55
56027407	569938532	Charlie Wilsons war  chinese video sites  awesome combination	2008-01-07 01:34:34
53267571	481923972	Second movie of BNAT Charlie Wilsons War	2007-12-08 20:49:24
53578794	3159058536	quotCharlie nobody gives a sht about a school in Pakistanquot YouTube Charlie Wilsons War  trailer  	2009-08-06 02:56:09
5805928	1294874033	Starting to read Total Yoga by Tara Fraser while watching Charlie Wilsons War	2009-03-08 01:49:11
1181379	802369399	Just saw Charlie WIlsons War wow  The scene in which the airliner is heard as they are talking at the end that is film making	2008-05-03 03:18:14
53558298	668942332	had date w Wifey saw charlie wilsons war great movie  heading back to office cant stop now	2008-02-02 05:34:26
32090443	1060137710	Working and watching quotCharlie Wilsons Warquot  Phillip Seymour Hoffman takes me away to a happy placealways  My favorite actor by a mile	2008-12-16 06:17:35
431428	936572599	Hey how bout that McCains seen Charlie Wilsons War	2008-09-27 01:53:11
30596111	1693899419	 have you seen quotCharlie Wilsons Warquot  Awsome Tom Hanks movie	2009-05-04 07:13:11
20030078	1227417987	Watching Charlie Wilsons War with Bex while simultaneously making dinner for the family 	2009-02-19 17:38:35
4973604	788672628	Charlie Wilsons War  pretty damn damn good movie Bed time	2008-04-14 06:58:51
3133045	835523150	Got some movies to watch  Charlie Wilsons War 27 Dresses and The Other Boleyn Girl	2008-06-15 22:16:27
4090	1070205039	  Film  Charlie Wilsons War 2007	2008-12-21 06:53:43
32219261	1580931944	is watching Charlie Wilsons War and reading A Thousand Splendid Sunsalmost too much jihad for one day	2009-04-22 01:59:57
47709051	3538968175	 Ik zal de onwetenden niet pesten  Charlie Wilsons War ook niet gezien	2009-08-25 17:34:53
10923880	984264145	williams alqaeda  terrorist org leader  bin laden resp for the 911 attacks charlie wilsons war gives info on how they began	2008-10-31 19:27:34
13372029	2929409711	Listening to the book Charlie Wilsons War Another reminder that the law of unintended consequences is always in force amplt3 library download	2009-07-30 12:49:25
8014156	1619926217	 I didnt see Charlie Wilsons War but I remember Da Vinci Code and Cars both 2006 so hes winding down	2009-04-26 11:34:30
10087706	842058242	Charlie Wilsons War Hilarious so far	2008-06-24 00:25:32
30879584	1937569443	Our teacher ended up switching the movie to Charlie wilsons war Boring	2009-05-27 16:59:58
24335970	1287870469	 charlie wilsons war is goodphilip seymour hoffman is great in it	2009-03-06 11:30:03
43775470	1892030404	I was bored so it was movie night Finally got around to watching Leatherheads and Charlie Wilsons War	2009-05-23 09:14:38
15380540	1173936265	Charlie Wilsons War  36173633360936263660361736343585 35863629361036293585	2009-02-03 19:41:14
18783200	2588656995	Just watched Charlie Wilsons War my mums reaction was quotWho even is he Wasnt he just an actorquot Oh dear	2009-07-11 20:49:37
26939919	1386428458	Watching Charlie Wilsons War	2009-03-25 05:24:57
9096413	1030151616	watching Charlie Wilsons War and buying a domain name oh snap	2008-11-30 02:07:16
484856	2053110139	Charlie Wilsons War just got denied I cant decide which of many reasons I have for disliking it is the one that got it turned off	2009-06-06 10:18:48
20670067	2783051048	Am watching Charlie Wilson war meh	2009-07-22 19:00:31
48300570	2251124516	is watching Charlie Wilsons War	2009-06-20 09:30:40
31912351	1457244283	 Charlie Wilsons War is intersting 	2009-04-05 15:14:26
55729775	1019540858	Watching Charlie Wilsons war Awesome scene where Philip Seymour Hoffman tells his boss off	2008-11-23 16:20:59
8014962	1327982032	No country for old men or Charlie Wilsons War Any preferences from my twits	2009-03-14 18:26:30
24418905	1450295313	whiskey and charlie wilsons war	2009-04-04 06:01:10
805468	998033967	winding down a great day by watching Charlie Wilsons War	2008-11-09 23:48:21
15425285	1264498622	RT  Charlie Wilsons War by George Crile is one of those nonfiction books that reads like fiction JKP And a fine read it is	2009-03-01 04:49:44
1118450	1819284534	Watching Charlie Wilsons War on HBO while I read about Governor Huntsmans nomination to serve as Ambassador to China	2009-05-16 19:55:24
7944983	839775118	Charlie Wilsons War was kind of boring I dunno it just was sort of	2008-06-20 19:57:48
29040765	1032774630	watching Charlie Wilsons War on Boxee check it out at 	2008-12-01 19:15:01
2361781	1020355733	just finished watching Charlie Wilsons War pretty good movie if you havnt seen it yet i recommend it ps i bugged the scotch	2008-11-24 04:32:22
18497653	2291292161	Charlie Wilsons War is an outstanding movie	2009-06-23 06:35:25
8725772	1417200934	DVD review  Charlie Wilsons War 80s Congressman buys guns for Afghan antiSoviet resistance  Message US now reaps what it then sowed	2009-03-30 11:27:34
3024440	2524618909	 state of play  the network  star wars  charlie wilsons war	2009-07-08 01:15:44
12454763	1560463380	is watching quotCharlie Wilson8217s Warquot	2009-04-19 20:46:37
8562047	911206643	Watching Charlie wilsons war	2008-09-05 21:24:57
23514336	2392654398	If I tell you what I was just forced to see youd be really unhappy Think Samford meets Charlie Wilsons War less that one scene	2009-06-29 20:12:50
24826810	1233008973	Watching Charlie Wilsons war  Good stuff	2009-02-21 02:34:31
55875064	944426762	Charlie Wilsons War via Netflix 	2008-10-03 03:07:01
25534439	1188762865	Charlie Wilsons War Love Philip Seymour Hoffman growly swearing tinted glasses and ludicrous hair And the film aint bad either	2009-02-08 13:10:39
33720541	2366144168	Watching Charlie Wilsons War	2009-06-28 01:27:41
35591017	3368867824	Mike Nichols to Direct Deep Water Having faced Charlie Wilsons War Mike Nichols is gearing up for his next  	2009-08-17 21:03:48
55967162	1066107119	Off to the gym for a bit Then watching Charlie Wilsons War	2008-12-19 00:42:36
5969892	1030272707	Torn between watching Charlie Wilsons War and finishing my homework OR go get a coat and some shoes on and walk around in the wintery dark	2008-11-30 04:02:34
36367153	2250132440	quotMilkquot is an alright movie quotCharlie Wilsons Warquot meets quotBrokeback Mountainquot	2009-06-20 06:46:45
5384902	813423199	  hopefully they imprison everyone involved with the production of Charlie Wilsons War	2008-05-17 08:10:48
47295349	3171393866	If you haven8217t already seen the movie CHARLIE WILSON8217S WAR rent it Also the making of special feature It8217s worth your time	2009-08-07 00:20:48
8116495	1151346865	Tumbled Books from the past month most recent first Charlie Wilson8217s WarI thought the movie was su 	2009-01-27 05:44:02
35698859	2242374728	616 just finished quotcharlie Wilsons warquot	2009-06-19 19:06:44
55695677	536213022	 avoid charlie wilsons war unless you really want to punish yourself	2007-12-26 23:50:32
1043389	625636922	going offline to watch Charlie Wilsons War	2008-01-21 23:16:39
17189198	1057309192	 Yo thun why they cut your scene from Charlie Wilsons War again	2008-12-14 21:02:24
52432633	941057827	Watched Charlie Wilsons War and reminded of how history repeats itself at shorter and shorter intervals	2008-09-30 20:51:50
3333688	954575166	on that note  i watched Charlie Wilsons War and have many thoughts	2008-10-10 18:55:44
43026105	1839607189	For anyone who has seenread Charlie Wilsons War I hung out with Bob Vickers today	2009-05-18 20:30:15
9420578	1119512248	How did we win the Cold War In this essay on Charlie Wilsons War I argue it was force and resilience  TCOT	2009-01-14 22:40:54
19047950	1052854106	Philip Seymour Hoffman ampgt Tom Hanks His entrance is why Im not changing the channel on Charlie Wilsons War	2008-12-12 05:34:29
10549282	831089825	I decided that I should save money just watch a movie and get drunk at home Going to watch the Charlie wilson war I hope its good	2008-06-10 05:05:05
40857639	1052991775	just finished watching Charlie Wilsons War Very well done and educational too I recommend it	2008-12-12 07:44:39
55900622	634166792	Review 4 Charlie Wilsons War  black comedy kinda on how US funds to mujahideen via Charlie Wilson Texan Senator Tom Hanks	2008-01-23 23:22:06
11680223	887916419	 Charlie Wilsons War I havent seen it yet either but I want to What about The Good Sheppard	2008-08-14 23:21:06
56018203	814460799	Wow charlie wilsons war was awesome	2008-05-18 22:23:51
55943597	924305645	Just by the by Charlie Wilsons War is actually a very enjoyable filmn	2008-09-17 06:16:18
125968	748059852	Vean Charlie Wilsons War con Tom Hanks Julia Roberts y el siempre genial Philip Seymour Hoffman Muy interesante explica muchas cosas	2008-02-23 14:32:43
6779784	863213063	was charlie wilsons war good	2008-07-20 04:53:36
1901966	798276632	Just watched quotCharlie Wilsons Warquot GREAT flick in spite of Julia Roberts	2008-04-27 22:14:59
52329141	536696482	Charlie WilsonThe war	2007-12-27 03:34:44
46704179	1553314005	 Im watching charlie wilsons war The nuddy bits at the start have caused me to have a diet breakdown Ive just ate 6 crackers	2009-04-18 20:56:11
10251713	1293918573	Even though I own the film every time Charlie Wilsons War is on I watch it because I love the way Sorkin writes dialogue	2009-03-07 20:29:59
55962755	799835855	gonna go watch charlie wilsons war and the savages till my girl comes home with dinneri love my life	2008-04-29 21:07:09
55712766	530774162	Heading to see Charlie Wilsons War	2007-12-25 00:49:24
55940959	950652379	current  McCain is referring to the story behind the movie quotCharlie Wilsons Warquot which is awesome	2008-10-08 02:13:32
42827053	592127772	Have ventured to the O2 to see Charlie Wilsons War as the Picturehouse was sold out Vue screen 11 is massive	2008-01-12 20:50:35
32269318	2342141275	Watching Charlie wilsons war	2009-06-26 10:32:36
228318	517053062	Just watched Charlie Wilsons War Like it a lot	2007-12-20 08:23:15
32388505	2111994069	Charlie Wilsons War with Joy	2009-06-11 02:40:29
33694372	805519345	New blog post Der Krieg des Charlie Wilson Charlie Wilsons War 	2008-05-07 14:12:51
7417055	900511272	 Forget sending Cheney or a Secretary of Peace to Georgia Send the Russians copy of Charlie Wilsons War DVD is best	2008-08-27 14:11:16
16558664	1295005065	watched Charlie Wilsons War  Are we going to mess up the end game in Iraq too	2009-03-08 02:37:25
6216996	1200810259	Watching Charlie Wilsons War	2009-02-11 23:27:33
31912351	1538089583	If you want a small taste of what the averge person does not know watch the movie Charlie Wilsons War by Tom Hanks	2009-04-17 00:37:51
34087608	3269385710	New Blog Post Charlie Wilson to Joanne Herring8217s war	2009-08-12 17:47:26
5053313	804900039	fell asleep so hard during Charlie Wilsons War I thought I was in the war	2008-05-06 18:46:12
8725506	808982929	Charlie Wilsons War worth watching	2008-05-12 01:45:09
55919617	535985072	Caught Charlie Wilsons War Great flick Didnt realize it was an Aaron Sorkin script until the end No wonder I liked it so much	2007-12-26 22:00:49
15201179	1314491111	Getting ready to watch Charlie Wilsons War	2009-03-12 04:14:19
2453	526634822	JaikuFeed  leolaporte Charlie Wilsons War was such a disappointment How can you g 	2007-12-23 15:12:06
10504817	914503670	Watching charlie wilsons war kinda not paying attention Nathan is splitting my attention	2008-09-09 00:48:20
4749	1430763214	Filmkritika Charlie Wilsons War 2007 Aaron Sorkin forgat243k246nyv 237r243k233nt m225r letett p225r  	2009-04-01 11:31:54
18770121	3158323061	Watching Charlie Wilsons War  trailer   quotlets kill some fuing Russiansquot  our government scares me	2009-08-06 02:15:49
11422718	2172588937	has been busy latelywatching Charlie Wilsons War for the 10th time	2009-06-15 02:30:56
55661453	2388228381	charlie wilsons war witty and worthy roberts and adams are good hanks is impressive hoffman is brilliant as always 140charreviews	2009-06-29 14:47:54
6224171	1265920835	 combine them and have There will be a Charlie Wilson Blood War	2009-03-01 17:19:16
804630	781250307	just watched Charlie Wilsons War  What a great movie	2008-04-02 03:58:51
1845395	875333647	watching charlie wilsons war for the first time Charlie is from Lufkin	2008-08-02 03:07:41
48720585	1777753461	 Charlie Wilsons War is enjoyable no Syriana and somewhat thin if youve read the book you should read the book	2009-05-12 21:41:53
37946923	2390432345	is watching Charlie Wilsons War I hope its good	2009-06-29 17:32:00
1476329	1148912074	Charlie Wilsons War deve ser o 250nico filme com o Tom Hanks que gostei de ver	2009-01-26 12:43:45
9647827	1045395257	Comment Box Julia Roberts  Not Gone But Forgotten Julia Roberts as Joanne Herring in Charlie Wilsons War 	2008-12-08 17:38:46
32639673	1412831120	Watched Charlie Wilsons War last night Didnt like it I kept expecting there to be a story there but none showed up	2009-03-29 16:55:32
2772494	813056639	Finished Charlie Wilsons War its a nice documentary movie about the history of Afghanistan and Russia Stared Tom Hanks	2008-05-16 20:00:29
50429805	538967132	finished watching Kyle XY with my sister She got the first season on dvd for xmas  Gonna see Charlie Wilsons War later tonight	2007-12-27 20:30:14
14005794	1372955880	The feminist in doesnt know why but  I enjoy watching Charlie Wilsons War	2009-03-23 00:33:27
30338799	1928465528	just got quotCharlie Wilsons Warquot and quotBatman Beginsquot from my fave Belmar Library	2009-05-26 21:52:55
2505478	681929212	Charlie Wilsons Other War 	2008-02-06 01:09:24
6303161	833129224	Unbox Charlie Wilsons War  	2008-06-12 16:03:11
21039051	1035593314	Sitting in a hotel room watching Charlie Wilsons War	2008-12-03 04:46:47
12580226	2697563429	Watching Charlie Wilsons War	2009-07-17 23:35:05
53112421	1117988342	 Really Youre going with the end of Jedi Think Id go with the end of Charlie Wilsons War In any case Merry Obamamas	2009-01-14 10:40:39
29658904	2174496656	Charlie Wilsons War  most boring movie ever	2009-06-15 05:40:34
39534813	3144364781	Recome231o minha jornada pelo Twitter com a Dica de Filme da Semana Charlie Wilson180s War p233ssimamente traduzido como Jogos do Poder	2009-08-05 12:35:03
56012722	861419290	misschien moeilijke film charlie wilsons war om met een chill pizzaatje te kijken maar vond m wel erg leuk al schitterde thanks minder	2008-07-17 23:47:23
5581	3281238837	Charlie Wilsons War DVD  Playcom for 163299 	2009-08-13 05:36:02
55967022	951272312	Watched Charlie Wilsons War last night A very good movie that sorta flew in under the radar	2008-10-08 13:45:24
22122498	1071601767	What movie should we go to this weekend Do we see Benjamin Button or something else  Havent been to a movie since Charlie Wilsons war	2008-12-22 03:34:42
36882861	1760740302	 Mine is a tie between The Green Mile and Charlie Wilsons War	2009-05-11 05:26:38
20157687	2228380912	Net Charlie Wilsons War gekeken met Tom Hanks en Philip Seymour Hofmann Verrassend goeie film van de schrijver van De West Wing	2009-06-18 21:22:10
6586870	1995200159	Operation Iraqi Freedom Afghanistani Freedom Charlie Wilsons War Pakistani Freedom Ah the Golden Crescent amp the sweet smell of opium	2009-06-01 20:06:31
33763267	1434501066	 I love Charlie Wilsons war 	2009-04-01 22:15:28
7012202	800000213	Just finished watching Charlie Wilsons War  great movie  watch it  Id expect no less from the brilliant screenwriter Aaron Sorkin	2008-04-30 01:38:54
2157683	2732696496	Emily Blunt Devil Wears Prada sale como 2 minutos en Charlie Wilsons War pero OMFG se ve increiblemente sexy O	2009-07-20 03:42:22
8968229	851042859	American Gangster wasnt anything special Id like to see Charlie Wilsons War eventually Not a big rush though	2008-07-06 03:08:34
12303608	927986952	 Youre RIGHT I dont want to watch Charlie Wilsons War	2008-09-20 01:47:53
5890640	1064450700	just enjoyed Charlie Wilsons War on HBO Hanks and Hoffman were great with the Sorkin script but Julia Roberts seemed miscast as a Texan	2008-12-18 06:29:32
55774265	492211272	 Is Charlie Wilsons War the oddson Oscar favorite this year	2007-12-12 02:52:40
44304681	1863228811	Best Nap Ever Too late to see The Hanks at cinema now Will watch Charlie Wilsons War to feed my fix	2009-05-20 20:33:41
5178817	1035411008	Got to the hotel room at 815 saw that Charlie Wilsons War started at 8 started watching It started at 8EST I saw the last 20 min	2008-12-03 02:38:25
777026	1069922474	just finished watching Charlie Wilsons War	2008-12-21 02:39:37
781892	537008192	Charlie Wilsons War followed by Silent Night Deadly Night  I believe eclectic is the word you are looking for that or retarded	2007-12-27 06:05:14
7966730	829996456	2 thumbs up for charlie wilsons war	2008-06-08 21:44:54
38771667	3668867090	Charlie Wilsons War of the Roses HorridFilmCombos	2009-08-31 16:44:21
2124711	1094290456	just watched Charlie Wilsons War best film Ive seen in ages 	2009-01-04 00:35:57
21384953	1185110625	Heaading to cazadores  then watching charlie wilsons warunless a better movie option	2009-02-07 01:02:46
3089603	802987330	Im currently watching Charlie Wilsons War So far so good	2008-05-04 03:52:03
15208965	1104585168	Fatima Bhutto  My Charlie Wilson War	2009-01-08 15:50:38
5332885	1322260046	should really be crashing out but Charlie Wilsons War has just started and it is one of my favorites guess i can sleep on the plane 	2009-03-13 15:42:48
55817072	565762992	charlie wilsons war finally	2008-01-05 17:10:20
13239140	1087537156	Ok charlie wilsons war is now my favorite damn movie ever	2008-12-31 06:56:50
28810671	1434391252	Films  The Darjeeling Limited was CRAP Charlie Wilsons War was GOOD Rocknrolla was OK and 27 Dresses was a chick flick Yay	2009-04-01 21:57:07
55984065	525857172	going to bed so tired charlie wilsons war was zehr gut philip seymour hoffman baby	2007-12-23 07:20:04
1982402	1702343533	Forcing friend to watch Charlie wilsons war Sitting around for seven months Netflix curious about where it has been	2009-05-05 02:38:04
55658056	544377992	Getting ready to watch Charlie Wilsons war with the fam Tickets were only 4	2007-12-29 18:34:45
31510771	2943330387	Charlie Wilsons War hasnt been as good as I had expected	2009-07-31 02:29:43
3658841	827329424	Watching Charlie Wilsons War  the hotel	2008-06-05 02:36:22
8713947	1422489124	Good workout now watching Charlie wilsons war	2009-03-31 04:29:31
45085108	2325744010	TASTE OF CHICAGO  Starts Friday  Opening acts Cameo amp Charlie Wilson  amp tons of good food  Then off to the BET awards 	2009-06-25 12:59:43
25357763	1572921385	watching Charlie Wilsons War which is basically how to get involved in something more complicated than it seems go usa but where	2009-04-21 06:02:04
55968357	564520722	Just saw Charlie Wilsons War pretty good  Tom Hanks is always on top of his game	2008-01-05 06:40:27
55964847	1018881727	I think for tonights viewing pleasure  Charlie Wilsons War	2008-11-23 02:06:53
36108068	1468046018	woke up to get a drink of water saw opening scene of Charlie wilsons war  2 hours later going back to bed	2009-04-07 06:25:47
2036755	1157692834	Just finished Charlie Wilsons War Very good movie you should watch it	2009-01-29 05:32:44
11060964	845977808	Watching Charlie Wilsons War with Mom	2008-06-29 02:28:45
2672634	803504188	Baked ziti garlic bread and Charlie Wilsons War All in an attempt to avoid what I should be doing of course	2008-05-05 00:34:03
35470008	1655736254	I am getting ready to eat a xlarge supreme pizza with my exhusband and later we are going to watch Charlie Wilsons War	2009-04-30 03:09:36
55686450	851747134	charlie wilsons war is easily the best movie ive seen in months	2008-07-07 05:41:54
40014774	566993182	Charlie wilsons war	2008-01-06 02:33:23
12324883	1460820929	Is watching Charlie Wilsons War Pretty entertaining for such a depressing subject	2009-04-06 03:36:28
28761065	817505140	Sad that LOST isnt on tonight But plan to watch Charlie Wilsons War instead	2008-05-22 15:25:28
25083711	1752719005	Watched battle for hadita  charlie Wilsons war and encounters at the end of the worlddoumentary	2009-05-10 05:45:39
7494749	891717876	finally watched charlie wilsons war first 30 minutes had me considering a swing into politics last 30 not so much	2008-08-19 02:36:17
18151048	1165730212	Watching Charlie Wilsons War	2009-02-01 00:38:04
43241781	2468421727	after watching the queen the prestige charlie wilsons war the brothers grimm	2009-07-04 12:04:46
14351975	1291234552	Trying to decide between Vickie Cristina Barcelona and Charlie Wilsons War	2009-03-07 02:08:30
28487118	1750454380	ks And Charlie Wilsons war also political and written by Sorkin	2009-05-10 00:05:52
16490277	1622787387	is watching Charlie Wilsons War	2009-04-26 19:53:54
6450017	1070193739	Film of the Year No 10 10 Charlie Wilsons War Set in the early 1980s and based on a true story Charlie W 	2008-12-21 06:41:07
25493995	1193683658	Been watching Tom Hanks in Charlie Wilsons War Cold War interventionism Create a vacuum and someone else will fill it Lets wait amp see	2009-02-09 23:49:30
5126852	840335102	 Charlie Wilsons War is a great movie I watched it on a flight to Seoul last week excellent and some relevant messages too	2008-06-21 15:35:32
15889672	1049270348	Charlie Wilsons War was a good movie	2008-12-10 15:09:30
36772982	1552838405	After quotCharlie Wilsons Warquot  great film great true story great man Ave	2009-04-18 19:41:25
12283340	1372592031	Watched Charlie Wilsons War Recommended 2 me otherwise would of past me by Glad I watched Surprisingly funny amp engrossing 45 vgood	2009-03-22 23:08:01
30631444	1539485741	in bed reading THE YANKEE YEARS w CHARLIE WILSONS WAR on HBO in the backgroundanother great day has come to an end Goodnight to all	2009-04-17 04:02:47
34227599	1362830831	watching Charlie Wilsons War awesome movie	2009-03-20 21:40:21
2690165	745673572	Films I still need to watch Charlie Wilsons War 310 To Yuma There Will Be Blood No Country For Old Men and Im Not There	2008-02-22 22:27:14
769202	1031680717	Finally got around to watching Charlie Wilsons War People said it was devoid of background but for the mainstream it served its purpose	2008-12-01 03:55:01
12988568	2360529635	im not looking forward to seeing Charlie Wilson but im might have to sit through him to see jazmin Sullivan	2009-06-27 16:29:03
44628722	1552496386	What movie should me and Alison watch tonight Charlie Wilsons War FrostNixon or W	2009-04-18 18:48:14
7997166	1240783413	am reading Charlie Wilsons War	2009-02-23 13:39:59
55969049	671486582	watched Charlie Wilsons War  4 s	2008-02-03 00:46:27
25906490	2713982203	sitting down to watch Charlie Wilsons war Trying to anyway	2009-07-19 00:21:54
25440643	1198819683	taken a day off just got out of bed and moved to the sofa and commencing with work and watching Charlie Wilsons War  xxlou	2009-02-11 12:47:42
8366218	1031739526	BUilding Bento Databases Handbraking and put an Aaron Sorking double header of Few Good Men and Charlie Wilsons War on  Good night	2008-12-01 04:45:04
47202345	799148783	  Emily Blunt is the only reason other than PSH to watch Charlie Wilson Had a War IMHO 	2008-04-29 00:54:19
17555877	1092525676	 I dont blame you Especially after his performance in Charlie Wilsons War So fucking funny	2009-01-03 00:15:10
48263703	1019233308	Watched Charlie Wilsons War  excellent film	2008-11-23 09:20:59
27523465	1387429202	 Yep big fan of Phillip Seymour the Hoffman V impressive in The Savages Charlie Wilsons War amp Doubt List goes on 	2009-03-25 11:42:33
7988346	818792697	Watched Charlie Wilsons War and went to some graduation parties  This weekend lineup and cookouts	2008-05-24 04:52:38
13599122	2055690875	Watchin charlie wilsons war tonight anyone if its any good 	2009-06-06 16:46:48
12888124	882991398	Watched Charlie Wilsons War tonight  Gotta hand it to Mike Nichols and Aaron Sorokin Phillip Seymour Hoffman too	2008-08-10 03:39:02
7489499	1044554012	Hanging out watching Charlie Wilsons War	2008-12-08 05:12:28
16040848	1637030136	randomly turned channel 2 exact scene n Charlie Wilsons War 5 dif occasions starting 2 think scene is a davinici code w could chg my life	2009-04-28 07:00:17
54109650	822172525	quotCharlie Wilsons Warquot is exactly what youd expect from pairing Nichols and Sorkin together	2008-05-29 02:20:41
44512491	610549462	is just rewatching some scenes from Charlie Wilsons War Absolutely brilliant movie	2008-01-17 19:11:25
34217815	2049440367	Watching Charlie Wilsons Waranyone seen it yet	2009-06-05 23:53:06
55710145	1189907696	is watching Charlie Wilsons War	2009-02-08 22:09:20
55948365	803031398	just finished watching Charlie Wilsons War at MarkampAllys with John	2008-05-04 05:43:38
13960638	1048692679	Current netflix charlie wilsons war	2008-12-10 06:26:27
7375164	824459593	at home watching Charlie Wilsons Warshould I have lunch	2008-06-01 07:07:12
12931851	1162868445	Watching Charlie Wilsons War and completely confused Really should pay more attention	2009-01-30 21:12:56
52849312	1031708878	Finally watching Charlie Wilsons War  Or as Hillary Clinton would call it study hall	2008-12-01 04:18:20
37554878	1806464464	 Charlie Wilsons war was good I am in a mood to watch a movie today Perhaps The Good German	2009-05-15 14:35:40
29787909	2430506186	Watching Charlie wilsons war with Chris tonight	2009-07-02 02:24:54
56014900	795536890	About to watch Charlie Wilsons War Stepping away from the laptop	2008-04-24 00:06:47
18302581	2298284214	Damn that guy is handsome RT kristen   Me amp Phillip Seymour Hoffman from Charlie Wilsons War	2009-06-23 18:29:09
38414713	1518019959	Charlie Wilsons War	2009-04-14 17:01:01
1049861	787462679	finito ora di vedere  Charlie Wilsons War non male	2008-04-11 21:25:53
3557630	1803736310	Just got done watching Charlie Wilsons War and found it to be excellent	2009-05-15 06:43:15
9248088	845184164	zieht sich charlie wilsons war rein	2008-06-27 20:25:19
14805733	897749442	Rep Jim Slatterys war is also Rep Charlie Wilsons War Wilson helping Slattery in Senate Race Read KSWatch  	2008-08-25 01:14:49
44979263	2084496417	Chriztian insisted she stay inside tonite she is a good girl so I said ok we are watchin charlie wilsons war hopefully to bed at decent hr	2009-06-09 02:15:14
2506160	2319407769	Charlie Wilsons War Tom Hanks accent is awful and Julia Roberts freakishly unattractive Having trouble concentrating on the story wtf	2009-06-25 01:20:33
5646248	873202352	Watching Charlie Wilsons War	2008-07-31 02:00:53
55745883	527788722	Just watched quotCharlie Wilsons Warquot  No badgive it two and half stars  Julia Roberts isnt a good blond	2007-12-24 00:47:44
55809415	857859911	was gonna sleep watching charlie wilsons war again	2008-07-14 09:24:19
4890692	855346938	Soo tired Picked up zach from fb camp today Hes bruised but happy Just took a breather 2nite wmovie charlie wilsons war Sleep now	2008-07-11 05:25:03
5882994	1229616649	Charlie Wilsons War Movie Style 	2009-02-20 05:50:04
34461662	2200210186	Entourage reruns have lost their appealswitching 2 Charlie Wilsons War fyi Julia Roberts shares a bday w Bill Gates Ahmadinejad amp me	2009-06-17 01:35:14
55922491	565989862	Done  John Maki  now seeing Charlie Wilsons War I never realized how much fun it is to sneak into a movie D	2008-01-05 18:43:41
33867092	1618594806	now watching Charlie Wilsons War	2009-04-26 05:10:03
31285498	1887369808	 Watched Charlie Wilsons War really good	2009-05-22 22:06:53
29040765	1031580005	watching Charlie Wilsons War on Boxee check it out at 	2008-12-01 02:35:36
22890503	1726466744	Leaving to go visit  the director of Charlie Wilsons War at Harvard and then on to Ct to see Keith Urban good day	2009-05-07 12:08:16
52316862	3202119129	The whole house smells like Sunday dinner and I am watching Charlie Wilsons War	2009-08-09 03:42:46
7951355	1467901059	 I never knew there was a 2 let alone a 3Howards in the living room watching Charlie Wilsons War for the second time	2009-04-07 05:43:40
15559376	1003139642	Would love Netflix recs for movies to watch BY MYSELF while traveling next week Thinking Atonement Nanny Diaries Charlie Wilsons War	2008-11-13 02:13:16
4348	1173014876	New Review Charlie Wilsons War by maniacdan at 	2009-02-03 14:33:38
16160150	1506401500	Is watching Charlie Wilsons War	2009-04-13 01:37:29
27957446	840332750	Just watched Charlie Wilsons War on DVD excellent	2008-06-21 15:31:25
55763778	1466539750	Root canal recovery movie list Charlie Wilsons War not bad next up The Stone Reader	2009-04-07 00:46:32
55891100	808458955	And watched Charlie Wilsons War and enjoyed it Great dialog and Philip Seymor Hoffman is great	2008-05-11 05:48:47
11765516	851088353	Starting Charlie Wilsons Warhope its not a sleeper	2008-07-06 04:53:39
32284407	1077439460	watching charlie wilsons war this is some great shit	2008-12-25 03:58:21
5585299	818674966	Bath time for the boysalways a big hit  After bath bed time for the boys then Kate amp I are going to watch Charlie Wilsons War	2008-05-24 00:48:53
45603424	630721052	Juno and Charlie Wilsons War are both super good A movies	2008-01-23 04:06:13
9221695	1793746636	Just going to watch Charlie Wilsons War	2009-05-14 10:50:58
28793318	3153331161	Tonights movie choices Charlie Wilsons War or Humboldt County	2009-08-05 21:28:18
3035532	680013112	Super Movie Tuesday  The Kiterunner Charlie Wilsons War amp The Sneakpreview  Path233 Buitenhof Wat kun je anders doen op zon dag	2008-02-05 14:22:06
12070355	1181258928	Watching my third film this week Charlie wilsons war	2009-02-05 22:19:48
18966123	985689464	Watching quotCharlie Wilsons Warquot  Grading spelling papers	2008-11-01 23:00:14
38969304	2889051851	Gust from Charlie Wilsons 	2009-07-28 12:34:39
18532448	538919212	Charlie wilsons war  the palladium	2007-12-27 20:08:51
55969371	595088152	Off to see Charlie Wilsons War	2008-01-13 20:18:03
22386077	2314029821	 Welcome to Twitter I  supplied the research for the Costumes in Charlie Wilsons War Please follow me back on Twitter	2009-06-24 18:21:21
5673052	2672218535	RT  Congrats 2 Charlie Wilson recipient of the Rev Charles Williams Award  IBE Corp Lunchadvocate 4 mens prostate health	2009-07-16 16:52:19
55870601	569722472	I180m going to cinema Charlie Wilson180s War	2008-01-07 00:04:53
17436851	1356948202	 OK I forgive you  pulls aside Now about that Charlie Wilsons War tshirt	2009-03-19 22:05:51
5654962	794850913	I am in bed Charlie Wilson is singing to me Want to be in the warm arms of my gift	2008-04-23 04:24:14
3133045	835594537	 I really liked 27 Dresses Gonna buy it  I hope Charlie Wilsons War is goodgonna watch that next	2008-06-16 00:47:33
2919	796224492	Interesting For the DVD release of Charlie Wilsons War Fark interviews the Charlie Wilson but not h 	2008-04-24 20:41:05
33598018	1677672579	cant sleep  Watching quotCharlie Wilsons Warquot	2009-05-02 10:21:25
22536669	1077402314	Starting to fade but Charlie Wilsons War is on  and there are dishes in the sink  Hmmmtoo many decisions  War wins	2008-12-25 03:27:25
55982455	494605912	Julia Roberts at Charlie Wilsons War premire at Universal City  Yes its her 	2007-12-12 19:32:37
10660771	1101278427	Watching quotCharlie Wilsons Warquot while working	2009-01-07 05:50:10
24960626	1221554341	watched spartan last night about to view the charlie wilsons war DVD now in bed with the wifecant believe we are trillion in debt now	2009-02-18 03:34:36
49590338	3630145766	Just Watch Charlie WIlsons War on HBO That guy amazed me much I hope theres Charlie WIlson in Indonesian Parlement	2009-08-29 19:05:38
6389734	803891970	Charlie Wilsons War Hanks Roberts and Hoffman take on Russians via Afghanistan Hoffman is brilliant Hanks great Roberts mediocre	2008-05-05 14:29:08
4817044	1328667890	Watching Charlie Wilsons War Julia Roberts is VERY watchable	2009-03-14 21:20:47
32639091	1334793059	Watching Charlie Wilsons War for the557th time  Aaron Sorkin dialogue rocks	2009-03-16 04:23:57
4916789	833483041	watching Charlie Wilsons War	2008-06-13 01:17:46
1297075	1035363730	Watching Charlie Wilsons War  I love this movie	2008-12-03 02:06:14
6051043	796305890	Watching the rest of the movie Charlie Wilsons War  Good flick	2008-04-24 23:01:43
14777936	2700343846	Just finished Charlie Wilsons War  Completely awesome movie about a totally terrible situation	2009-07-18 02:57:43
23884332	1431483668	  quotBar review coursequot  pun  Also I cant look at your picture without thinking of Tom Hanks in Charlie Wilsons War	2009-04-01 14:06:10
9031401	883303028	finished watching Charlie Wilsons War and is now watching Blade Runner	2008-08-10 15:00:46
55957825	547896382	Trying  to stay awake thru Charlie Wilsons War it started out good aaron sorkin needed to eat more shrooms writing it	2007-12-31 01:25:03
2051468	590065792	just saw charlie wilsons war sorkin managed to squeeze the bitch slap of america in the last 10 minutes	2008-01-12 04:39:57
55679703	1081943249	 You know you hope I DO own it Its On Demand but the first isnt Sheesh Watching Charlie Wilsons War instead	2008-12-28 06:14:03
5596980	848969274	Watching Charlie Wilsons War and hoping I dont see a red ring of death	2008-07-03 03:54:46
7630575	920801956	Change of plans going to watch Charlie Wilsons War I heard its pretty good but Ive never seen it before	2008-09-14 05:41:54
50889559	2681173146	watching charlie wilsons war and traitor gas goin back down sick and tired its gonna b a helluva end to 09 obama will fix it no doubt	2009-07-17 02:38:53
18345704	1033416710	FrostNixon  Just finished watching the preview Well written and acted  Like Charlie Wilsons War it manages to be very funny at mom 	2008-12-02 02:11:55
33096860	1385138951	Charlie Wilsons War 233 um filme q tem tudo pra ser bom mas por algum motivo n227o me pegou Apesar de ter um Tom Hanks diferente do habitual	2009-03-25 00:46:00
22011424	1058029063	watching charlie wilsons war	2008-12-15 06:08:18
6075016	700182762	Has anyone seen Charlie Wilsons War Comments  Im thinking about finding a late matinee today	2008-02-11 16:52:15
35424592	1055900986	Watching Charlie Wilsons War	2008-12-13 22:24:26
20833383	1063042561	Charlie Wilsons War 710 A remarkable and pertinent true story of a hotter Cold War than we remember Seymour Hoffman owns this film	2008-12-17 16:27:11
7637857	936640779	Renting quotCharlie Wilsons Warquot from iTunes for 699 Its 112 GB 41 minutes remaining	2008-09-27 02:24:14
50404075	3197466787	Recently added movies   Get Smart 2008 Charlie Wilsons War 2007	2009-08-08 20:39:46
17547503	1158134389	wants to watch charlie wilsons war	2009-01-29 10:49:25
30799484	1267951449	watching Charlie Wilsons War	2009-03-02 04:10:07
55809814	821254402	 Charlie Wilsons War and the John Adams miniseries are the two best things Ive seen lately	2008-05-27 22:24:23
29295448	1613282203	Phillip Seymore Hoffman great in charlie wilsons war	2009-04-25 15:28:38
1489100	569367542	Saw Charlie Wilsons War last night  It was the fastest pace movie Ive seen in a long time	2008-01-06 21:32:42
52656642	1645240127	bookstore trip was a success bought charlie wilsons war	2009-04-29 02:32:00
7428692	1468251890	We watched Charlie Wilsons War tonight Great movie	2009-04-07 07:33:14
2192241	1052609300	watched quotCharlie Wilsons Warquot interesting movie seems like it could have been a longer movie and gone into more detail still good	2008-12-12 02:43:32
22253255	1067688195	Charlie Wilsons War  B  more enjoyable than i expected though a tad empty PSH is a genius Sorkin can not NOT be Sorkin	2008-12-19 19:27:38
32290042	2726969940	 buddie watch movie charlie wilsons warnice movieu may like itstarring tom hanks	2009-07-19 20:36:31
9899542	1073842582	Watching Charlie Wilsons War	2008-12-23 06:30:42
8713870	2368654576	Charlie Wilsons War  amazing	2009-06-28 05:49:27
1857730	590092592	watched trailer on new film Charlie Wilsons War Looks good its a Must see	2008-01-12 04:52:51
55714596	2194350813	there is no spoon charlie wilsons war is not that bad	2009-06-16 16:40:41
16206139	1009313358	Watched Charlie Wilsons War and loved it Made me want to run for Congress or join CIAnot sure which	2008-11-17 08:56:57
31188897	1356930452	 troops in Afghseem to understand why theyre there and believe in the mission Unlike IraqHave you seen Charlie Wilsons War	2009-03-19 21:58:42
55884862	644603362	Having aperitivo in Sheffield bar then off to watch charlie wilsons war	2008-01-26 19:29:05
3649084	839195799	charlie wilsons war	2008-06-20 03:36:33
13852199	896978505	really liked Charlie Wilsons War	2008-08-24 02:10:14
31107902	1539631624	OH  amy adams is in charlie wilsons war  now i HAVE to watch it	2009-04-17 04:27:26
126032	802249937	Charlie Wilsons War	2008-05-02 23:11:45
51076887	537273672	Saw Charlie Wilsons Warexcellent	2007-12-27 08:21:28
25862894	2603445209	 og Charlie Wilsons War ej at forglemme Hans f248rste replik i scenen p229 kontoret i CIA er episk Excuse me whatthefuck	2009-07-12 20:55:53
1053668	1030223217	Just watched Charlie Wilsons War  pretty good movie enjoyed it	2008-11-30 03:14:35
9080239	818751016	Enjoyed Charlie Wilsons War Hes got my vote	2008-05-24 03:18:27
50857888	2538235369	Orkar inte mer 228n typ en film nuhar Cloverfield The Invasion Charlie Wilsons War p229 h229rddiskenvilken ska jag se	2009-07-08 20:21:27
4106596	1932637840	Phillip Seymour Hoffman is on two HBOs in Charlie Wilsons War and Almost Famous WHICH ONE IS REAL	2009-05-27 04:53:11
55397435	1069862891	Watching Charlie Wilsons War	2008-12-21 01:50:15
7990607	814538802	making some spaghetti with trader joes veggie meatballsmy goto meal for the past couple weeks going to watch Charlie Wilsons War	2008-05-19 01:01:43
6804316	798122268	 how was Charlie wilsons war	2008-04-27 16:47:13
51361439	823548552	Just had my almost daily 330am shower Now watching CHARLIE WILSONS WAR	2008-05-30 19:03:36
10257911	1460806088	Folding massive amounts of laundry while watching CHARLIE WILSONS WAR  Yeah Sunday night	2009-04-06 03:33:01
1118062	589228652	Charlie Wilsonamp8217s War Well I found this movie a great watch I work in an Afghan related project  	2008-01-11 22:42:42
9713933	845342694	about to watch Charlie Wilsons War  Man Im a boring twitterer  Maybe I dont twitter right	2008-06-28 01:20:02
6866717	2202059777	Watching DVRd Charlie Wilsons War Tom Hanks rocks	2009-06-17 04:10:43
16969640	1108504803	Charlie Wilsons War is thoroughly enjoyable until you think about the consequences	2009-01-10 04:59:17
6979640	1210780432	Watching Charlie Wilsons War	2009-02-14 21:52:19
5389028	834332032	finished watching Charlie Wilsons War good movie	2008-06-14 01:01:04
10723419	1193680028	Watched Charlie Wilsons War for the first time wow continued a TV debate about whether Irish colleges should start charging tuition	2009-02-09 23:48:09
9188390	877902350	Rock Band marathon for  points Watching Charlie Wilsons War Eating salmon amp quinoa Drinking pink summer wine Its a pretty good life	2008-08-05 03:49:51
33674988	1798752322	 Hmm Phillip Seymour Hoffman is so good at playing weird suspicious creepy dudes Loved him in Charlie Wilsons War 	2009-05-14 20:41:09
32321931	1704604617	1st plot point in Charlie Wilsons War When Charlie meets with the Pakistani president They beat him up Thats when it becomes personal	2009-05-05 09:06:19
11706107	877522113	jus saw charlie wilsons war amazin movie	2008-08-04 19:32:57
55730697	543226052	Charlie Wilsons war was okay  It wasnt AMAZING though	2007-12-29 08:41:22
16390537	1534373713	Watchin Charlie Wilsons War	2009-04-16 15:30:54
28273784	3324894295	finished Charlie Wilsons War debating watching Milk Its a night for my favorite political movies apparently	2009-08-15 07:21:10
17403238	1934114251	just watched Charlie Wilsons War greatnow Ill be up all night reading on topics such as the mujahideen amp the ArabIsraeli Conflict	2009-05-27 09:09:35
8055521	909752569	watching charlie wilsons war	2008-09-04 18:56:50
49159225	539495472	at the movies  charlie wilsons war	2007-12-28 00:22:12
41353675	2072235532	Breakfast Space Jame Jurassic Park Charlie Wilsons War The Rock and Die Hard 2  Thats a pretty damn good day to me	2009-06-08 03:38:33
5376372	820610460	Finally ended my streak of bad movies at two Thank you Charlie Wilson and your war	2008-05-27 03:16:38
11446309	863174806	Charlie Wilsons War Damned good so far	2008-07-20 03:39:17
55683565	558051602	blockbustr link Charlie Wilsons War starring Tom Hanks and Julia Roberts 	2008-01-03 11:17:59
482037	808925686	Charlie Wilsons War was great cavalier politics is always entertaining	2008-05-11 23:47:48
50481882	2910142943	Finally saw Charlie Wilsons war after reccos from hazaar people Tom Hanks is superb as usual It had me LOL	2009-07-29 14:22:12
2602212	868656581	spent 30 minutes in blockbuster only to concede to wifey and get Charlie Wilsons War I hope its not half as bad as I think it might be	2008-07-26 01:50:56
1269107	778182157	on the train returning to AhensJust saw quotCharlie Wilsons warquotA really good movie TED for the rest of the trip or until my battery dies	2008-03-27 20:16:57
2594	548102322	Saw quotCharlie Wilsons Warquot	2007-12-31 03:06:05
26236106	1275738190	Had an actual dinner tonight About to watch Charlie Wilsons War Hoping I dont have to engage brain	2009-03-03 21:49:19
5255845	918591497	Finished Charlie Wilsons war on clear play interesting what was accomplished good night	2008-09-12 05:57:08
8540781	877616763	Duh Where have I been Watched Charlie Wilsons War on DVD Just confirmed Ive known amp worked with Charlies sister for many years	2008-08-04 21:29:47
31657442	797808714	charlie wilsons war	2008-04-27 02:48:11
53523876	590853642	Really want to go see Charlie Wilsons War but feeling dreadful 	2008-01-12 11:50:26
5354	2212034875	RT  Netflix just shipped Charlie Wilsons War to me 	2009-06-17 20:35:34
25385983	1769095412	Charlie Wilsons War Ftw	2009-05-12 01:40:57
55837957	802908571	Watching Charlie Wilsons war Excellent movie	2008-05-04 00:53:30
9238984	1765599665	Charlie Wilsons War is the best movie I have seen in years Its fresh in myt head because it was playing at La 	2009-05-11 18:48:03
25483170	1144125337	charlie wilsons WAR	2009-01-24 06:53:33
2214697	828759939	pbr and charlie wilsons war  LIVINlivin	2008-06-07 00:38:10
55900293	539874052	Charlie Wilsons War  Good movie but reminds me that the system is totally broken	2007-12-28 03:10:54
55837361	896904341	Now Charlie Wilsons War Reviews to come	2008-08-24 00:09:51
35251530	3284048231	Charlie Wilsons War DVD at Playcom for amppound299 	2009-08-13 10:30:05
17502454	1692296513	Finally watched Movie Frost and Nixon I liked it Not as a good as Charlie Wilsons War	2009-05-04 02:41:30
55866241	930005655	Just watched quotCharlie Wilsons Warquot hindsight sure is 2020 wonder if the US will ever learn from its mistakes	2008-09-22 03:45:32
55797446	697294232	  I agree  coincidence i saw Charlie Wilsons war yesterday  I am seeing Michael Clayton on dvd  now did you see	2008-02-10 21:53:30
8142479	1110320529	Watching Charlie Wilsons War thanks to the ever awesome 	2009-01-11 03:45:39
36798168	1505248463	needs sleep has had a great day has said the word indeed a lot in the last 13 hours and just watched Charlie Wilsons War and DUG it	2009-04-12 21:51:27
25530278	1329316135	Watching Charlie Wilsons War	2009-03-15 00:12:39
54431550	1055647297	Gosh Charlie Wilsons War is a surprisingly boring film  Wheres the drama Aaron Sorkin the jeopardy	2008-12-13 19:02:05
47896267	3656329074	Charlie Wilson on Tvone  Essence Awards	2009-08-31 01:19:48
55750196	753843072	 Amy Adams was the actress who actually sung the songs in Enchanted and is also awesome  See also Charlie Wilsons War	2008-02-25 03:20:27
2464033	925401063	 Charlie Wilsons War is brilliant Mike Nicols Viginia Wolf Graduate Catch22 directs an Aaron Sorkin script Amazing	2008-09-18 02:06:05
1546171	820758479	Charlie Wilsons War is pretty good	2008-05-27 08:58:47
33955211	2739528097	Saw the movie  now reading the book Charlie Wilsons War great read on my Kindle DX	2009-07-20 14:45:21
6233428	1056143367	Queueing Charlie Wilsons War in the home theater	2008-12-14 01:45:25
2272824	908589114	Just watched Charlie Wilsons War Very good Very good indeed	2008-09-03 21:42:50
22555519	2357815427	Walked 4 blocks to and from the video shop Now Im home with Charlie Wilsons War and FrostNixon	2009-06-27 11:21:04
9237569	1037346851	Watching Charlie Wilsons War	2008-12-04 01:51:42
55868329	525224822	Xmas shopping and now Charlie Wilsons War	2007-12-23 00:35:42
39798966	2011698218	Watching Charlie Wilsons War quotI dont think she likes me every much shes a liberalquot	2009-06-03 02:25:44
44499396	3137361174	Dropped the car off at the mechanic shop now havin pizza amp Charlie Wilsons War w  I really hope its not too expensive to fix	2009-08-05 02:34:08
206838	936572655	quotAfghan freedom fightersquot  hey I remember them From CHARLIE WILSONS WAR	2008-09-27 01:53:13
5425550	797758573	 charlie wilsons war was good	2008-04-27 00:50:51
18770121	3158527297	quotCharlie nobody gives a sht about a school in Pakistanquot YouTube Charlie Wilsons War  trailer  politics	2009-08-06 02:27:04
53371573	1465923479	Interesting reading Charlie Wilsons War Plan from  	2009-04-06 22:58:05
2831	767063246	Charlie Wilsons War made my day	2008-03-05 14:44:09
11147540	2330973087	RT  Ohio dem Charlie Wilson is leaning toward no Burn up the phones2022255705	2009-06-25 19:38:23
6599261	819549364	Star Charlie Wilsons War was a very good movie Highly recommend it 	2008-05-25 14:12:28
55951498	553590022	watched TWO movies today Waitress and Charlie Wilsons War 35 and 25 respectively	2008-01-02 00:43:29
987246	537059612	If you want a nice antidote to the soulfuck of there will be blood let me recommend the somewhat silly charlie wilsons war	2007-12-27 06:31:28
23992508	1403542836	Will Obama finish Charlie Wilson180s War	2009-03-27 21:25:33
10044421	1460493475	watching Charlie Wilsons War	2009-04-06 02:29:04
1390403	545145852	saw Charlie Wilsons War yesterday evening  Required viewing for all Americans before voting in 2008	2007-12-30 01:27:08
31825503	2211169283	Watchn baby mama Im going to watch charlie wilsons war next	2009-06-17 19:31:15
38888212	3216712871	cant seem to be recovering from last night dizziness took over while I watched charlie wilsons war nice movie btw impressive story	2009-08-10 00:41:29
33257566	2037050024	acaba de terminar Charlie Wilson180s War para hacer tiempo hasta el partido Qu233 grandes Nichols y Sorkin	2009-06-05 01:03:20
8173098	997073080	watching Charlie Wilsons War after a long day at a great conference  Really challenged by the message of holding loosely	2008-11-09 03:13:57
25960810	1172294511	en el ave viendo charlie wilsons war amanece	2009-02-03 07:24:27
39025741	1550893537	Movie Reviews Video  Charlie Wilsons War Movie Review   	2009-04-18 14:33:52
10060760	1404218502	 24PP  yeah fair enough  we watched Charlie Wilsons War instead  Was good	2009-03-27 23:37:52
24856422	1267086807	Charlie Wilson is a good movie I couldnt believe it was a true story Sharp dialogue Makes you want to read more about that war	2009-03-01 23:31:57
24580800	3174787039	Charlie Wilsons War was a good movie	2009-08-07 05:45:57
9765074	856528018	Its Saturday its Saturday  Watching Charlie Wilsons War  Looks great so far	2008-07-12 14:14:10
55927720	813233897	Just finished Savages amp about to start Charlie Wilsons War  Its Phil Seymour Hoffman night	2008-05-17 01:02:34
36832877	915277998	watched Charlie Wilsons War last night was good weird though watching real war footage inserted into Hollywood comedy drama	2008-09-09 16:43:57
8738872	819872164	Great bbq potato casserole baked beans fruit mangoes pineapple kiwis papayas with chocolate dip Going to watch Charlie Wilsons War	2008-05-26 02:06:35
2671990	916942608	Watching Charlie Wilsons War just made supper for Lydia and Lucys asleep	2008-09-10 21:58:37
52530390	854106053	BP News     T0day Birthday 0f Saving Private Ryan  CASTAWAY F0RREST GUMP Charlie WiLsonWar Yes wednesday JULY9 T0M HANKS 	2008-07-09 22:11:34
55762484	1083075178	Watching Charlie Wilsons War with 	2008-12-29 00:31:48
55994098	574640102	Charlie Wilsons War and How to Get Things Done Truth is Ive got over 100 feeds in my RSS reader  	2008-01-08 06:58:00
41564992	3211656061	just watched Charlie Wilsons War	2009-08-09 19:00:17
55657945	1365675301	vraag zich af of ie Charlie Wilsons War nou wel of niet gezien heeft	2009-03-21 13:14:03
9926403	851080621	Facebook status Brian cant believe Henry slept long enough to almost watch a full movie Charlie Wilsons War	2008-07-06 04:35:05
48480902	2257090191	just watched charlie wilsons war  good film shows how cruel the russians were and how by walking away we created a terror world	2009-06-20 20:46:47
55758290	833860696	Watching Charlie Wilsons War	2008-06-13 13:27:15
47480433	3252854752	Charlie Wilson to Joanne Herrings war f	2009-08-11 21:51:12
55723396	794606156	917943948945956949 964959 Charlie Wilsons War 922945955972	2008-04-22 21:16:27
55946823	652208272	fell asleep during Charlie Wilsons War not from boredom but from exhaustion	2008-01-28 20:52:26
2763344	529184702	Charlie Wilsons war is a lot better than the last Tom Hanks Wilson Christmas movie the one where his only friend is a bloody volleyball	2007-12-24 12:55:08
11818823	874045874	 AK47s arent very effective You should see quotCharlie Wilsons Warquot	2008-07-31 21:03:20
21586341	2063467641	 ever seen Charlie wilsons war Philip Seymour Hoffman is rocking some serious moustache action Youd be proud 58389	2009-06-07 09:46:40
43213689	2608784425	O filme Charlie Wilson180s War mostra c bastante detalhe esta q foi a maior e mais cara opera231227o secreta da CIA	2009-07-13 03:55:56
42230918	1812543208	 Lil Kim  Charlie Wilson  TPain	2009-05-16 01:52:10
7404723	1045651159	Finally saw Charlie Wilsons War Man I love Aaron Sorkins writing	2008-12-08 20:05:15
55897486	795782734	Really liked Charlie Wilsons War  I am going to watch it twice 	2008-04-24 08:36:12
55700718	3311648259	The night might be spent watching Charlie Wilsons War  and Wall Street 	2009-08-14 17:31:01
3205755	1096432420	 I saw Charlie Wilsons War Loved it Still though Mad Men sans Weiner is like West Wing sans Sorkin	2009-01-05 04:16:00
6077666	795608833	Watching charlie wilsons war with Chrissy	2008-04-24 02:19:27
55955679	937828727	 Watching Charlie Wilsons War	2008-09-28 05:10:55
25475770	1148218838	Just watched Charlie Wilsons War Great flick	2009-01-26 04:00:03
2715	596396562	just saw Charlie Wilsons War when Julia Roberts was on screen I could only focus on her odd eye makeup SCARY	2008-01-14 05:31:59
30207262	1254888955	Why is Oliver North Rknown as a war mongering baby killer and Charlie Wilson D know as a great American leader of congress until 1997	2009-02-26 19:21:49
44742377	775808392	thinks Charlie Wilsons War is a good movie	2008-03-23 14:53:28
26898695	2235904826	charlie wilsons war  	2009-06-19 09:22:02
31628461	1404299918	Sounds like Obama is ready to fight Charlie Wilsons War the right way	2009-03-27 23:54:45
55760391	594217092	I just woke up and I have quotShilohquot by Neil Diamond in my head I want to see quotCharlie Wilsons Warquot today and grocery shop Woot	2008-01-13 14:16:06
24604401	1169231905	wants to watch Charlie Wilsons War on dvd	2009-02-02 08:09:48
46652729	863253827	Finally saw Charlie Wilsons War  good flick	2008-07-20 06:28:26
8739780	829381026	Superbad bad  Charlie Wilsons War bad  Walk Hard good	2008-06-07 22:05:23
23509687	1189473491	Charlie Wilsons War was good as well Not sure how it compares to the book really should get round to reading it at some point	2009-02-08 19:03:38
4063213	809001963	Charlie Wilsons War and naptime ahead	2008-05-12 02:20:56
35217609	1388249946	watching Charlie Wilsons war with my hubby	2009-03-25 14:44:05
50112329	811545672	Watching Charlie Wilsons War with 	2008-05-15 01:45:37
8717828	3706167988	Watching Charlie Wilsons War	2009-09-02 05:56:02
55637527	525090322	Just got back from finishing Xmas shopping and seeing Charlie Wilsons War The flick is really good	2007-12-22 23:19:20
40152659	3534116444	Charlie wilsons war tells the story of the birth of taliban It shows how the US funded the 911 	2009-08-25 12:58:22
34669358	1754682046	watched Charlie Wilsons War last night  overall very good but Philip Seymour Hoffman as Gust Avrokotos was the only great part	2009-05-10 14:03:47
54065512	550755172	Charlie Wilsons War this afternoon	2007-12-31 23:11:56
15427957	1820916329	Folks should watch last 15 min of Charlie Wilsons War see how we couldve avoided todays mess of a war in Afghanistan	2009-05-16 23:01:17
7949650	808962769	 Charlie Wilsons War	2008-05-12 01:06:17
55984811	2297604502	Btw Charlie Wilsons War  is highly recommended starting to get real pertinent to current affairs	2009-06-23 17:38:52
33024210	2587795687	Watching Charlie Wilsons War  v funny film esp if any exp of working in politics Male MPs would lose balls if talked to staff that way	2009-07-11 19:39:42
7224598	805283600	Charlie Wilsons War DVD is now out  get it here 	2008-05-07 06:40:59
49590338	3630084289	 Hi there nice to tweet u I just saw charlie wilsons war  on HBO i just curious bout that nab	2009-08-29 19:02:12
34637199	2270946230	 I manicure a DVD  on order as not in stock Charlie Wilsons War amp an 1638 T Shirt 3 kids 2 cards	2009-06-21 22:42:20
55908211	522996372	just got back from Charlie Wilsons War  pretty good	2007-12-22 02:57:01
272777	882923847	watching charlie wilsons war	2008-08-10 01:47:41
56021681	525699602	Saw Charlie Wilsons War V good Philip Seymour Hoffman is amazing	2007-12-23 05:31:30
6431437	1166561514	watching Charlie Wilsons War on Boxee check it out at 	2009-02-01 09:53:24
43975025	2061657266	Watching Charlie Wilsons War I miss the young Tom Hanks who was fun and awesome	2009-06-07 04:19:51
5340210	797734646	bought Charlie Wilsons War dvd who buys dvds any more	2008-04-26 23:51:39
29040765	1031689630	recommended Charlie Wilsons War on Boxee check it out at 	2008-12-01 04:02:33
7473873	799999871	just watched charlie wilsons war not sure how i felt about it	2008-04-30 01:38:15
55907808	876911466	How Joanne Herring won Charlie Wilsons War 	2008-08-04 04:38:08
2638831	802287327	watching Charlie Wilsons War	2008-05-03 00:24:48
10832892	845378959	Watching Charlie Wilsons War with 	2008-06-28 02:40:41
26837237	1187571889	Just watched Charlie Wilsons War  what a great movie scary though	2009-02-07 23:46:30
35818837	1742944466	watching Charlie Wilsons War  Aaron Sorkin is unmistakably my favorite screenwriter of all time inspirational genius	2009-05-09 02:18:21
31773506	1885241294	Was pissed off in the theater during Charlie Wilsons War Thought it was a movie about The Gap Band	2009-05-22 18:26:57
6576191	1128511189	I cant believe how good Charlie Wilsons War is Phillip Seymore Hoffman is stellar	2009-01-18 17:43:42
49357679	881570584	360 pages into the late George Criles Charlie Wilsons War The book is so much better than the movie	2008-08-08 14:52:49
21185693	2449717699	I got Charlie Wilsons War at Target today for 475 Ratingsreviews are telling me its a decent movie	2009-07-03 05:24:46
20945107	1125279562	Charlie Wilsons War is just ending on HBO Love that Julia Roberts has greyhounds as her beloved pets in that movie	2009-01-17 01:57:01
5345217	956145843	Watched Charlie Wilsons War  Damn Do I buy it for my conservative mother as a bday present this week or does she disown me if i do	2008-10-12 03:33:47
373514	525478152	Just saw American Gangster It was awesome Charlie Wilsons War tomorrow How was it 	2007-12-23 03:10:57
47283336	2726293181	Watching Charlie Wilsons War with cheese and crackers He isnt at war with the cheese and crackers tho he has attacked several buffets	2009-07-19 19:44:16
55844918	845662276	watched Charlie Wilsons war The great debaters semipro Sweeney Todd and 10000 BC on the plane back home enjoyed the first 4	2008-06-28 14:56:39
56023455	993326438	Watched Charlie Wilsons War last night  Good Flick	2008-11-06 14:34:45
39272050	2292088680	is vodka and charlie wilsons war sleeping tattooed girls sunkist and kamel reds katrina u haunt me lolita I love u	2009-06-23 08:24:36
1610116	1035561834	Just watched charlie wilsons war I recommend it	2008-12-03 04:22:15
55945274	542443252	Heading to a movieI think Ill see Charlie Wilsons War	2007-12-29 01:55:33
18004347	1791328543	Best believe Im googling who this bad bitch is in charlie wilsons war	2009-05-14 02:57:16
27466129	1372070157	Just sitting down to watch Charlie Wilsons War Seen it before but definitely worth a rewatch How a man should be	2009-03-22 21:05:40
6481770	820471521	watching Charlie Wilsons Warconsidering I suffered from another narcoleptic episode last night	2008-05-26 22:32:18
1795047	592317662	Juno was hilarious  I liked it a lot  Then saw Charlie wilsons war  which was ok	2008-01-12 22:17:54
18818499	1047892482	Der Krieg des Charlie Wilson auf DVD habs noch satirischer und b246ser erwartet aber ist daf252r ist ja alles war  Julia R sucks 610	2008-12-09 21:37:34
29593788	1238226161	Just watched Charlie Wilsons War really liked it Tom Hanks and Julia Roberts were great	2009-02-22 21:13:39
5651	2603873676	got80s total movie day watched Charlie Wilsons War then The Reader now Ghostbusters the firstfb got80s 	2009-07-12 21:30:00
54183063	998241021	Just watched Charlie Wilsons War  Amusing movie Sad how it turns out though We screwed up You break it you bought it	2008-11-10 03:15:55
3339458	1806098483	Just finished watching Charlie Wilsons WariLike	2009-05-15 13:55:13
16546530	2080019649	 Charlie Wilsons War is a pretty good movie	2009-06-08 19:23:35
26216780	1729829850	Blog Charlie Wilsons War 2007 Review posted 	2009-05-07 18:56:57
14319087	3143253955	I uploaded a YouTube video  Charlie Wilson War HD Trailer 	2009-08-05 10:40:20
20525417	1066123025	Little ones in bed husband is out at Festivus Im going to watch Charlie Wilsons War and veg Snow storm coming so Ill clean tomorrow	2008-12-19 00:52:59
5574	2476365106	melihat Charlie Wilsonamp39s War Agak lucu propaganda era perang dingin Pada sub judul berusaha untuk mempelajari Svenska	2009-07-05 00:57:03
25715835	2577531346	Phillip Seymour Hoffman is a fucking god in Charlie Wilsons War See it if you havent	2009-07-11 01:56:18
4048202	835323684	Generally hate political movies but watched Charlie Wilsons War last night and loved it	2008-06-15 15:35:54
13003307	1060219794	 Yeah still havent seen Charlie Wilsons War Damn that Dragnet rap song with Hanks and Aykroyd is the balls	2008-12-16 07:42:00
9284353	830590860	Charlie Wilsons War is pretty darn good	2008-06-09 16:23:04
3056	808614866	timriley in Canberra Australia Thoroughly enjoyed Charlie Wilsonampaposs War at the ANU Film Group tonight I recommend it	2008-05-11 13:08:29
10202416	1597656803	L1stening To Beautiful feat Pharrell amp Uncle Charlie Wilson by Snoop Dogg warbler lastfm 	2009-04-23 21:01:21
1269448	1265706784	 Oh and on Friday night we stayed in and watched Charlie Wilsons War which I really liked Have you seen it	2009-03-01 16:02:55
7484844	813784090	Saw two movies today Prey and Charlie Wilsons war my rating Prey  310  Charlie Wilsons war  7510	2008-05-17 21:01:19
53876817	614309292	Going out to lunch with dad a little lesson planning for sunday laundry then possibly Charlie Wilsons War	2008-01-18 17:17:55
46026544	2256052195	well i had a really gd eve last niteamp2day went quite wellgot a dvd2watchcharlie wilson warhope it aint crap	2009-06-20 19:11:19
5819461	922137720	 Lehman Brothers doesnt resound with me but neither did Charlie Wilsons War in Afghanistan till 911	2008-09-15 14:45:52
15973668	1128301202	Finished George Criles Charlie Wilsons War  What an amazing book	2009-01-18 15:36:47
9987362	1139317654	Totally quoting PSH from Charlie Wilsons War when a heartfelt quotWell Seequot are the only words to sum it up	2009-01-22 15:39:48
55950836	798407165	Charlie Wilsons War was pretty good	2008-04-28 02:51:19
32153882	1025598855	Watching Charlie Wilsons War	2008-11-27 01:18:29
1118062	589192942	Charlie Wilsons War Well I found this movie a great watch I work in an Afghan related projec 	2008-01-11 22:29:13
39604064	2810278001	Yeah well Id like to take a moment to go over the several ways youre a douchebag Charlie Wilsons War	2009-07-24 01:59:01
55949049	762406422	Anybody seen Charlie Wilsons War  Opinions	2008-02-26 21:39:39
18280478	2869733774	RT  Anita Baker  Charlie Wilson free concert tonight Brooklyns Wingate Field for MLK Jr concert series 	2009-07-27 12:53:55
9912864	2813030896	 have you seen Charlie Wilsons War yet	2009-07-24 04:50:22
55965524	847313307	Watching Tom Hanks on Oprah talking about Charlie Wilsons War A good movie	2008-07-01 02:03:00
9116084	840776254	Watching charlie wilsons war	2008-06-22 07:32:54
2669955	1164954580	My Netflix queue The Dark Knight Superbad Guru Charlie Wilsons War There Will Be Blood Elizabeth The Golden Age Veronica Guerin	2009-01-31 18:03:15
56023533	887945985	 I can vouch for Charlie Wilsons War Entertaining well made and I  learned stuff without trying	2008-08-15 00:00:59
48971886	810845604	i enjoyed charlie wilsons war	2008-05-14 06:00:30
34087608	3269423331	New Blog Entry quotCharlie Wilson to Joanne Herring8217s warquot  	2009-08-12 17:49:29
41642790	2834076017	 Had loads of films monsters bs aliens Charlie wilsons war grand torino duplicity and 17 again are the ones I watched	2009-07-25 06:52:34
48449868	1087243077	 I would definitely recommend Charlie Wilsons War esp if you are a Philip Seymour Hoffman fan	2008-12-31 03:26:00
14012723	1042805800	watching Charlie Wilsons War movie is only ok so far but Tom Hanks and Julia Roberts rock	2008-12-07 01:42:39
12011345	1261188711	Charlie Wilsons War is intriguing If thats really how we funded the Cold War I cant imagine the back door deals done in Iraq	2009-02-28 05:16:18
16206780	1174614371	is watching Charlie Wilsons War  PSHoffman is good in that	2009-02-03 23:36:18
41665871	3690551086	History International Channel is the best true story of Charlie Wilson 2 hour special on the making of Star Wars 4 hours of the Tsars	2009-09-01 15:42:08
19786677	1044613065	burning the midnight oilwatching Charlie Wilsons War	2008-12-08 06:08:56
31912351	1603190607	Secretary Clinton hit the nail on the head BLOW BACK Charlie wilsons war 	2009-04-24 12:33:35
30095677	796902824	working on theory that Charlie Wilson Charlie Wilsons war and Mr Wilson from  quotDennisquot are one and the same Martha was a go between	2008-04-25 17:35:38
3479445	531031302	seeing Charlie Wilsons War with the family	2007-12-25 03:00:57
55714108	630184432	re oscar nominations  meh would have swapped juno for charlie wilsons war	2008-01-23 01:01:02
39874974	1563278795	just watched charlie wilsons warwow that was a good movie	2009-04-20 05:16:26
19986836	2031682247	Saw Charlie Wilsons War and The Battle of Algiers consecutively my brain is befuddled by the extreme perspectives 	2009-06-04 17:10:05
52409488	2825934482	is whatching Charlie Wilsons War with some chips beer and a cosy wife	2009-07-24 21:07:17
9381118	1089351446	Time now for Charlie Wilsons War	2009-01-01 03:50:53
55712477	922384881	gaat downgeloade Charlie Wilsons War kijken	2008-09-15 18:23:36
13126037	1032091415	caught Charlie Wilsons War starring Tom Hanks last night on cable TVvery good movie recommend	2008-12-01 11:30:03
56013004	869485828	Gearing up to watch Charlie Wilsons War via the xbox	2008-07-27 04:05:34
14554375	1145737693	After the girls go to bed well watch Charlie Wilsons War	2009-01-25 01:04:35
23244102	1091047971	On a movie BINGE this fine dayCharlie Wilsons War is on tap	2009-01-02 04:34:24
9318592	904124535	Going to Vicky amp Daves to watch Charlie Wilsons War	2008-08-30 17:21:09
21495944	1127537515	Charlie Wilsons War an interesting political biopic with no real feeling of conflict and an open ending Message Way to fuck up America	2009-01-18 04:06:02
55766512	1498475019	gaat kijken naar Charlie Wilsons War	2009-04-11 19:03:02
6008086	1114702485	Watching Charlie Wilsons War	2009-01-13 02:39:25
56005532	564081842	utterz  Charlie Wilsons War Movie Review A quick review of Charlie Wilsons War  well direct	2008-01-05 03:09:02
2739470	856920856	Watching Charlie Wilsons War Great flick	2008-07-13 02:01:24
31143093	2491465279	Charlie Wilsons War another great piece of storytelling from Aaron Sorkin Need to stop watching tv and start getting ready to leave	2009-07-06 03:15:45
55846472	829887451	 Charlie Wilsons War is interesting movie Another great one is Before The Devil Knows Your DeadPhillip Seymour Hoffman rocks	2008-06-08 18:01:16
1285730	524776262	Going to see quotCharlie Wilsons Warquot tonight  Christmas shoppings done now its time to relax learn more Rails drink and play Halo 3	2007-12-22 20:16:47
6958201	2449785242	Charlie Wilsons war caused enough problems lets hope we dont ever have to deal with Mike Pences War 	2009-07-03 05:31:19
4412	1206527905	Watching Charlie Wilsons War	2009-02-13 14:50:55
26956184	1193202732	watching and liking charlie wilsons war	2009-02-09 21:10:43
38851524	2797383498	Julias hair in Charlie Wilsons War looks like someone ate pasta and threw up on her head	2009-07-23 12:42:09
37864974	1854626288	Watching Charlie Wilsons War	2009-05-20 02:10:02
20496230	1035346513	Watching Charlie Wilsons War Not as good as I thought it would be but willing to finish	2008-12-03 01:54:27
9534440	1078299738	watching Charlie Wilsons War	2008-12-25 19:20:52
33042120	3075520102	Sticking on a DVD for the evening Charlie Wilsons War	2009-08-01 20:46:22
9028494	914210122	just watched charlie wilsons war  neat movie the cold war and US role in it good movie	2008-09-08 19:36:25
55988640	813320410	these things happened we changed nations but fd up the end game Charlie Wilsons War A must see for some perspective	2008-05-17 03:56:31
3440	858959737	New source found Charlie Wilsons War  DivX   	2008-07-15 13:03:00
30951404	1412961724	Charlie Wilsons War good movie I recommend it  Watching the Cavsmavs game til the tourney starts  Gonna get another med ball workout in	2009-03-29 17:25:15
12940260	2260071681	Taking a bath and watching Charlie Wilsons War	2009-06-21 01:37:24
14963856	1035236467	oh  I have lost faith MANY requests over months and you still have my role in Charlie Wilsons War listed as the wrong character 	2008-12-03 00:38:00
19117920	2663200199	Hoping MW watched Charlie Wilsons war on video Great flick	2009-07-16 03:11:21
28114614	1372163855	charlie wilsons war and some carrot cake why is it the end of the weekend already	2009-03-22 21:27:23
29403217	2018418285	LOVED Charlie Wilsons War  I know Im a little behind 	2009-06-03 16:56:13
2654892	813989635	Philip Seymour Hoffman was outstanding in Charlie Wilsons War	2008-05-18 04:37:35
9189329	925372515	Watching Charlie Wilsons Waranyone seen thumbs up or down	2008-09-18 01:35:39
9894326	836467615	Watching Charlie Wilsons War with my wifeher choice	2008-06-17 01:40:00
22979745	2261134774	is watching Charlie Wilsons Warpretty funny so far but doubt someone like him could be in Congress now	2009-06-21 03:19:02
55242570	539735682	Charlie Wilsons War was worth seeing	2007-12-28 02:08:02
3668399	786722003	Why it takes me forever to read any good book is simple kids I am about to finish Charlie wilsons war Grab it if you can	2008-04-10 20:50:34
18075865	1004818882	Watching Charlie Wilsons War	2008-11-14 02:21:34
7839309	796016070	watching movies all day Walk Hard Sweeney Todd Juno Charlie Wilsons War its all so good	2008-04-24 15:27:37
16524509	976503322	Is wondering how no one found out about charlie wilsons war	2008-10-26 20:44:14
56015436	797754092	Watching Charlie Wilsons War with Sue Amazing how liberal Hollyweird have twisted the story	2008-04-27 00:39:57
52776607	853055415	charlie wilsons war kijken op   goede film hoorde ik	2008-07-08 18:44:47
7644932	835456252	watching Charlie Wilsons War	2008-06-15 20:04:34
15924564	1060215603	Watching Charlie wilsons war	2008-12-16 07:37:25
19364412	1286380326	watching Charlie Wilsons War	2009-03-06 01:56:32
55899239	2669300211	Chris Denham Charlie Wilsons War Shutter Island  I envy Scorceses energy	2009-07-16 13:19:44
19047950	1052786113	Deciding between Charlie Wilsons War Transformers and Smallville for tonights entertainment	2008-12-12 04:41:48
5884072	1088992568	 Get the book quotCharlie Wilsons Warquot its much better than the movie and eyeopening	2008-12-31 23:36:22
52394075	819772727	just saw Charlie Wilsons War which seemed to suggest that the US causes all the worlds problems but also can also solve them at will	2008-05-25 22:33:33
34196716	3247201248	Take everything into consideration and watch Charlie Wilsons WAR	2009-08-11 15:41:14
55948376	567387232	Charlie Wilsons War was a good movie	2008-01-06 05:31:04
599860	566961102	Redskinsoh well  Sittting in McGintys waiting for my date to watch Charlie Wilsons War across the street  Drinking Black Bush	2008-01-06 02:18:38
26633680	1632525011	Just watched Charlie Wilsons War very very good Norwich 0 Reading 2 even better	2009-04-27 20:59:56
12894006	924778639	I returned A movie to blockbuster and got charlie wilsons war in exchange   i also found out abt that charge  she said it was credit 	2008-09-17 15:56:40
3803027	810524134	Philip Seymour Hoffman is amazing in Charlie Wilsons War Good flick it is carried totally by him Hard to believe Hanks got out shined	2008-05-13 20:59:11
35785449	3656158877	Charlie Wilsons War was OK at best  Highly disappointed	2009-08-31 01:10:42
55391307	542262522	watching Charlie Wilsons War	2007-12-29 00:31:30
12405535	877479606	  We just watched him in quotCharlie Wilsons Warquot  Man he is good	2008-08-04 18:41:00
22378234	2330971608	RT  Ohio dem Charlie Wilson is leaning toward no Burn up the phones2022255705 via 	2009-06-25 19:38:16
49357679	864339289	watching Charlie Wilsons War Participant makes great films	2008-07-21 17:39:57
55908494	625852802	2008 seems to be an awesome year for movies Atonement The Kite Runner PS I Love You Charlie Wilsons War etc Good times 	2008-01-22 00:34:24
55986727	793118592	cleaned up the party stuff all in dish washer time for a movie again watching charlie wilsons war	2008-04-20 19:08:08
55169809	1030439056	Watching Charlie Wilsons War still not certain if this movie sucks or not	2008-11-30 07:07:51
3098	813640822	terminando de ver Charlie Wilsons War	2008-05-17 16:22:45
29399702	1235999766	just saw charlie wilsons war on to dr dog at the social	2009-02-22 02:16:28
5072	1762107256	3am Charlie Wilson S War The Band Wagon Vizio Vs370e Mhsaa Wi Unemployment Wicked Julia 	2009-05-11 10:55:25
15033736	902171093	Charlie Wilson on the Foreign Service In a scene near the end of the movie quotCharlie Wilsons Warquot af 	2008-08-28 22:01:43
18146116	1291598603	quotCharlie Wilsons Warquot was also excellent Ive had a few beers 	2009-03-07 04:08:00
53112421	1218913923	 Also see Charlie Wilsons War It explains fairly well why the bureaucracy of democracyspreading tends towards fiasco	2009-02-17 13:58:03
276049	863975595	Charlie Wilsons War 2615935498201543711719968234503520135242332563702727171303402969422580652922516533021303323325820839245152057040670229092010765311	2008-07-21 07:38:21
10724628	908423025	 has an important piece by former Rep Charlie Wilson yes of Charile Wilsons War fame 	2008-09-03 18:58:45
6412541	803346132	Watched Charlie Wilsons War I really liked it It got generally favorable reviews   what did you think 	2008-05-04 18:50:42
1799168	2202582795	Charlie Wilsons war the movie has gritty pace but i think i have seen enough of these war movies nothing fresh 355	2009-06-17 05:02:50
10508744	1588753507	Abandoned The Apprentice in favour of Charlie Wilsons War  a very good choice I feel	2009-04-22 22:17:48
20734079	1211036831	Saw Charlie Wilsons War tonight Well acted and well intended but ultimately onesided and simplistic	2009-02-14 23:57:58
15540818	957201085	watching charlie wilsons war i hope whoever did tom hanks wardrobe won an award	2008-10-13 03:58:21
55637570	776269800	Que bien ha estado Charlie Wilson War aunque se pasan unas cuantas cosas por el forro incluyendo que los stingers eran Made in USA	2008-03-24 15:46:32
37989710	2330963009	RT  RT   Ohio dem Charlie Wilson is leaning toward no Burn up the phones2022255705	2009-06-25 19:37:38
24988867	2180968363	Watched Charlie Wilsons War this weekend  Phil Hoffman steals the show again	2009-06-15 18:11:10
37406478	3159846551	CIA payroll master toook Charlie Wilson into Afghan talking to kidnapped journalist Michael Ware on Bill Maher	2009-08-06 03:40:47
3792237	840867037	LouderVoice Review Charlie Wilsons War 	2008-06-22 11:37:47
41922580	1733810690	Just finished watching Charlie Wilsons War  Good movie	2009-05-08 02:41:22
10549201	3463317593	Watched Charlie Wilsons War and FrostNixon tonight part of my taking it easy initiative Maaaan the  Cold War is so INTERESTING	2009-08-22 01:38:34
22127387	538706492	Charlie Wilsons War at 1150 at Westgate	2007-12-27 18:33:52
7263744	863748703	watching charlie wilsons war	2008-07-21 00:07:58
28710960	1312314035	so Zip is sending Charlie Wilsons War is it good	2009-03-11 19:51:51
55947442	832639642	About to watch Charlie Wilsons War	2008-06-12 01:21:16
55969662	621392362	charlie wilsons war based on a true story	2008-01-20 21:43:24
21011035	1098161697	Charlie wilsons war missing texas but so glad i dont have an accent	2009-01-05 22:50:39
1174484	528411762	got out of Charlie wilsons war and want to do something good in the world	2007-12-24 05:58:48
482037	808864379	Just watched 27 dresses with the mom Ms Heigel is H O T  Charlie Wilsons War is next	2008-05-11 21:38:36
15238959	1064465699	Yes Brittani Charlie Wilsons War is AMAZINGIm watching Frasier Relaxing	2008-12-18 06:44:24
4354	1177967894	Family Video Used DVD Sale From 3  Free Shipping Charlie Wilsons War Disturbia Hot Fuzz Fracture Zodiac 	2009-02-04 23:19:48
2188123	869828493	Watching Charlie Wilsons war on my new HDMI player	2008-07-27 16:37:40
55458371	645372492	Would also like to see a movie tonight Perhaps Charlie Wilsons War	2008-01-27 00:59:06
21425022	1414762013	Watching Charlie Wilsons War	2009-03-29 23:53:52
6961922	1254997954	moviethursday continues with Charlie Wilsons War I know nothing about this movie	2009-02-26 19:49:08
55864805	803410520	Charlie Wilsons War  What a great movie	2008-05-04 21:05:28
34493548	2096028231	Catchin up on the days tweetsHad to fire clean the office warehouse and deal with the PIA quotthatquot guy Watchin Charlie Wilsons War now	2009-06-09 23:22:20
30778359	2603768926	On the road again watching charlie wilsons war and looking over paper work Im a paper chaser ya dig Me and  getting i 	2009-07-12 21:21:29
12113424	2136557519	 Rachel Getting Married FrostNixon Reign Over Me Charlie WIlsons War W	2009-06-12 20:54:21
1529822	616202092	charlie wilsons war is political with a mild dash of humor oh so delightful	2008-01-19 05:29:26
33259625	953340816	Magda is watching Charlie Wilsons War Im doing paperwork	2008-10-09 21:51:02
7385281	1635586514	After seeing Phillip Seymore Hoffman in Charlie Wilsons War I am convinced he could do any role  Such a great actor	2009-04-28 03:05:48
8517458	1556274610	vi charlie wilsons war aunq me qued233 dormida en la mitad haha	2009-04-19 05:13:56
26307195	2385084768	17 price drop to 1199 Charlie Wilsons War 	2009-06-29 08:22:48
24950748	3153790619	 charlie wilsons war Just enjoy philip seymour hoffman	2009-08-05 21:54:26
6212182	1031445470	cant get enough of the movie Charlie Wilsons War	2008-12-01 00:46:48
9177440	3368956865	just watched Charlie Wilsons War and enjoyed it thoroughly	2009-08-17 21:08:46
3133045	835670650	Just watched Charlie Wilsons War Good movie Before that watched 27 Dresses good movie too Had a 3rd to watch but too tired now lol	2008-06-16 03:13:32
55908402	831959455	Watching charlie wilsons war	2008-06-11 06:42:59
55638511	2578242300	This weekends movies to watch Charlie Wilsons War One Missed Call Push Confessions of a Shopaholic  and The International	2009-07-11 02:52:40
39440785	3301838169	In Vegas at the Hoodie awards with Charlie Wilson      	2009-08-14 04:45:49
38745920	1854688984	Weve done it for decades I dont see it ever ending price tag is just going to keep going up Charlie Wilsons War but now just public	2009-05-20 02:15:56
9469449	2264184056	Charlie Wilsons War Grandioser Film Toll gespielt von Hanks Hoffmann ist sowieso 252ber jede Zweifel erhaben Unterhaltung 	2009-06-21 10:03:07
9454889	935355454	Obviously I am also watching quotCharlie Wilsons Warquot with  and Sam	2008-09-26 05:35:55
3936182	907564675	 I have seen a little bit of the west wing and what I have seen I liked i also liked SportsNight and Charlie Wilsons War	2008-09-03 02:04:10
12100697	2712941237	Watching Charlie Wilsons War I might watch the whole thing 	2009-07-18 22:56:26
25633848	1369458393	Laying It DownCharlie Wilson Playing in the BackgroundWarm and Cozy	2009-03-22 06:17:16
27105625	2275773469	late night Tom Hanks double feature charlie wilsons war and da vinci code  wish i had bachelor party next	2009-06-22 06:37:49
3092132	851015543	Charlie Wilsons War Friggin awesome	2008-07-06 02:05:54
56022412	1077558735	 Im watching Charlie Wilsons War And I started it about an hour ago	2008-12-25 05:39:12
55846445	832747220	Watching Charlie Wilsons War Phillip Seymour Hoffman is of course genius	2008-06-12 04:24:55
27263196	1148158399	laughing at Charlie Wilsons War yet again Another amusing background film for presentation writing	2009-01-26 03:27:59
53854207	798219106	having an amazing Sundayfinished HalfLife 2 Ep1 in one sitting restarted Bioshock then watched Charlie Wilsons War amp Cloverfield	2008-04-27 20:08:50
33891945	1413120615	just watched Charlie Wilsons War which has been in Tivo since 122 Mostly ignored montage scenes Hair amp makeup best part of movie	2009-03-29 18:00:21
15238959	1060156147	Watching Charlie Wilsons War	2008-12-16 06:35:02
55877940	1197960973	Just watched Charlie Wilsons War  Not sure what to think about that one	2009-02-11 03:48:19
14316879	1243311839	Watching quotCharlie Wilsons Warquot	2009-02-24 02:23:28
7983335	1029970680	Im trying to decide between watching Charlie Wilsons War tonight or start reading Team of Rivals	2008-11-29 23:14:58
5683	2677798285	started Charlie Wilsons War	2009-07-16 22:52:23
5319858	1626643864	 You wanna watch Charlie Wilsons war Got it in HD on the DVR	2009-04-27 05:17:07
8321354	1060062174	 Had a feeling you would Let me know what you think about Charlie Wilsons War after you see it	2008-12-16 05:13:50
29312048	1234235967	 Havent seen Charlie Wilsons War but the book was good  Bet it is better than Karate Kid 3 and Caddyshack 2 combined	2009-02-21 14:40:25
55734953	800107101	Been a good night  Helped a Friend move Watched Charlie Wilsons War with the lovely and Talented Trina and wrote code till 1 AM Nerd	2008-04-30 04:44:41
3663767	1144280061	Chaos Theory aanradert Charlie Wilsons War zonder ondertiteling en mompelende Tom Hanks is helaas niet te volgen	2009-01-24 09:26:22
15728103	1381474826	On the subway A man wering a Charlie Wilsons War hat and a child who fell asleep chewing gum and blowing a bubble	2009-03-24 12:44:37
35294604	1635826492	Movie Charlie Wilsons WarSocial marketing networking at its top layer On HBO watch if a Texas political history or socialite fan	2009-04-28 03:35:30
47221563	2726169665	I still havent watched Charlie Wilsons War  Perhaps after my Uno orientation tonight	2009-07-19 19:34:10
55961844	2655463565	saw charlie wilsons war and was blown away by hoffmans performance last heard such strong lines in burn after reading and in bruges	2009-07-15 18:34:21
55996891	2306910417	 I loove Sorkin Charlie Wilsons war aside he rarely puts a foot wrong IMHO Ill go see it 	2009-06-24 06:13:17
17800586	1449790924	Charlie Wilsons War was interesting movie 	2009-04-04 03:44:56
9406830	1217097252	which Netflix film should I watch next Charlie Wilsons War or Eagle Eye	2009-02-16 23:42:38
30775696	786154174	chocolate chip cookies the gym eggs charlie wilsons war These are all different aspects of my night	2008-04-10 01:29:10
18832358	1506162262	our work on Charlie Wilsons album Charlie Last name Wilson is rewarded the album is now CERTIFIED GOLD 	2009-04-13 00:51:49
38689796	2067128849	Oh How Lucky said the people  We will see said the Zen master Charlie Wilson War dialogue	2009-06-07 18:47:59
54910104	830153360	Watching Charlie Wilsons War	2008-06-09 03:04:48
37619427	1779732953	is charlie wilsonswar the documentary not the Angelina Jolie film widely available	2009-05-13 01:25:43
55828391	2381890823	watching Charlie Wilsons War	2009-06-29 03:08:58
50703401	777061651	im watching charlie wilsons war	2008-03-25 23:45:22
6284854	2051100609	Just watched CHARLIE WILSONS WAR Its a pretty good  if a bit crass  movie	2009-06-06 02:51:49
30279296	1705894189	 They talk about Murtha in the movie Charlie Wilsons War	2009-05-05 13:23:35
28128734	885775709	Salmon was good Now watching Charlie Wilsons War	2008-08-13 00:35:09
14328059	1189327130	watched Charlie Wilsons War last night It was awesome	2009-02-08 17:58:29
1885422	1054594187	 Agreed  PSH should do a movie about Scoble  He was amazing in Charlie Wilsons War BTW	2008-12-13 01:43:52
34303580	2496931773	CHARLIE WILSONS WAR Angels amp Demons star Tom Hanks in Mike Nichols look at US Afghanistan Policy in the Cold War 	2009-07-06 13:43:21
54300908	2588664149	Caught Charlie Wilsons War on Sky tonight Aaron Sorkins screenplay was superb and Tom Hanks was brilliant in the title role First class	2009-07-11 20:50:11
1894036	697731222	Making out in theater before Charlie Wilsons War	2008-02-11 00:53:31
17872763	1490182382	Charlie Wilsons War scheint mir ein gutes Unterhaltungsprogramm f252r den Nachmittag zu sein	2009-04-10 13:13:57
6077656	797832249	Watching Charlie Wilsons War interesting	2008-04-27 03:43:30
35486397	532854682	 and other Portlanders looking at seeing Charlie Wilsons War at 215 at the Lloyd Center Interested	2007-12-25 19:39:14
25671378	1313287583	Watching Charlie Wilsons War	2009-03-11 23:21:04
25497606	1190044882	is half watching Charlie Wilsons war It all looks so dated  and yet strangely relevant	2009-02-08 23:09:18
2179789	670130842	went to see Charlie Wilsons war last night loved it	2008-02-02 15:11:04
8598322	902720739	Watching Charlie Wilsons War yet again I love this film If for no other reason the show of the need for foresight to be practiced by US	2008-08-29 09:51:32
55893575	492135832	Charlie Wilsons War 07 Nichols 52 Egregiously miscast save for PSH offensively simplistic Saving grace surprisingly funny	2007-12-12 02:20:02
19069605	1210262044	 shes pretty tolerable in Charlie Wilsons War too	2009-02-14 18:02:11
10532603	1405481508	Watching quotCharlie Wilsons Warquot Interesting	2009-03-28 04:25:20
53851861	3348789726	is coincidentally watching charlie wilsons war and syriana in a row  How timely	2009-08-16 19:53:34
55962739	1068262539	Watching Charlie Wilsons War	2008-12-20 01:25:58
47629132	2252122801	All snuggled up in the sofa with  watchin Charlie wilsons war great movie bad headache Nice girlfriend	2009-06-20 12:30:42
32062571	2034890090	Watching Charlie Wilsons War	2009-06-04 21:42:05
42851498	1111816733	I should finish Lonesome Dove and watch Charlie Wilsons War tonight Get those in the mail and back to netflix tomorrow morning	2009-01-11 23:08:28
6053781	1363667164	Late I know but I think Ill put Charlie Wilsons War on	2009-03-21 00:44:09
15288157	2900862731	Charlie Wilsons War is one of those movies that needs a 3rd watching for the Sorkinness to really sink in	2009-07-29 01:14:02
15210885	1030166309	watching Charlie Wilsons War	2008-11-30 02:21:02
4820904	848942468	Just Watched Charlie Wilsons War Loved IT	2008-07-03 03:08:15
28326374	1436369698	watching Charlie Wilsons War it makes me miss politics	2009-04-02 04:09:37
55906504	1096144439	Watching Charlie Wilsons war Need PJ pants after dinner because my jeans are way way too tight over my full midsection	2009-01-05 01:17:36
1344889	1030085006	 didnt like west wing okay with studio 60 loved charlie wilsons war	2008-11-30 01:03:49
52157071	1081362046	Am alone for the evening Ideal opportunity to watch Charlie Wilsons War Will I like it	2008-12-27 21:59:40
2174552	1347303568	 Only since CHARLIE WILSONS WAR Ive never liked her	2009-03-18 08:21:48
20356119	1112279479	highly recommends renting Baby Mama and Charlie Wilsons War	2009-01-12 03:26:22
26464792	2407197189	Watching Charlie Wilsons War Its quite a nice movie 	2009-06-30 18:09:19
40902598	722004722	Charlie Wilsons War was good but I expected more from Aaron Sorkin	2008-02-17 08:07:37
377992	527768622	Watching quotCharlie Wilsons Warquot wmy Better 34	2007-12-24 00:37:45
55701537	828090174	Working on images amp starting to watch Charlie Wilsons War uhps first couple scenes  more interesting than I expected P	2008-06-06 00:40:26
10885048	901113264	Charlie Wilsons WarSNOOOOOZE FEST	2008-08-28 00:35:58
31308615	1618967780	 then Charlie wilsons war at 3am here	2009-04-26 06:32:53
26744012	1191224709	 I just finished watching quotCharlie Wilsons Warquot  ThUmBs UP	2009-02-09 07:37:15
11706107	2047746417	Charlie wilsons war is a brilliant movie	2009-06-05 21:06:58
22689369	1932707980	Watching Charlie Wilsons War	2009-05-27 05:02:24
33953433	1601206517	that charlie wilson video might b nice if i wasnt picturing dog in the pics wthe two chicks on leasheskind of ruins the warm fuzzy	2009-04-24 04:56:46
5625	2571787616	Instock Charlie Wilsons War DVD 025192025181 	2009-07-10 18:33:04
13088921	1157430110	Watched Charlie Wilsons war  Good movie definately recommended Bedtime	2009-01-29 03:24:53
19389883	1207485264	Watched Charlie Wilsons War tonight	2009-02-13 19:27:30
9734657	1151267051	 reading Charlie wilsons war and its really good so far	2009-01-27 04:56:16
39547103	2084196588	Just watched Charlie Wilsons warwas fuckin sweet Phillip seymour hoffman looked like a pile of shit	2009-06-09 01:47:40
17643494	1844687223	futuresummit talking about Charlie Wilsons War  for weapons but no education	2009-05-19 06:07:37
5572026	808364642	watching Charlie Wilsons War with the fam	2008-05-11 02:14:16
10243435	1057997730	Just finished watching Charlie Wilsons War with Jerry	2008-12-15 05:39:59
52849312	1405344362	I am watching Charlie Wilsons War  Uninformed American that I am I think I may also be getting an education	2009-03-28 03:49:50
37933050	2833752934	just watched Charlie Wilsons War Curiously undramatic Characterdriven I guess youd call it	2009-07-25 06:18:15
13828953	997805809	 Charlie Wilsons War  great in depth book with business  apps how to influence get things done bend the rules in your favor	2008-11-09 19:57:05
54207335	567145442	Just saw Charlie Wilsons War	2008-01-06 03:40:01
23884176	1187261473	Charlie Wilsons War is on Sky Movies tonight Any good	2009-02-07 21:20:34
41837477	3220184219	Charlie Wilsons War so psyched to watch itt	2009-08-10 04:34:30
6236646	861390410	Watching Charlie Wilsons War	2008-07-17 23:06:57
55757358	1147953812	is settling in to watch Charlie Wilsons War	2009-01-26 01:41:42
2724	603463542	Review Charlie Wilsons War  Jamess Take  Cinematical I didnt leave Charlie Wilsons War the new f 	2008-01-16 00:47:11
31138953	1574281131	Watching Charlie Wilsons waragain  Not sure if this whol operation was actually goodor bad	2009-04-21 11:55:28
3699	936577190	McCain  help PakistanisCIA Special ops guys  ton of money aka quotCharlie Wilsons Warquot   good movie worth seeing	2008-09-27 01:55:34
4386	1189815975	Just watched Charlie Wilsons War Fascinating film especially given the situation were currently in with Afghanistan 35 of 5 stars	2009-02-08 21:31:36
46028639	2627417746	RT  Charlie Wilsons War interesting view of the AfghanRussian war I saw a lot of this from a different point of view insid 	2009-07-14 05:00:17
5159246	1772869887	 Watched Charlie Wilsons War last night Greyhounds featured prominently throughout	2009-05-12 12:34:53
56015204	1075675197	 Very good movie Just finished watching Charlie Wilsons War  also good	2008-12-24 04:13:11
21534085	1237306548	Charlie Wilsons War a great movie	2009-02-22 15:11:16
55943104	974670138	 Neither I opted for Charlie Wilsons War 2007 D	2008-10-25 05:16:20
44756918	2079870851	watching Charlie Wilsons War while trying to fight off Drew from biting my toes	2009-06-08 19:11:35
5444354	2498879403	 Charlie Wilsons War  The man got Israel Pakistan and Egypt to work together and helped to free a nation far from his own	2009-07-06 16:10:50
49479551	2546934293	CHARLIE WILSONS WAR OF THE WORLDS	2009-07-09 07:13:00
9115973	840438000	Watched Charlie WIlsons War on FIOS last night Great untold story and history lesson Good rent Tom Hanks does it again	2008-06-21 18:47:04
16639642	2021488821	May have taken too much cold medicineserious case of the giggles at Charlie Wilsons War and Im pretty its not a comedy	2009-06-03 21:30:29
48243807	2410487317	Juzz Seen ChaRliE WiLsoN WArr shit Was OffIcael NikkA GottA BEE DomnIcaN WITH THE BoTtLE Of BlacK Alll DAY LMAO	2009-06-30 22:04:58
6882374	795866376	Watched Charlie Wilsons War with the wife last night  I just love history	2008-04-24 11:48:15
3033525	828960824	Just watched Charlie Wilsons War pretty good movie	2008-06-07 08:06:26
48100220	553772922	Seeing Charlie Wilsons War	2008-01-02 02:16:27
55877593	819908374	watching charlie wilsons war	2008-05-26 03:22:00
33347588	2847795942	thats a chick flick right    Or maybe Ill watch Charlie Wilsons War  Better see rest of Liz  How does it end Does England do ok	2009-07-26 03:37:43
20371009	1330096786	i just watched charlie wilsons war amplt3 and am now going to do homework i swear	2009-03-15 03:57:55
2606143	868507051	 merci il vad dupa Charlie Wilsons War recomandat de   Oricum nu am somn  blame redbull	2008-07-25 21:50:19
19613483	1006477159	Off to enjoy one of the Netflix movies thats been laying around maybe Charlie Wilsons War 310 to Yuma The Company Good night	2008-11-15 02:12:33
27286180	2696887932	hanksfacts Tom Hanks got to fondle Emily Blunt in Charlie Wilsons Warbastard	2009-07-17 22:46:38
26912931	1505385789	Just watched Charlie Wilsons War  What a great movie	2009-04-12 22:18:12
564089	1112844720	Pleased that we rented Charlie Wilsons War Not so pleased that its Monday morning	2009-01-12 11:09:12
28132940	2287408431	 yes it did just emailed you the story I want to watch Charlie Wilsons War now but its not available on iTunes darn	2009-06-23 00:46:58
32321931	1702869502	Just watched Charlie Wilsons War again What is the Premise Congressman overcomes Soviet Union Good overcomes evil	2009-05-05 03:39:41
26894145	3321170366	  FrostNixon was pretty good I really enjoy those types of movies have you seen Milk or Charlie Wilsons war	2009-08-15 02:40:34
29147435	1294538015	just finished watching charlie wilsons war was very good	2009-03-07 23:49:55
10835666	1054568022	Ohman  Charlie Wilsons War best movie Ive seen in a while  btw jswanner you are supergay  FYI	2008-12-13 01:23:58
18631489	1262123447	I want to watch Charlie Wilsons War but so tiredd	2009-02-28 14:40:04
30525966	2261346656	also charlie wilsons war awesome	2009-06-21 03:38:58
47208349	2463259656	did the sunbathing now trying to decide on either a movie out or charlie wilsons war at home	2009-07-04 01:46:39
37618835	1628570561	Charlie Wilsons War 2008 Good Watch wsubtitles if you cant understand TH amp PSHs mumbling Perhaps someone should send to Afghans	2009-04-27 12:57:32
55733709	523344552	Just saw Charlie Wilsons War not as bad as I feared	2007-12-22 06:18:38
51517244	725484272	369132641130475201021230033995199902285525165 Charlie Wilsons War12301652922290928436217292006325937199812010222750211272641265292263563201324758252932447120986Closer30340235662843665292288582030926371256302098636889271711996837096292112925565311	2008-02-18 08:54:01
8609081	1035271550	 charlie wilsons war is pretty good	2008-12-03 01:02:18
6271378	901582547	sm Aaron Sorkin who created The West Wing and wrote Charlie Wilsons War is making a film about Facebook	2008-08-28 12:20:34
53324747	814415563	rented charlie wilsons war instead so far so good	2008-05-18 20:53:59
842876	878936071	managed to stay up and watch charlie wilsons war was afraid that if I napped Id be up in the middle of the night now for some good sleep	2008-08-06 03:05:52
49862700	3266075557	yesterday I saw Ray War of Charlie Wilson and Vicky Christina Barcelona greeeeeeeat movies	2009-08-12 14:34:08
19124354	1819118203	Watching Charlie Wilsons War A fave	2009-05-16 19:37:14
55879944	845289235	have to decide to watch fireworks or charlie wilsons war maybe both	2008-06-27 23:29:30
52728356	615855582	Correction  I mean Tom Hanks in Charlie Wilsons War and Julia Roberts not Nicholson and Freeman in The bucket List	2008-01-19 02:42:30
50626513	2539618057	just finished CHARLIE WILSONS WAR	2009-07-08 21:55:16
49700307	815550618	is watching Charlie Wilsons War	2008-05-20 05:45:59
40563238	2826511654	Watched Charlie Wilsons War yday nightThe character I loved most Gust Avrakotos	2009-07-24 21:42:55
10049389	857613319	Just watched Charlie Wilsons War  Not a family film but a great eyeopening true story	2008-07-14 01:32:11
31481444	1388835603	Baylor Us WR Poage lecture on Charlie Wilsons War is March 26 His chief of staff will speak Poage was a Baylor Law alum	2009-03-25 16:30:29
7965280	897941576	Just watched Charlie Wilsons War  good movie Didnt know this story until now Now off to bed will watch a bit of BB10 after dark	2008-08-25 06:20:29
3645517	798303508	Sitting down to watch Charlie Wilsons War	2008-04-27 23:15:03
22981369	1084543365	CHARLIE WILSONamp8217S WAR 2007102 Minutes amp8212 	2008-12-29 20:15:40
7420764	821505914	Eating a hot dog watching Charlie Wilsons War and marveling at the constant excitement that is my life 	2008-05-28 06:50:42
41802975	915583809	Watching Charlie Wilsons War and trying to get some work done	2008-09-09 21:02:01
55014275	1147003894	Watching Charlie Wilsons War	2009-01-25 17:12:11
55803633	824257427	charlie wilsons war good	2008-05-31 22:44:32
26036819	1832277937	i wanna be like julia roberts character in charlie wilsons war	2009-05-18 03:30:57
12060389	1147479326	Charlie Wilsons War Meget bra film En politisk film som faktisk har mye humor i seg 	2009-01-25 21:28:30
55516610	797141933	I really dig Charlie Wilsons War	2008-04-26 00:14:07
42478638	813168402	Watching Charlie Wilsons War	2008-05-16 22:58:12
24214057	1182619680	Was unexpectedly thrilled by Charlie Wilsons War last night until I saw that it was by Aaron Sorkin and Mike Nichols Truly excellent	2009-02-06 08:50:27
22831406	1094734768	watching Charlie Wilsons War Food for thought	2009-01-04 05:43:15
10631091	852489382	Just finished watching Charlie Wilsons War  Just how many foreign adventures love that term have we managed to fuck up since WWII	2008-07-08 02:32:55
16552362	944217964	Like Charlie Wilsons War where are the schools	2008-10-03 01:48:00
12081080	2033196542	Die Wahl fiel auf Charlie Wilsons War	2009-06-04 19:21:29
11172633	1083335229	now watching Charlie Wilsons War Never heard of this movie but gotta be good with Tom Hanks	2008-12-29 03:41:58
25201727	1781291101	Just finished a Philip S Hoffman marathonDoubt Capote and Charlie Wilsons War Hes good	2009-05-13 04:19:49
53037770	882798994	  Good Night and Good Luck Charlie Wilsons War Across the Universe World Trade Center Bobby  ok Im done 	2008-08-09 22:05:41
25890126	1800785603	 he was good in Charlie Wilsons War	2009-05-15 00:21:42
13143183	874283017	Watching Charlie Wilsons War	2008-08-01 02:13:39
23139989	1300533263	WOULD be watching seven poundsif not for this defective copy  no luck with quotCharlie Wilsons Warquot either	2009-03-09 14:35:47
48758488	2286682662	 I THINK LIL KIM SHOULD PERFORM DOWLOAD WITH TPAIN AND CHARLIE WILSON	2009-06-22 23:46:52
49590338	3631625075	Charlie WIlsons War Like this movie a lot 	2009-08-29 20:34:58
55978568	619346542	Watching charlie wilsons war	2008-01-20 05:35:19
8236591	1080436872	 Absolutely agree on Charlie Wilsons War assessment really great performances all aroundand as you say tragic consequences	2008-12-27 05:46:07
55783793	809731295	Cuban meal great success Next up Guitar Hero and Charlie Wilsons War I know one of them will be good	2008-05-12 23:16:59
2194129	1701534530	Watching Charlie Wilsons War Again Great movie	2009-05-05 01:08:10
34609821	1462320107	On the list next is Charlie Wilsons warWas reading a book on Cinema of Stanley Kubirck Again my tributes to this great director	2009-04-06 11:46:32
32278431	997080706	 i heard charlie wilsons war is pretty good let me know if it is	2008-11-09 03:23:11
18449426	2781969227	Feels like were on the other side of charlie wilsons war 	2009-07-22 17:56:21
25606338	2604481663	 Im done too But the reviews of Charlie Wilsons War are not encouraging Theres bound to be something on the Sky box	2009-07-12 22:18:54
1620746	840528404	watching charlie wilsons war	2008-06-21 21:47:57
49439851	3089905358	Charlie Wilsons War 233 com o trio THanks JRoberts e PSHoffman sobre a ajuda americana ao Afeganist227o come231aram bem depois fizeram m	2009-08-02 18:27:26
55738906	1255284547	Watching Charlie Wilsons War	2009-02-26 20:59:56
8989466	2260228812	Charlie Wilson is one stand up guy City Stages wishes his the best and looking forward to tonights special performance	2009-06-21 01:52:55
55643269	557334572	Just saw Charlie Wilsons War  Good watch bittersweet story Phillip Seymour Hoffman steals the show as he usually does	2008-01-03 05:15:08
45247600	536887892	Charlie wilsons war Well done Message delivered but they have fun doing it	2007-12-27 05:05:08
21079006	2041491358	 re Charlie Wilsons War  You should really check out the book  Its eyeopening to say the least	2009-06-05 10:57:42
6742994	1333372188	Just watched Charlie Wilsons War  what an interesting warwonder what one million for a school would have done to our worldsad	2009-03-15 22:30:34
22235529	3059875323	Fridays Line Up Lookin 4ward to seeing Charlie Wilson John Legend Fantasia Eric Benet amp The Whispers at Macys Music Fest wwwwizfmcom	2009-07-31 22:45:16
8241432	802975064	moving on to charlie wilsons war 	2008-05-04 03:23:06
38548654	2834288653	Films watched in 2 wks Forrest Gump Mr Woodcock Bridge to Terabithia Stardust Enchanted The Nanny Diaries Charlie Wilsons War LXG	2009-07-25 07:16:14
17538244	1971871592	Timati  Groove On Feat Snoop Dogg 2009 Comet Awards Live Related postsCharlie Wilson Feat Snoop Dogg   	2009-05-30 15:04:45
9121381	842061605	Charlie Wilsons War	2008-06-24 00:31:40
51108811	2870899189	 I just saw Charlie Wilsons War and there was a brief view of Amy Adams ass albeit with clothes on walking  I became a fan	2009-07-27 14:23:25
31489834	559646942	Charlie Wilsons War was a really great movie  Some of Aaron Sorkins best work	2008-01-03 21:22:46
801613	955684349	Ever get stuck with a Netflix DVD you dont want to watch that much and a queue of flicks youd rather see Sorry Charlie Wilsons War	2008-10-11 18:11:56
2943068	819332479	 Agree on all points  Charlie Wilsons War was pretty dang good	2008-05-25 03:08:21
35915894	1467867012	just finished writing Davids stupid paperand now Im watching Charlie Wilsons war and getting ready for bed	2009-04-07 05:34:27
40059282	2306742283	Watching Charlie Wilsons war with my honey finding it hard to follow but Im sticking it out	2009-06-24 05:54:03
1692037	1893907244	Charlie Wilsons War on HBO and that Vakola cable fucker has blanked all English channels Gaah	2009-05-23 15:23:22
1039455	813291279	finally saw Charlie Wilsons War Good movie even better story	2008-05-17 02:56:30
30741239	1052771720	Watching charlie wilsons war again I just love the one liners in this movie	2008-12-12 04:31:49
7839309	796016666	watching movies all day Walk Hard Sweeney Todd Juno Charlie Wilsons War its all so good	2008-04-24 15:28:24
5356218	993939531	I think everyone should be forced to watch Charlie Wilsons war and the bonus features	2008-11-06 21:35:32
28449763	2469074167	sitting on the porch watching the cows and rereading Charlie Wilsons War	2009-07-04 13:33:13
55870463	533666542	Watching charlie wilsons war in the smallest theater in the world	2007-12-26 03:07:07
28718369	2500436227	Wife driving son to Manchester airport off on his hols I think Ill have a film night Has anyone seen Charlie Wilsons War	2009-07-06 17:59:49
55972611	833863433	FInally watched Charlie Wilsons War last night Easily the best movie Ive seen in years	2008-06-13 13:31:13
10696374	1030768297	Up for the second time today Had a 6am water refill Watching Charlie Wilsons War	2008-11-30 15:03:08
51385046	1443580069	In the middle of watching Charlie Wilsons War Philip Seymour Hoffman is hands down the greatest actor on the planet living or dead	2009-04-03 05:24:35
24047291	1171587297	I have sleeping sickness every time I sit I doze Charlie WIlsons War on cable tonight	2009-02-03 01:16:03
53345918	3076455686	AdamCharlie Wilsons War Widescreen497 	2009-08-01 21:56:01
13344599	2830187693	Just put in Charlie Wilsons War Previews include an ad for HDDVD Whoops	2009-07-25 01:50:03
55997509	535297612	strategizing on what movie to see  already saw Charlie Wilsons War which was a fair B	2007-12-26 16:44:45
5572304	879642512	Longest Day Ever I just hope my iPod batt can hold out through the rest of Charlie Wilsons War 	2008-08-06 19:34:05
2569	544508332	Going to see Charlie Wilsons War tonight	2007-12-29 19:38:32
4941943	827380826	charlie wilsons war was a great albeit hard to watch movie	2008-06-05 04:09:53
55830530	896955861	Just finished watching Charlie Wilsons War and eating pizza	2008-08-24 01:34:12
45547708	2738468825	Gonna watch Charlie wilsons war mmh Cant remember what its about anymore but I remembered that it was brilliant	2009-07-20 13:27:12
3113807	697252392	Just seen Charlie Wilsons War in Leicester Square	2008-02-10 21:37:04
55324484	523051232	Charlie Wilsons War up north	2007-12-22 03:26:32
34873379	2055707844	You8217re not stupid you8217re just in congress  Charlie Wilsons War   Words to remember	2009-06-06 16:48:39
35785449	3654456202	Watching Charlie Wilsons War	2009-08-30 23:35:10
9586297	1114330345	Philip Seymour Hoffman is a genius Enjoyed Charlie Wilsons War and this scene 	2009-01-12 23:30:42
55952263	473524182	I am watchin Charlie wilsons war	2007-12-06 01:34:14
16244655	1294438382	j roberts movie marathon begins with quotcharlie wilsons warquot	2009-03-07 23:17:15
23090464	1748149528	Charlie Wilsons War maybe moved into my my top five favorite movies	2009-05-09 18:28:11
55717571	541224322	Imitating  last weekend  hitting some movies Charlie Wilsons War and National Treasure are on agenda	2007-12-28 14:12:30
40115279	1776350773	A remarkable  rental I just watched is Charlie Wilsons War Phillip Seymour Hoffman is excellent in Oscar nom supporting role	2009-05-12 19:14:29
34597918	547801232	Enjoyed Charlie Wilsons War I enjoy going to movies over the holiday weeks	2007-12-31 00:36:38
12211095	857454533	watching charlie wilsons war awesome flick	2008-07-13 20:42:25
2669644	648657852	Feeling so much better may even leave the house and see Charlie Wilsons War	2008-01-28 00:34:57
20730855	1065723373	watching Charlie Wilsons War on Boxee check it out at 	2008-12-18 21:02:01
7458246	797773151	Satiated from kabobs off the grill sitting down to finally watch Charlie Wilsons War	2008-04-27 01:24:55
40357112	2844990630	bought and just watched Charlie Wilsons War VERY good movie	2009-07-25 23:57:04
13396854	938732009	Trying to watch quotCharlie Wilsons Warquot and enjoying my newly clear and easy breathing thanks Kate	2008-09-29 02:45:49
55935920	2264543212	 Runaway Jury  and Charlie Wilsons War 	2009-06-21 11:12:11
42060233	526628172	leolaporte Charlie Wilsons War was such a disappointment How can you go wrong with Mike Nichols and A 	2007-12-23 15:09:07
53400378	567113302	Charlie Wilsons War	2008-01-06 03:25:47
56015466	1087582142	  Not much blood in Charlie Wilsons War but its a good one  One of my favorites from last year	2008-12-31 07:40:22
32756359	2944721512	Watching Charlie Wilsons War with myself	2009-07-31 03:52:44
6160715	840762586	watched quotCharlie wilsons warquot i really got bored after 30 min  fast forward  bored  changed to Dr House Season 4 quotHouses Headquot  GREAT	2008-06-22 06:53:32
52566561	3522402000	Im selling DVDCHARLIE WILSONamp039S WAR on   Check it out at 	2009-08-24 23:01:02
22432857	1068300853	just realized Charlie Wilsons War has Julia Roberts in it Hate it already	2008-12-20 01:54:41
2831	765155252	Charlie Wilsons War in 25hours time	2008-03-01 05:46:47
13585746	2050375433	Ive decided to watch the scene that introduces Phillip Seymour Hoffmans character in Charlie Wilsons War overandover again	2009-06-06 01:33:27
3696041	833500649	Watching Charlie Wilsons War Its interesting amp amusingamp based on a true story which is CRAZY	2008-06-13 01:47:45
24702533	3129843109	Nytt blogginl228gg Filmrecension Charlie Wilsons war 	2009-08-04 19:13:06
5420485	1078957334	 Mmm ok Try Charlie Wilsons War	2008-12-26 05:54:24
29365571	1587370167	 State of Play reminded me of michael clayton meets charlie wilsons war Loved all those films The SOP cast was great 2	2009-04-22 19:24:17
21949709	2166866617	watching Charlie Wilsons war A slow but good movie Shows how every selfish bad thing you do one day comes back to bite you in the ass	2009-06-14 17:17:18
55968158	795724828	queue 6 parts of john adams charlie wilsons war we own the night the diving bell and the butterfly the assasination of jesse james	2008-04-24 06:15:58
51091211	2579720564	 Charlie Wilsons Warhave you seen it	2009-07-11 04:54:23
26894465	1369456833	watching Charlie Wilsons War Phillip S Hoffman should win evry Oscar evry yr amp Forrest Whittaker 2 they can switch back n forth	2009-03-22 06:16:36
51140386	1298969270	just completed a Aaron Sorkin weekend 3 hours of Studio 60 and then Charlie Wilsons War Satisfying to say the least	2009-03-09 04:01:22
24580886	2512950549	Charlie Wilsons war terrible trailer good movie	2009-07-07 12:06:58
22434304	1276635852	Watched Charlie Wilsons War Dir Mike NicholsI guess its easy to fly a plane but the hard part is to land it safely	2009-03-04 01:42:04
25274070	535918802	is watching charlie wilsons war with his family and theyre showing that awesome national guard trailer where you get to kill redcoats	2007-12-26 21:30:27
2024532	1527331002	Just about the best goddam review of Charlie Wilsons War and a great commentary on US military strategy  	2009-04-15 18:41:21
995090	933670319	Watched end of Charlie Wilsons war on iPhone in bed and thought it was great Wishes he had mates on twitter 	2008-09-24 23:33:57
25712507	1754819820	Chilly early morning movie  Charlie Wilsons War  Decent movie but Philip Seymour Hoffman as Gust Avrakotos makes the film	2009-05-10 14:28:46
2127692	721687832	Reading Charlie Wilsons War	2008-02-17 05:10:26
55900461	1044591910	CHARLIE WILSONS WAR on HBOHD  Yay	2008-12-08 05:48:01
4072111	920795608	Always like watching Charlie Wilsons Warexplains so much of whats happening in the world today	2008-09-14 05:30:26
55991571	1122627391	I think Im going to go read one of those book things Charlie Wilsons War very interesting book	2009-01-16 01:53:34
28277388	1408700752	 watched Charlie Wilsons war last night  Highly recommend	2009-03-28 20:39:54
1419784	632858032	saw charlie wilsons war last night finally it was great	2008-01-23 16:34:43
11777626	1075525646	is watching charlie wilsons war	2008-12-24 02:28:32
36799394	1619278093	watching charlie wilsons war sundays suck	2009-04-26 07:58:27
2506113	1030093490	 Charlie Wilsons War was pretty good Philip Seymour Hoffman stole the movie	2008-11-30 01:11:53
8973723	835214716	s Charlie Barlett surprisingly good Through comedy of errors we saw that instead of Charlie Wilsons War also good	2008-06-15 11:42:34
54094227	920858895	Good night with Cassie Scott Steve Justine and Dave Watched Cry Baby and Charlie Wilsons War	2008-09-14 07:40:08
55940932	3159121920	 Bond Bourne Clancy series Conspiracy Theory Good Shepherd Spy Game Sneakers Munich amp my current fav Charlie Wilsons War	2009-08-06 02:59:41
55868377	545119072	 Im hoping to see that one soon Seems like a girls night out kind of film Saw Charlie Wilsons war too Debaters was better	2007-12-30 01:13:18
55714400	787667873	3047512298Charlie Wilsons War1229924517390352354524403261023034021382214903297226223263772515220102352996529219981201023529920250363191998119978652923047519981250266529226080278612742736175122903591029923199782445622810201543711735828234272654329157652922886629255652922027235745200632615927809263773045620851201023529930340208513199512290	2008-04-12 06:09:51
55395879	768486121	charlie wilsons war  ein wunder dass der noch l228uft	2008-03-08 14:03:28
25429612	533260912	Seeing Charlie Wilsons War later to get some Philip Seymour Hoffmany goodness	2007-12-25 23:38:40
55936992	1069238225	catching up on movies hated Burn After Reading how did I miss gem Charlie Wilsons War	2008-12-20 17:37:27
10698603	1062281007	charlie wilsons war was great  scary to ponder maybe that is really how congress works	2008-12-17 06:22:48
6439737	817992236	Watched charlie wilsons war tonight best damb movie ive seen in a long time	2008-05-23 04:00:46
17329923	1077447998	watching Charlie Wilsons War	2008-12-25 04:05:10
12644431	1636039598	im so tired tom is watching the charlie wilson war im so BORED im going to bed Zz Zz Zz z	2009-04-28 04:03:19
42359861	2273000822	It workedWatching Charlie Wilsons war So far so good	2009-06-22 01:58:13
28640066	1795136890	in bed and cant decide on movie death at a funeral puccini for beginners charlie wilsons war black book or American gangster	2009-05-14 14:13:38
1538648	552907052	Currently Going to see 3 movies today 1 Sweeny Todd 2 Charlie Wilsons War and 3 Walk Hard Whew love this time of year	2008-01-01 18:29:17
54365903	765549210	Saw two movies yesterday quotCharlie Wilsons Warquot and Godards Je vous salue Marie The former enjoyable The latter incomprehensible	2008-03-02 04:16:28
47155570	2166090207	 Charlie Wilsons War may be the worst movie this century has produced	2009-06-14 15:54:16
55821975	663919852	Just saw Charlie Wilsons War above a cr234perie Good movie and now I know that the end of the Cold War smelt of crepes	2008-01-31 22:05:53
25685621	1497310370	 I loved him in MI iii amp Charlie Wilsons War Im going to hunt down some of his back catalogue this coming week	2009-04-11 15:12:45
47589252	2178117542	loving charlie wilsons war	2009-06-15 14:13:11
1486844	592730642	glad i went to see Charlie Wilsons War  great film  But not sure it will help me sleep tonight	2008-01-13 01:26:23
40357633	1822133807	Watching Charlie Wilson fight his war	2009-05-17 01:52:16
13453537	1426791383	finally got round to watching Charlie Wilsons War Definately worth seeing if you havent yet	2009-03-31 20:39:17
7566245	794546208	New Arrivals have well arrived  Cloverfield One Missed Call Charlie Wilsons War NBA Ballers Chosen One and the two new Pokemon Games	2008-04-22 19:40:26
3766676	761883502	trying to finish Charlie Wilsons War out in the awesome SoCal weather	2008-02-26 19:24:12
35905446	2699667052	Check out the movie Charlie Wilsons War starring Tom Hanks Good movie	2009-07-18 02:07:52
34623580	2166948555	Waiting to hear from Richard supposed to be binding the scripts today Now in fact Watching some of Charlie Wilsons War Great cast	2009-06-14 17:25:42
55806684	569152702	 I thought Charlie Wilsons War was great What did you find soso about it	2008-01-06 19:57:12
17772431	1296471900	 Charlie Wilsons War eh another great performance by the worlds greatest actor	2009-03-08 14:42:40
27896589	1902632284	 I read Animal Farm in 8th gradegood book fast reading Do yourself a favor and watch Charlie Wilsons War Great funny movie	2009-05-24 13:59:25
2407	501193442	Amanda Seyfried  8220Charlie Wilson8217s War8221 World Premiere ampnbspOriginal News1 Votes  Sponsored by  	2007-12-14 17:13:46
55946312	768651153	Dinner then possibly seeing Charlie Wilsons War	2008-03-08 22:42:14
2718949	803847840	watched Charlie Wilsons War last night what a great movie once you look past the first scene and the language Really makes you think	2008-05-05 13:24:54
1615289	835564051	Watching Charlie Wilsons War	2008-06-15 23:43:23
3911352	842938808	Vodka Noodles Charlie Wilsons War and fuzzy slippers Take my picture because this is what counts	2008-06-25 02:49:16
27191486	1211053712	Just watched Charlie Wilsons War  pretty good 67100	2009-02-15 00:06:24
19266033	1057851843	is trying to get her little project done to lay in bed to watch Charlie Wilsons war	2008-12-15 03:45:05
1458527	1035651232	Finally watched Charlie Wilsons War much better than I expected it to be	2008-12-03 05:36:03
24910088	1153209170	Whee  As usual good stuff from 343  Charlie Wilsons War is sitting on our mantel getting shuffled to the bottom of the stack each time	2009-01-27 20:56:13
913417	554022472	just saw Charlie Wilsons War  Philip Seymour Hoffman was great	2008-01-02 04:21:38
34378984	1933939831	Im a big fan of saving private ryan forrest gump big andcharlie wilsons war  i hate to admit it never seen philadelphia	2009-05-27 08:31:57
11855516	1084264250	I should be prepping for Sunday  Instead Im about to watch Charlie Wilsons War on my Mac  May Ill get a sermon idea out of it  	2008-12-29 17:26:02
55846394	1063921562	Trainer and Charlie Wilsons Wargood movie I recommend it	2008-12-18 00:23:02
55707957	1039716622	watching charlie wilsons war so far great movie	2008-12-05 06:32:25
27284324	1205813715	I wonder if mr obama has ever seen charlie wilsons war	2009-02-13 09:09:49
1629976	543082722	staying up late thinking about charlie wilsons wargreat movie	2007-12-29 07:17:56
8014962	2936200977	Considering watching Charlie Wilsons War  Informal and concise reviews please	2009-07-30 19:30:18
8394257	1035433565	Working at hotel in Annapolis while watching Charlie Wilsons Warwhat a great flick	2008-12-03 02:53:55
39971186	2034036306	getting ready 2 take a nap while watching charlie wilsons warhmm	2009-06-04 20:31:47
55721012	880657479	is gonna watch Charlie Wilsons War	2008-08-07 18:15:30
33987165	2038952034	Just finished watching Charlie Wilsons War Pretty good flick AND super interesting recent history  recommended	2009-06-05 04:01:17
7489499	1044653965	So Charlie Wilsons War is a great flic TimeFor mimis so until the am cheereo	2008-12-08 06:52:44
7276427	803202816	Finally saw Charlie Wilsons War  loved it probably because Sorkin wrote the screenplay	2008-05-04 14:08:49
46752363	2736511073	Watched Charlie Wilsons warso 1 million cost america 911dats a fair price	2009-07-20 10:03:31
17242072	2036982267	watching DVD Charlie Wilsons War	2009-06-05 00:57:39
10037577	2501508294	Watching Charlie Wilsons War is Phillip Seymour Hoffman the best or what	2009-07-06 19:15:31
7918068	1509186279	u might recall the story at end of film charlie wilsons war talking about defeat of USSR in Afghanistan 	2009-04-13 14:01:49
18035202	1819397599	Charlie WIlsons War was pretty good	2009-05-16 20:07:37
26114744	2202517967	Charlie Wilsons War is fantastic	2009-06-17 04:56:06
3152211	877568121	Been reading quotCharlie Wilsons Warquot  That Gust Avrakotos character is somethin else	2008-08-04 20:28:56
45195082	841276472	Last nights movies Charlie Wilsons War 25 stars The Namesake 4 stars Do not miss that movie	2008-06-23 01:26:01
55816423	642599722	I finally finished Charlie Wilsons War and have blogged a review at 	2008-01-26 04:58:48
35916016	1572716355	Taking break from MKT to watchcomment on Charlie Wilsons War Shift forward to edge of seat as play is pressed	2009-04-21 05:20:01
5113623	833523026	 what r u watchin I might try Charlie Wilsons war or Semipro quite contrasting choices will ferrell cracks me up	2008-06-13 02:25:46
38579341	797832495	Looking forward to a day with absolutely no agenda  Charlie Wilsons War and Cloverfield will be on the plasma	2008-04-27 03:44:08
10401813	896217804	making pasteles and watching Charlie Wilsons War  not so great Dog Whisperer is a rerun so I wont get my Cesar Milan fix Rats	2008-08-23 04:04:22
9922950	1472960060	watched Charlie Wilsons War last night on DVD and learned more about politics and human beings For those who wants to change the world	2009-04-07 23:44:16
45138910	2668921266	 Movie Club at 7pm Charlie Wilsons Warc u there	2009-07-16 12:48:18
7507991	3108203469	Tonites movie Charlie Wilsons War Mike Nichols again 140Review Coming to your Local Twitter Box Soon	2009-08-03 17:54:36
29140521	2361353892	just watched charlie wilsons war lazy day	2009-06-27 17:42:02
55949603	536217072	watching Charlie Wilsons War	2007-12-26 23:52:16
55052268	702481252	back at apt just finished watching charlie wilsons war pretty good	2008-02-12 06:05:25
22514144	1129010793	watching Charlie Wilsons War	2009-01-18 22:16:28
55987163	1384174265	 Charlie Wilsons war is a great Movie and surprisingly true to the bookfor a change	2009-03-24 21:36:17
21520558	1057557015	nursing a headache watchin charlie wilsons war brainstorming topics for my blog ideas	2008-12-15 00:08:27
55637570	776238678	Viendo Charlie Wilson War	2008-03-24 14:41:24
1402441	570614592	Seeing quotCharlie Wilsons Warquot Stoked	2008-01-07 06:00:18
40206167	545123002	I havent seen Charlie Wilsons War but were going to	2007-12-30 01:15:14
33042120	3076834657	Charlie Wilsons War not bad Quite an abrupt ending	2009-08-01 22:24:33
18656275	2577444020	says Charlie wilsons war road to perdition the terminal sleepless in Seattle youve got mail	2009-07-11 01:49:19
26119497	1561192442	Phillip s hoffman is pretty brilliantm hilarious in charlie wilsons war I love sundays	2009-04-19 23:08:39
9475008	1433048148	fully endorse charlie wilsons war speaking of war one nice thing about the bush admin was they pissed nofx off enough to inspire 3 albums	2009-04-01 18:20:01
1361283	581247842	Saw I Am Legend  It eats Charlie Wilsons Boring War for breakfast  Question  How many mutated flesh eating zombie vampires are in CWW	2008-01-09 22:13:29
33817109	1528683878	Charlie Wilsons War 2007 bitlyTCZG8	2009-04-15 21:51:28
56024142	536426172	charlie wilsons war  Alamo drafthouse	2007-12-27 01:30:35
39938024	3088637800	about to get foodthen watch Charlie Wilsons War anyone wanting to join me  should do so in the next ten mins	2009-08-02 16:56:13
11791436	1870428060	Learning about the Soviet Unions attack on Afghanistan and reviewing Charlie Wilsons War tweeting from the computer lab 	2009-05-21 12:43:03
13126250	1099411560	 Due to you saying that I realised Im missing both tickets to Juno and my There Will Be Blood and Charlie Wilsons War 	2009-01-06 13:27:36
55951226	2920971287	 I enjoyed Charlie Wilsons War	2009-07-30 01:15:24
3380451	1059842926	Watching Charlie Wilsons War on HBO from a hotel room near St Petersburg  Movie is hilarious given my background and where I live	2008-12-16 02:45:27
55900622	584419762	Saw Charlie Wilsons War last night Watchable SeymorHoffman excellent	2008-01-10 17:50:21
54495378	694463862	Charlie Wilsons War war ganz gut Jetzt geht es heim in den Plattenbau	2008-02-09 21:27:15
41382647	1077450295	Watching Charlie Wilsons War on HBO in the hotel	2008-12-25 04:07:04
17874991	2361621821	I enjoyed Charlie Wilsons War but do these films seek to rewrite history or put the present in some context Im never quite sure	2009-06-27 18:06:48
35353149	2320976208	back on twitter errybody lol watchin charlie wilsons war interesting	2009-06-25 03:24:32
31436702	1432698666	Charlie Wilsons War	2009-04-01 17:24:44
11905165	1343862092	reading quotCharlie Wilsons Warquot while en route to South Carolina fb	2009-03-17 18:56:11
5368833	1030134818	Watching Charlie Wilsons war I want to be a congressman	2008-11-30 01:51:27
1817163	850222075	Charlie Wilsons War  Jogos de poder 	2008-07-04 18:24:44
44068558	3193043378	 re Tribes in Afghanistan  The movie Charlie Wilsons War comes to mind	2009-08-08 13:53:39
56024980	1267693028	How have I not seen Charlie Wilsons War yet Great movie so far	2009-03-02 02:46:54
1035317	542755082	Charlie Wilsons War Theatrical Release newly tagged politics 	2007-12-29 04:26:54
37036698	2244901590	  If I was to perform  at the awards I will bring out The best of the best Charlie Wilson cause he is killing the game right now	2009-06-19 22:22:35
41684716	2265093371	will go watch a movie Charlie Wilsons War Night guys 	2009-06-21 12:46:17
1441043	802968097	just finished watching Charlie Wilsons War GREAT movie	2008-05-04 03:07:28
55986663	1053368441	watched charlie wilsons war this morning at 3am great movie  brought back a lot of memories of cold war some good some bad	2008-12-12 13:51:02
53417745	1114311758	I HEART Hoffmans first scene on Charlie Wilsons War 	2009-01-12 23:21:32
7215129	827383419	Just put in Charlie Wilsons War maybe itll put pippo to sleep	2008-06-05 04:15:12
22579463	1191182652	Played tennis in the snow Good job the balls werent white Watched most of Charlie wilsons war 20 mins to watch today	2009-02-09 07:07:35
2220415	1335154608	movie  Flag of our fathers was a fantastic movie to watchnext on card is Charlie Wilsons War  ampgtampgt 	2009-03-16 06:34:38
29648478	3090466350	After watching Charlie Wilsons War why cant we come up with da  for cash 4 clunkersppl cant agree and pass it thru	2009-08-02 19:07:41
11225533	907752883	reading Charlie Wilsons War quotGrippingquot said The Economist Looks good	2008-09-03 05:41:47
55764334	471234382	Charlie Wilson Loses His War Charlie Wilsons War is entertaining  but not in a good way writes f 	2007-12-05 09:50:42
20000963	3259715432	Houstons Joanne Herring King of Charlie Wilsons War fame on Afghanistan development 	2009-08-12 04:42:54
5238	1977659332	I love this film Charlie Wilsons War amp9654 	2009-05-31 04:25:33
17617721	2430506710	Watching Charlie wilsons war	2009-07-02 02:24:56
11079223	838413272	Attempting to watch Charlie Wilsons Warnot working out so well	2008-06-19 05:40:18
10722097	845510937	Watching Charlie Wilsons War	2008-06-28 08:36:47
5809577	814546893	Feeling weird watching a movie and not studying on a Sunday night for the first time since January Charlie Wilsons War	2008-05-19 01:16:59
1597941	544834092	 i am off to see Charlie wilsons war I will do a review	2007-12-29 22:36:42
22264651	1223600626	Lindsay just got around to watching Charlie Wilsons War a very enlightening pov on what happened and how things were left	2009-02-18 17:40:49
34107476	1535630158	Great use of a And He Shall Purify remix from Handels Messiah in Charlie Wilsons war	2009-04-16 18:25:18
38319506	1843177821	ok so i watched Charlie Wilsons War amplt2007ampgt got my facts straight ened a bit	2009-05-19 02:49:38
7532477	797321097	watching charlie wilsons war	2008-04-26 07:30:28
27108780	1302227717	Thinking about the movie Charlie Wilsons Warand what tactics from that story could be beneficial in todays social issue movements	2009-03-09 20:55:41
52604856	862538425	Just finished Charlie Wilsons War Realized why it was so good at the end  written by Aaron Sorkin  Shouldve guessed	2008-07-19 06:16:03
56025029	1506323293	Watching Charlie Wilsons War and loving it  Id like to take a moment to review the several ways in which youre a doucebag	2009-04-13 01:22:43
7737450	1092863505	 20 minutes into Charlie Wilsons War some spooks blow up the entire cast Trufax The Julia Roberts of today is partly titanium	2009-01-03 04:13:04
755129	906297855	 Is the Charlie Wilsons War worth seeing	2008-09-02 01:16:44
6713430	856286311	Putting Caleb to sleep so Michele and I can watch movie together We rented Charlie Wilsons war on the AppleTV  Hopefully its good	2008-07-12 04:53:22
3132552	1260606230	Movies like Charlie Wilsons War have bits of movies like Juno in their stool	2009-02-28 01:33:40
55761769	964458372	ho appena finito di guardare quotCharlie WIlsons Warquot molto carino tranne che per Julia Roberts bionda	2008-10-17 22:08:40
37915394	3137346525	Just finished Charlie Wilsons War Great movie	2009-08-05 02:33:18
10229813	1030383674	Finally saw CHARLIE WILSONS WAR Now I get it Scary	2008-11-30 05:56:51
25427160	2865983884	Pitch for THE WOMAN BEHIND CHARLIE WILSONS WAR quotequal parts GWTW Lawrence of Arabia amp The Devil Wears Prada w dash of Cinderellaquot OY	2009-07-27 05:55:32
43655621	918300946	Charlie Wilsons war videorecording by Goetzman Gary In the early 1980s Charlie Wilson is best kn 	2008-09-12 00:05:30
55927163	850896999	I enjoyed Charlie Wilsons War	2008-07-05 21:28:35
5528229	879631592	Charlie Wilsons war on iTunes download	2008-08-06 19:20:52
1706323	876885211	Just watched Charlie Wilsons War  Quite good movie Quite good indeed	2008-08-04 03:53:26
55864214	1126180706	is watching Charlie Wilsons War	2009-01-17 14:32:55
54381773	533022152	Sitting down to Charlie Wilsons War for my annual XMas Day visit to the Yiddish Theater aka Village East Cinemas	2007-12-25 21:22:17
5768	2857784842	watching charlie wilsons war	2009-07-26 20:10:34
52825039	847295076	 Charlie Wilsons War makes for a decent drinking game if you take a drink every time Charlie does	2008-07-01 01:28:57
33355007	3135119359	RT   Thur or Fri Best Thursday cause Fri Im going to see Charlie Wilson Where shall we go	2009-08-05 00:23:40
6483352	1340263457	Had fun hanging out w Rob tonight catching up I think the last time we hung out was seeing Sweeney Todd and Charlie Wilsons War	2009-03-17 03:19:56
54198914	572861802	Saw quotCharlie Wilsons Warquot last night saw the heavy hand of Aaron Sorkin in it but PS Hoffman was fun to listen to	2008-01-07 19:41:02
29613247	2183149791	ive ordered night at the museum the dark knight and charlie wilsons war ive seen none of them 	2009-06-15 21:06:44
3512175	814285915	gonna watch Charlie wilsons warkids resting	2008-05-18 16:40:28
373514	521564472	Im going to see a lot of movies in the next few days Sweeney Todd and Charlie Wilsons War are at the top of my list	2007-12-21 16:16:35
30071233	1405786117	Just finished watching Charlie Wilsons War and Blood Diamond two excellent movies I must saytime for sleep Good Night Twitterland	2009-03-28 06:01:05
38664519	1830150818	No caps game to watch tonight so going to watch Charlie Wilsons Waror something	2009-05-17 23:13:21
164019	834280095	Watched Charlie Wilsons War Tom Hanks movies are always good arent they	2008-06-13 23:25:10
2983119	1166235410	Ok off to watch Charlie Wilsons War over breakfast cya later tweeties pumped for Rafa vs Fedex	2009-02-01 05:24:39
3186	821201988	Watched the movie quotCharlie Wilsons Warquot Didnt think it was a film that Tom Hanks and Julia Robert would buy into  A total lampoon film	2008-05-27 20:56:04
32513990	1454727920	Watching quotcharlie wilsons warquot with the boys	2009-04-05 01:45:18
21001337	1090740450	Watched Charlie Wilsons War and The Kingdom both decent movies to check out	2009-01-02 00:40:24
35241718	2023986053	Work out felt good Now time for some thai and charlie wilsons war	2009-06-04 01:32:45
25513661	1207493298	Watching Charlie wilsons war	2009-02-13 19:29:58
8321249	840804328	saw Charlie Wilsons War excellent well except for special effects Smart and relevant to like the world Buying the book That good	2008-06-22 08:49:06
22965942	1146766447	watching Charlie Wilsons War	2009-01-25 14:50:57
9961961	1096159111	Excited to watch Charlie Wilsons War tonight as soon as these monkeys stop playing Limbo w my Swiffer and go to bed	2009-01-05 01:27:04
1177593	594640212	just went to see charlie wilsons war on the phone to twilite	2008-01-13 17:09:56
135577	469738722	on my way to see Charlie Wilsons War at Loews 84th street	2007-12-04 21:41:33
8605660	805207106	Just bought Juno Charlie Wilsons War and the Darjeeling Limited for 22 from 2020 video Froogle in California	2008-05-07 03:11:51
29899304	1323359304	ie charlie wilsons war oceans 11	2009-03-13 19:10:54
49512368	3097284736	just finished watching Charlie Wilsons War with Rob I was so clueless during all of that Man	2009-08-03 02:59:16
8540505	824446190	Charlie Wilsons War is worth seeing	2008-06-01 06:26:36
546452	768943060	Watching Charlie Wilsons War	2008-03-09 17:28:49
7606359	830137417	Recently watched Charlie Wilsons War	2008-06-09 02:34:03
15179573	1808929489	Still havent decided on tonights movie Charlie Wilsons War or WallE	2009-05-15 18:47:11
849710	1084024458	Saw Charlie Wilsons War over the break Wondering if Hollywood will ever depict a Palestinian Refugee camp in such a light 	2008-12-29 15:03:34
13870577	936573066	McCain apologizes for abandoning Afghanistanafter Charlie Wilsons War Glad I saw that movie	2008-09-27 01:53:25
55708191	1169192090	This weekend gmake git python Fast and the Furious 13th Warrior Bullet Employee of the Month SuperBowl Charlie Wilsons War	2009-02-02 07:40:43
1891477	694124332	At Starbucks reading Charlie Wilsons War	2008-02-09 18:39:04
2708	594459532	fredwilson  just watched a screeners copy of Charlie Wilsons War with the Gotham Gal it was 	2008-01-13 15:57:22
3924021	1279220859	Just watched Charlie Wilsons War 2007   	2009-03-04 16:47:52
2674348	2458714868	Watch film Charlie Wilsons War to learn about Afghanistan history US gave Freedom Fighters weapons true story 	2009-07-03 19:41:02
27700069	1282641557	Charlie Wilsons war is bare good So is sausage casserole Today its all about Jim Threapleton Shynola P2 and Tokyo meeting Brap brap	2009-03-05 09:07:44
11761232	1056189678	now rewatching Charlie Wilsons War because I have power and its a pretty incredible movie Aaron Sorkins script is brilliant	2008-12-14 02:23:14
11839535	1108729761	Just finished ampquotCharlie Wilsons Warampquot Not bad	2009-01-10 08:23:18
56015466	1556542771	  I voted for Charlie Wilsons War way more fun than Doubt	2009-04-19 06:15:29
26193039	1321672660	Netflix  Home  Charlie Wilsons War Texas congressman Charlie Wilson Tom Hanks sets a series of earthshaking events	2009-03-13 13:44:08
20157687	2275835344	 Doet mij denken aan het verhaal van de jongen en de ZENmaster dat vertelt wordt in Charlie Wilsons War	2009-06-22 06:46:20
20718430	1628391508	THis reminds me of Charlie Wilsons War  	2009-04-27 12:27:15
22367909	2116027823	Charlie Wilsons War Exclusive Full Frame  Steven Soderbergh Charlie Wilsons War Exclusive Full Frame 	2009-06-11 11:55:26
12545395	1081099624	 Charlie wilsons war was good just know those were bad georgia accents in the movie not the Texan accent those people actually had	2008-12-27 18:19:43
11753909	931286766	Work on the campaign to 10 PM Come home to watch Reagan biopic on PBS Go to sleep reading Charlie Wilsons War Yes I have a a problem	2008-09-23 04:49:51
54932720	529753262	laundry gym then Charlie Wilsons War Thumbs up for days off	2007-12-24 16:38:48
14316132	2379262560	Sudy break to watch Charlie Wilsons War Never seen it Hope its good	2009-06-29 00:41:34
25539254	1147024477	recommends charlie wilsons ware dvd 	2009-01-25 17:23:47
5949939	803661567	Just finished watching charlie wilsons war Now pondering sleep or blog my weekend	2008-05-05 06:08:54
55657876	913950427	Never watch Charlie Wilsons War and JFK in the same weekend  Up all night with dreams of war conspiracy and communism	2008-09-08 15:32:44
11219221	856487333	I am watching Charlie Wilsons War	2008-07-12 12:55:28
32547816	1587845261	How fucking ridiculous The Charlie Wilsons War DVD has a 4 min charity ad that you cant even stop never mind skip	2009-04-22 20:23:38
2324974	508632332	29GuideCharlie Wilsonampaposs War  	2007-12-17 20:08:47
11644983	1502843424	 Im reading Charlie Wilsons War right now Long but good My fav is Sarah Vowells Assassination Vacation though	2009-04-12 13:26:57
5310104	1217886106	charlie wilsons war was actually kind of good  Ive had two netflix success stories lately  That and towelhead were both great	2009-02-17 04:56:36
12495933	1314275813	Oh Everyones being so nice to me But I just had some pho and Im gonna curl up and watch Charlie Wilsons War until I fall asleep	2009-03-12 03:16:36
55809055	1052625173	Sitting down with my parents to watch Charlie Wilsons War Staying in SF next Friday night at  	2008-12-12 02:54:03
31347822	1684296407	Catching up on movies I missed Just watched  Charlie Wilsons War Wellwritten succinct and engaging for politics wonks like me	2009-05-03 03:45:53
46256973	522620352	Saw Charlie Wilsons War It was pretty awesome Also one of the only things Ive seen at AMC that the experience wasnt awful	2007-12-21 23:40:41
18785259	1030193181	They just said dover de in charlie wilsons war I bet people in los angeles dont get excited when they hear their hometown said on tv	2008-11-30 02:46:10
18546710	1110574857	saw Charlie Wilsons War tonight Very well done portrayal of a fascinating piece of history	2009-01-11 06:56:56
6029308	800400674	Iron ManCharlie Wilsons War  uncomfotable satire  flying robot	2008-04-30 14:36:02
15471235	1684942270	Just watched Charlie Wilsons war and i liked it I know i liked it when i want to watch another movie immediatly Rachel gets Married it is	2009-05-03 05:31:48
16054561	1633943587	who did I see quotCharlie Wilsons Warquot with	2009-04-27 23:51:27
5693	2697719051	The Aviator was v good Hollywood seems to be turning out good historicpolitical movies just now See Charlie Wilsons war if u hav not	2009-07-17 23:46:28
6189837	2508767590	Watching Charlie Wilsons War If you havent seen it give it a whirl Great story great acting	2009-07-07 04:07:13
2206990	800687254	looking forward to talking with Charlie Wilson Paul Rieckhoff and Nate Fick during the Charlie Wilsons War house party tonight	2008-04-30 21:07:24
53866429	991687552	quotes from Charlie Wilsons War   something to reflect on as we change	2008-11-05 14:13:14
26457924	1207990365	is watching Charlie Wilsons war	2009-02-13 22:03:13
911714	2261864436	Charlie Wilsons War movie 810	2009-06-21 04:28:44
25020820	1474089473	For those that asked yes the lady from Charlie Wilsons War RT  Just had a nice chat with Joann Herring Wonderful lady	2009-04-08 02:59:53
7280431	803536194	 I thought about checking Charlie Wilsons War out I finally watched Cloverfield last night LOVED IT	2008-05-05 01:41:21
17078685	3110439710	Bought Air Bud I love that movie man  Hahahah  amp Charlie Wilsons War  amp A season of Seinfield  amplt3333	2009-08-03 20:09:21
5406277	795602075	You all have to read and or watch Charlie Wilsons War  All govts are in bed together  They fuck all average people  We wouldnt spend	2008-04-24 02:07:12
26216537	1791193535	Watching Charlie Wilsons War Cute story so far lol	2009-05-14 02:42:20
7625240	795617302	Just finsihed charlie Wilsons War what a great film I recomend it to all	2008-04-24 02:34:12
43379828	3153632816	 Charlie Wilsons War hands down The screenplay was by Aaron Sorkin who is the bomb	2009-08-05 21:45:23
29534393	1706456323	reznor I just watched Charlie Wilsons War and saw greyhounds I was just thinking about asking you how to go about adoptingcrazy	2009-05-05 14:34:24
25193433	626063362	Charlie Wilsons War	2008-01-22 01:49:11
46292618	3655584911	Terminando de assistir quotCharlie Wilsons Warquot no Telecine Gostei do filme	2009-08-31 00:39:41
54198914	753618592	Wait we also saw PS Hoffman in quotCharlie Wilsons Warquothe was snubbed	2008-02-25 02:24:29
45708571	2512094106	says now ill watch CHARLIE WILSONS WAR Tom Hanks amp Julia Roberts yg main Idola gw jg tuu cozy 	2009-07-07 10:15:59
40523056	1979060609	I rated Charlie Wilsons War 3 out of 5 amp9654 	2009-05-31 08:28:46
4184296	890356667	in the first 20 minutes charlie wilsons war had one reused line one gamps joke and one ref to hookers and blow  oh SORKIN	2008-08-17 18:08:00
26246433	3061865891	Charlie Wilsons Wardrobe Malfunction unabbreviatedfilms	2009-08-01 00:56:43
15535395	1507198403	Charlie Wilsons war was the one that back fired  didnt it	2009-04-13 04:10:05
45820287	2705570250	I just gave Charlie Wilsons War 55 100 at Criticker Check it out here 	2009-07-18 12:34:10
28441851	1265212638	Hmmmight watch the first halfhour of Atonement before flipping over to Charlie Wilsons War First espresso	2009-03-01 12:04:44
45921814	3055927531	Watching Charlie Wilsons War for the Third time Great Movie	2009-07-31 18:51:39
25827654	2587551019	I am watching Charlie Wilsons war	2009-07-11 19:19:50
38308476	2183102974	Just watched Charlie Wilsons War  Really great film but Aaron Sorkin shouldnt assume that people are as intelligent as he is	2009-06-15 21:03:01
20240261	1045974572	 Very glad you finally saw Charlie Wilsons War  Great movie	2008-12-08 23:12:21
8321163	1025490039	Home after a great day off Ate lunch at Ajanta w Fred Hanradt and Mitch Bell and now going to watch Charlie Wilsons War w my wife	2008-11-26 23:55:01
35675247	1432817914	Time to watch Charlie Wilsons War	2009-04-01 17:43:49
36135948	1790732632	just finished Charlie Wilsons War AWESOME book I wish I could find Charlies email to tell him Now on to The Intelligent Investor	2009-05-14 01:55:25
28132227	3237468753	 Charlie Wilsons War was very well done havent seen the other two tho Id be curious to hear if theyre good	2009-08-11 02:10:26
55649779	824976183	Is watching charlie wilsons war	2008-06-02 05:06:56
201064	525321032	watching quotThe True Story of Charlie Wilsonquot on the History Channel Had not been aware of this bit of history	2007-12-23 01:35:04
19164783	1057759513	Watching quotCharlie Wilsons Warquot	2008-12-15 02:38:18
13760000	2668077428	 Ha You could use the same title for Charlie Wilsons War but I bet its Der Mann der Afghanistan u vollbusige Frauen lebte	2009-07-16 11:21:16
31204839	2277381445	study not really happening movies sound like a good alternative watch gran torino and charlie wilsons war and doubt and in bruges	2009-06-22 10:44:12
47545455	797815464	Just finished watching Charlie Wilsons War amp Junoboth good movies Now refill my margarita and surf	2008-04-27 03:03:42
6971426	3632702882	watched charlie wilsons war watching bulworth will watch bob roberts its whitemeninpower weekend here  casa del zorah	2009-08-29 21:42:06
3050281	846207280	Charlie Wilsons War is a BORE Surprised Ive managed 57minutes Choice of actors hasnt helped	2008-06-29 14:00:44
6424058	1028875343	Watching Charlie Wilsons War avec ma mere	2008-11-29 02:56:34
20226390	1163718647	Just watched Charlie Wilsonss War  effing awesome movie	2009-01-31 03:47:44
8170831	1077503429	 re Charlie Wilsons War  agreed  The scene when you first meet Gus I cried from laughing so hard	2008-12-25 04:52:38
24948804	1460650528	Watching quotcharlie wilsons warquotwith tom hanks Good movie	2009-04-06 03:00:29
1477996	1621651857	Charlie Wilsons War the book and the film I have now read and seen Charlie Wilson War The book by George C 	2009-04-26 17:12:26
51433400	3158450277	Charlie Wilsons War one of the great movies	2009-08-06 02:22:51
31456110	3224553558	britishmovies Charlie Wilsons Warwick	2009-08-10 13:06:29
1981051	1032696149	off to Watch Charlie Wilsons War by off I mean moving from my desk to the sofa good night all	2008-12-01 18:25:39
13140473	2814322798	Juist finished Charlie Wilsons War Reminded of how great an actor Tom Hanks is	2009-07-24 06:36:01
55706527	813987875	finally watched charlie wilsons war  glad I did	2008-05-18 04:33:11
37750244	1501857646	Okay ere where suckD 2nitewatchN charlie wilsons war	2009-04-12 07:14:13
54721729	938828153	just watched Charlie Wilsons War I feel kinda indifferent about it but still a very good film	2008-09-29 04:46:01
55656736	518195052	 yea Ive enjoyed just about everything hes done Im anticipating Charlie Wilsons War will be a decent flick too	2007-12-20 16:10:47
1546093	985624795	Just finished Cloverfield now watching Charlie Wilsons War	2008-11-01 21:44:09
35947049	1590691335	Charlie WIlsons War w Tom Hanks is a Great Movie  Loved it DvD I know its been out a while 	2009-04-23 02:27:41
55823429	1889596410	As a period piece Charlie Wilsons War is pretty convincing	2009-05-23 02:31:50
9277157	1682159277	Laying down 4 the first time 2day amp watching Charlie Wilsons War Feels good	2009-05-02 22:45:42
25524903	1145993072	Just finished DVD Charlie Wilsons War w Tom Hanks  Used to be enormous Hanks fan yet not anymore Cant figure out why Little help	2009-01-25 03:35:13
2157683	2732289206	Phillip Seymour Hoffman es la mamada en Charlie Wilsons War Todo lo que sale de su boca es cagadisimo	2009-07-20 03:13:21
22735678	1728313518	Grammy Award Winners Lilamp39 Kim Charlie Wilson and TPainamp39s New  	2009-05-07 16:04:30
26920870	2109286683	Charlie Wilson8217s War Widescreen 	2009-06-10 22:28:43
34303580	2164817202	CHARLIE WILSONS WAR Angels amp Demons star Tom Hanks in Mike Nichols look at US Afghanistan Policy in the Cold War 	2009-06-14 13:06:40
14526817	1068490319	Watching Charlie Wilsons War Decided Im running for congress	2008-12-20 04:21:29
55999050	1699835066	Guy Remember  This is Charlie Wilson War film performed by Tom Hanks 9835  	2009-05-04 21:46:45
50633845	1373042350	we are going to watch charlie wilsons war	2009-03-23 00:53:54
3422320	1171779319	Hot tub scene lands Charlie Wilsons War partial nudity sticker  update on yesterdays STotC post	2009-02-03 02:43:36
39025741	1591328033	Movie Review Questions  Is the movie Charlie Wilsons War accurate   	2009-04-23 03:54:21
7136501	804372306	Watching Charlie Wilsons War	2008-05-06 03:06:38
35634909	2901423188	Charlie Wilsons  warwow	2009-07-29 01:50:30
14332699	3605808833	 Amy Adams Shes in Talladega Nights with Will Farrell and Charlie Wilsons War with Philip Seymour Hoffman	2009-08-28 16:28:19
7686987	945791390	Just watched Charlie Wilsons War Great flick Loved Philip Seymour Hoffman	2008-10-04 03:40:26
25512816	2253708707	Managed to squeeze in a viewing of Charlie Wilsons War this morning Philip Seymour Hoffman excellent as the obstreperous Gust Avrakotos	2009-06-20 15:36:59
55870027	864643181	Done enough work emails for the night and the computer bores me Guess Ill watch a movie on demand Charlie Wilsons War Need ice cre	2008-07-22 00:48:24
41160832	3588609626	 Im looking forward to it Also I heard the song Dream with you Faith Evans Charlie Wilson JoJo Omarion etc and it is hot	2009-08-27 21:48:15
38168579	2903493369	charlie wilsons war  good movie	2009-07-29 04:02:11
3032906	809693137	ali I was thinking that tooI know dez would love that since its a chick flick I was also thinking Charlie Wilsons War	2008-05-12 22:13:46
22979863	2820618150	watched Charlie Wilsons War last night finally big let down plotwise but superbly acted esp by Tom Hanks and Phillip Seymour Hoffman	2009-07-24 15:54:43
32536665	2260215356	Just finished watching Charlie Wilsons War I wonder if its true that he asked for school funding damnamericangovernment	2009-06-21 01:51:35
12968626	867990154	Im so surprised I liked Charlie Wilsons War that Im over how much I hated Hancock	2008-07-25 11:24:14
55860654	554901752	Thinking about the ironic usage of Handels Messiah during battle scenes in Charlie Wilsons War	2008-01-02 12:32:42
49058496	1760483721	terminando de ver Charlie Wilsons War Pelicul243n	2009-05-11 04:40:01
5651	2600948423	got80s Finally watching Charlie Wilsons War Like it so farfb got80s Finally watching Charlie Wilsons War 	2009-07-12 17:34:52
22273221	1101470014	Charlie wilsons war is a good movie off to bed	2009-01-07 08:38:13
10631227	1057975525	Sucked into watching Charlie Wilsons War about 3X this week Hanks amp Hoffman are amazing Not sure how I missed this movie before now	2008-12-15 05:20:37
35440761	1401664962	Reading about the Afghanistan plan and watching Charlie Wilsons War	2009-03-27 15:55:26
55949049	763704695	Charlie Wilsons War was okay  Definitely worth 50 cents  Starbux made the night worth going out	2008-02-27 03:52:15
51352212	692800672	Just saw Charlie Wilsons War at the movies was pretty good	2008-02-09 06:33:38
17290986	1660152261	Video interview with ninetime Emmy Awardwinner Aaron Sorkin The West Wing A Few Good Men Charlie Wilsons War 	2009-04-30 16:02:49
27150179	1333875240	Julia Roberts in Charlie Wilsons War worst movie accent of all time	2009-03-16 00:30:08
27220974	508042412	Charlie Wilsons War Slightly clunky comedy drama which I enjoyed all the same 12	2007-12-17 16:20:47
48316504	2251242043	after waking up and watching Charlie Wilsons War again is goint to play Neverwinter Nights cause i can	2009-06-20 09:53:05
28485206	2115701166	 der krieg des charlie wilson Cooler film was war bei dir noch los	2009-06-11 11:03:11
53092538	1054870111	Ever see a movie that was fantastic but marketed so badly you wrote it off See quot Charlie Wilsons Warquot great movie	2008-12-13 05:30:31
55968117	567909712	By the way I saw Charlie Wilsons War  It was fantastic  Two thumbs up in my book	2008-01-06 10:15:09
5965690	920712524	 good thing I also have quotCharlie Wilsons Warquot  Dont plan on getting dressed tomorrow	2008-09-14 03:27:14
52791058	688201802	 Charlie Wilsons War Sorkin is amazing and Im Not There the Dylan documentary both are great	2008-02-07 20:14:17
37760104	2580561234	Watching quotCharlie Wilsons Warquot on DVD It had trailers at the start Remember trailers at the start of movies you rented Trailers	2009-07-11 06:19:31
21803802	1141081736	charlie wilsons war	2009-01-23 03:59:45
16109716	2585635663	 Charlie Wilsons War was awesome I had never seen it Brokeback or Nims I liked them all Brokebacks ending killed me	2009-07-11 16:41:08
34627221	3136249559	Charlie wilsons war is an underrated movie Hell yeah Tom hanks	2009-08-05 01:31:07
55845814	2839193228	Gee Bought charlie wilsons war noval 	2009-07-25 16:30:19
29106808	1642934054	Reading Charlie Wilsons War Three Cups of Tea and Twilight  sucker pun for vampires 	2009-04-28 21:33:44
55712766	531101962	Charlie Wilsons war is a great movie	2007-12-25 03:38:16
33846906	1507278916	Watching Charlie Wilsons WarJulia Robertssmoking hot amp She totally into GREEN	2009-04-13 04:27:09
27206059	1196759014	2nd attempt to watch Charlie Wilsons War tonight Fell asleep last night Looks good from what I saw though Typical Sorkin 	2009-02-10 20:42:50
5949509	1035534773	Charlie Wilsons War is on HBO HD right now Think Ill pour another beer and watch it	2008-12-03 04:02:41
11342631	885752381	Hmmm Phelps isnt on till after 10 Think Ill watch Charlie Wilsons War Anybody seen it	2008-08-13 00:02:41
55696165	799239219	Just watched Charlie Wilsons War  on dvd Should have been called Jack Wheelers War Id say what I know but then Id have to kill you	2008-04-29 03:41:03
55997197	538580552	On my way to see Charlie Wilsons War Maybe some more after LETS HOPE	2007-12-27 17:43:27
53363740	784265358	And he shall purify  saw Charlie Wilsons war yesterday  great movie	2008-04-07 08:37:37
22602790	1107215495	Charlie Wilsons War  	2009-01-09 17:39:38
5356218	992595107	About to watch Charlie Wilsons War	2008-11-06 01:13:25
30276626	1336602557	thinks Charlie Wilsons War is a really boringslowtediousbad film is anyone with me xx	2009-03-16 14:56:27
199175	846431947	Watchin quotCharlie Wilsons Warquot Very funny	2008-06-29 21:53:07
55846659	821308493	movie timeCharlie Wilsons War	2008-05-28 00:08:47
789749	571847782	No Country for Old Men was really good Listening to a Podcast about the ending now Seriously check it out Also Charlie Wilsons War	2008-01-07 14:26:15
27896589	1902596509	 Right now Im reading Atlas Shrugged by Ayn Rand I have Charlie Wilsons war waiting and Alinskys Rules for Radicals	2009-05-24 13:53:24
2407	496026052	Maggie Grace  8220Charlie Wilson8217s War8221 World Premiere After a break in 2006 Grace returned to both s 	2007-12-13 05:11:27
20404302	1138071189	 That was a movie recently Charlie Wilsons War how few got that point	2009-01-22 02:52:17
50272248	1060296884	Watch Charlie Wilsons War good movie explains it better than i can 	2008-12-16 09:06:35
7853282	899525570	 And just opened themselves up to several lawsuits Theres a quote from Charlie Wilsons War Id like to usebut wont 	2008-08-26 17:01:34
39428746	1616850672	Watching quotCharlie Wilsons Warquot love the music I can remember that time the 80s	2009-04-26 00:20:50
46034779	3203647884	6 Charlie Wilsons War Widescreen 	2009-08-09 06:18:55
43844524	1151441495	Have you seen Charlie Wilsons War yet You really should	2009-01-27 06:49:00
55939418	1044400391	watching charlie wilsons war	2008-12-08 03:10:13
37562989	1876593607	Valkyrie Charlie Wilsons War and Man of the Year what to watch first	2009-05-21 23:39:19
6202497	1094945048	About to settle in to watch Charlie Wilsons War  IMDB says good things I dont mind a bit of Tom Hanks	2009-01-04 09:32:22
55691057	618641802	back from seeing charlie wilsons war which is quite an enjoyable movie	2008-01-19 23:53:14
2592258	551213202	Just got back from seeing Charlie Wilsons War It was really good I love just about anything Aaron Sorkin writes	2008-01-01 03:01:18
2206990	796255006	checking to see if there are any local IAVACharlie Wilsons War House Parties on April 30th at wwwiavaorgcharliewilsonswar	2008-04-24 21:31:23
6190114	2509745729	Lets not be fooled by political events that take place around us Many movies such as quotLord of Warquot quotCharlie Wilsons Warquot are the proof	2009-07-07 05:27:50
14804575	916466118	Charlie Wilsons WarExcellent Now time for bed Much cleaning to do tomorrow	2008-09-10 14:50:10
55764558	621336062	Charlie Wilsons War Puff piece on world history with a crackling whipsmart script from Aaron Sorkin	2008-01-20 21:19:30
55716038	521292512	Hahahah Om Puri plays Zia People need to see Charlie Wilsons War	2007-12-21 14:43:55
13651545	1064066560	Watching Charlie Wilsons War with the family	2008-12-18 01:55:46
6919545	797819360	Downing a 5 Hour Energy Shot journaling and watching Charlie Wilsons War	2008-04-27 03:12:41
26796812	2330616167	 Ohio dem Charlie Wilson is leaning toward no Burn up the phones2022255705	2009-06-25 19:12:01
53212694	1122348096	Wacthing Charlie Wilsons War quotI cant do thatquot quotwhyquot quotCause its agaisnt a shit load of really goodLawsquot	2009-01-15 23:40:06
55969767	1163338059	Fish amp chips were good Charlie wilsons war was good Catching 5 mins of Paris hiltons new tv show Not so good Why does she exist	2009-01-31 00:27:08
13917953	884489297	 it was weird watching Charlie Wilsons war last night while Russian conflicts are occurring too	2008-08-11 20:30:23
2509460	919758680	Charlie wilson war Just watched it Good movie	2008-09-13 03:47:54
52795857	824888386	 Charlie Wilsons War 39 Manages to make politics interesting Good bit of wheeling and dealing Entertaining	2008-06-02 00:52:50
11679002	939580619	Charlie Wilsons War stars Tom Hanks Check it out	2008-09-29 18:58:46
4799503	799164966	Charlie Wilsons War is great 	2008-04-29 01:23:42
55782002	1304934047	Colorful Cold Warbusting Congressman Charlie Wilson is coming to campus today	2009-03-10 11:27:18
24608628	1338885911	Just watched Charlie Wilsons War Tom Hanks was great as expected The film was a little Hollywood but most enjoyable	2009-03-16 22:20:08
2171724	2252446995	Why is Congress saying one thing and doing nothing  Well tradition mostly Charlie Wilsons War	2009-06-20 13:17:09
53056041	1372288729	watching Charlie Wilsons War pretty interesting movie	2009-03-22 21:56:23
1535740	596509562	Saw Charlie Wilsons War Liked it Entertaining maps and chaps stuff	2008-01-14 06:23:05
20239490	1231861111	For my perfect evening should I watch American Gangster or Charlie Wilsons War  Please reply or RT 	2009-02-20 20:10:40
3119535	812546582	Just watched quotCharlie Wilsons Warquot it was pretty darn good	2008-05-16 06:43:47
1043207	805969770	painting cancelled  got distracted by Charlie Wilsons War	2008-05-08 00:49:18
7376898	1126936031	quotCharlie Wilsons Warquot Nothing great nothing terrible I wont remember it at all next week Julia Roberts in a bikini was weird	2009-01-17 21:53:17
4864025	1264513690	tuttle both good movies but for different reasons Im in a political mood so watch Charlie Wilsons War Ill Watch quotWquot	2009-03-01 04:56:17
55926678	861323702	philip seymour hoffman em charlie wilsons war  JOHN GOODMAN o cara 233 t227o bom que atua como se fosse um outro ator O	2008-07-17 21:51:38
936329	550806402	Off to Charlie Wilsons War	2007-12-31 23:35:03
22958025	2305604947	Just watched charlie wilsons war good movie	2009-06-24 04:03:15
46038698	3203591235	FriendFeedebooks 6 Charlie Wilsons War Widescreen 	2009-08-09 06:11:50
55701750	824988506	Just finished Charlie Wilsons War good movie Philip Seymor Hoffman is hilarious Time for bed see you all in the mornin	2008-06-02 05:36:23
5406277	795581464	watching charlie wilsons war  Now this guy had it figured out  In more ways then one	2008-04-24 01:30:33
38803197	3346089406	I am reading a book quotCharlie Wilsons War at the same time	2009-08-16 16:28:56
3609	904530927	watching moviecharlie wilsons war	2008-08-31 03:44:51
31201036	769012039	Zojuist Charlie Wilsons War gekeken Zeer goede maar vooral fascinerende film Zeker een aanrader dus Nu naar bed truste	2008-03-09 21:07:30
40373357	2526326379	India Post Zen and the art of Charlie Wilsonamp39s war 	2009-07-08 03:12:49
9661400	828067258	couch movie Charlie Wilsons War pizza combo popcorn with MampMs PJs cocktails  Thursday Night Movie	2008-06-05 23:58:44
38982186	1820602952	is finding that Charlie Wilsons war is pretty good when sober	2009-05-16 22:20:07
55906673	870766224	Thats My Bush meets Charlie Wilsons War meets Dr Strangelove Rove lobbing a daisy cutter into Juliette Lewis briar patch et cetera	2008-07-28 17:42:53
35558350	1819784588	If U Havent Seen Charlie Wilsons War U Should Its A Great Movie 	2009-05-16 20:47:24
55374367	3485438242	deciding whether to watch charlie wilsons war or capote i love philip seymour hoffman an excellent actor	2009-08-23 03:44:35
12828087	1030094898	Watching Charlie Wilsons War and trying not to think about eating something bad for me	2008-11-30 01:13:18
7754233	797154065	watching Charlie Wilsons War	2008-04-26 00:40:56
4834225	1222366619	Tom Hanks and Philip Seymore Hoffman were great in Charlie Wilsons War  	2009-02-18 10:24:32
6584026	807726880	watching charlie Wilsons war	2008-05-10 02:39:45
55933140	786964737	Loading the phone with mucho goodness Jack Johnson lots of old BOL podcasts and Charlie Wilsons War unabridged audiobook	2008-04-11 05:15:44
34087608	3269423710	New Blog Entry 8220Charlie Wilson to Joanne Herring8217s war8221   	2009-08-12 17:49:30
53301049	519461452	is in line for Charlie Wilsons War but isnt going to make it in Too many other freeloaders	2007-12-21 00:27:39
1236836	858729215	Just got back from watching Charlie Wilsons War good flick  Staying up late to do a code release	2008-07-15 05:45:30
52299285	1065766356	 See EXACTLY That is why I couldnt deal with Tom Hanks until Road to PerditionCharlie Wilsons War	2008-12-18 21:24:45
166940	548116022	We are off to see Charlie Wilsons Warwill keep you posted	2007-12-31 03:12:21
26493189	1287797602	Upside of being ill has meant Ive been able to watch stuff Cloverfield quite enjoyable Charlie Wilsons War very enjoyable	2009-03-06 10:55:31
55855665	518823722	I am looking forward to seeing Sweeney Todd Charlie Wilsons War and possibly Atonement any other movie recs	2007-12-20 19:58:52
55864782	1132356208	Just watched Charlie Wilsons War with my wife  Great movie	2009-01-20 04:32:21
17772512	1355777798	likes Charlie Wilsons War on Boxee check it out at 	2009-03-19 18:09:28
11677825	1539675498	Just watched Charlie Wilsons War I liked how they did the 911 tie in which was a prologue in the book	2009-04-17 04:36:10
816323	928194762	Watched Charlie Wilsons War great movie with several funny moments	2008-09-20 07:23:53
9120268	2408873547	Charlie Wilsons War on DVD Jesus this is worse than getting ambushed by Simon Bates GO AWAY Gwynneth	2009-06-30 20:09:07
55921808	828887365	Watching Charlie Wilsons Wargood movie	2008-06-07 05:00:11
23899734	2032282523	 Didnt like Charlie Wilsons War either Tend to really hate Aaron Sorkin Did like Catch22 and The Graduate	2009-06-04 18:02:12
456690	1099726648	West Wing to Charlie Wilsons War	2009-01-06 16:08:47
19886843	2447478162	Watching Charlie Wilsons WarI love Phillip Seymour Hoffmanscene stealer	2009-07-03 02:21:13
25116981	2166441051	Watching Charlie Wilsons War wLOMLSo far its shown me how politically and historically stupid I am Wow Good to know	2009-06-14 16:32:56
5113623	833529283	probably Charlie Wilsons war	2008-06-13 02:38:19
9196901	908993673	Watched Palins speech and Charlie Wilsons War in the same night Wishes more Republicans were like Charlie Wilson	2008-09-04 03:56:24
41861794	813095789	Back from good time in Newport and settling in for rainy day double feature of quotCharlie Wilsons Warquot and quotSweeney Toddquot  Lost amp Office	2008-05-16 20:57:34
6091761	842429682	we rented and watched quotCharlie Wilsons Warquot and quotFools Goldquot  well all I can say was quotCharlie Wilsons Warquot was a great movie	2008-06-24 12:58:35
35936531	2611103327	I may now be watchin the most boring movie  Charlie wilsons war  Bleh	2009-07-13 07:39:51
5024997	800093378	Charlie Wilsons War	2008-04-30 04:18:04
55822802	825190872	Other weekend movie reviews Charlie Wilsons War OK Michael Clayton very good	2008-06-02 14:26:46
7857011	1301238060	Watched quotCharlie Wilsons Warquot this weekend Interesting to see how things happen when a person in Congress actually cares	2009-03-09 17:18:35
7505658	792811436	is watching charlie wilsons war	2008-04-20 03:57:13
13363942	1019312984	Bucked the trend and sat down for a movie first thing this morning  Charlie Wilsons War  Verah good verah nice thank you	2008-11-23 11:49:37
50422484	851962253	 do you by chance mean Charlie Wilsons War 	2008-07-07 13:18:45
19385043	1264506627	  wife used Charlie Wilsons War for a class at Widener University this year  Its on my list of to reads	2009-03-01 04:53:12
47214541	1031596681	Watching Charlie Wilsons War to see if Hanks and Roberts make it all worthwhile	2008-12-01 02:48:42
37884764	2156488862	Watching Charlie Wilsons War makes me want to be an Congressmans aide All of the political excitement but none of the indictments	2009-06-13 18:53:43
8973537	808781082	Im watching Charlie Wilsons War with my mother and Niece	2008-05-11 18:36:13
51172712	835843411	watched charlie wilsons war great movie love the quote at the end	2008-06-16 09:38:42
43286725	3184176858	charlie wilsons war brilliant fim	2009-08-07 22:01:41
55619248	3547579046	Watchin quotCharlie Wilsons Warquot on HBO	2009-08-26 01:40:53
5829175	1059915612	Just bought No Country for Old Men Cloverfield which I havent seen yet Lars and the Real Girl and Charlie Wilsons War 20 for all	2008-12-16 03:31:13
5780509	1885209780	watching The True Story of Charlie WilsonI liked the movie Charlie Wilsons War even if it wasnt particularly good	2009-05-22 18:23:48
1406385	566441742	watching Charlie wilsons war in a packed movie theater	2008-01-05 22:11:07
55885753	1033525200	Im watching Charlie Wilsons War  Think I should know much about the topic before I watch this Im a little lost sad to say	2008-12-02 03:26:18
55899095	1329405930	Right  thats Charlie Wilsons War finished Time for In Bruges with a nice bottle of red	2009-03-15 00:37:46
55874497	870152436	Watching Charlie Wilsons War now	2008-07-28 01:54:30
50689735	1056944772	I love the clothing Charlie Wilsons War	2008-12-14 16:18:56
868866	528127032	Just saw Charlie Wilsons War Philip Seymore Hoffman reminded me why he is one of my favorite actors Hes brilliant	2007-12-24 03:33:57
16068184	1555474241	Watching Charlie Wilsons War	2009-04-19 02:49:26
19047950	1052978403	Charlie Wilsons War  good The IRL footage of Soviet casualties is sobering USA fo life but at what cost Bubye USSR exiting Afghanistan	2008-12-12 07:30:49
6269371	924114275	finally watching Charlie Wilsons War  messed up recent US history  scary how much power some rich people have 	2008-09-17 02:11:49
7820568	1195008090	 to quote Philip Seymour Hoffmans character in Charlie Wilsons War now thats a bit paranoid 	2009-02-10 10:05:39
5250734	1892319652	When the world wasnt looking he changed it forever Watch Charlie Wilsons War tonight at 9 pm only on HBO	2009-05-23 10:30:30
22337600	2021416148	just watched charlie wilsons war it was a good movie	2009-06-03 21:23:53
19778698	1083004934	in Sun Peaks and watching Charlie Wilsons War	2008-12-28 23:40:18
23028346	2573396391	Raspberry Ripple Ice Cream pringles and Charlie Wilsons War goodtimes	2009-07-10 20:43:51
55654573	1282193696	For those who dont know  Julia Roberts played Joanne Herring in the movie Charlie Wilsons War  And David is IMHO future POTUS 	2009-03-05 05:44:36
12545932	1007495751	Watching Charlie Wilsons War pretty sexy so far	2008-11-15 22:08:40
56013190	854234160	saw Charlie Wilsons War today  geez we should have built that school in Afganistan	2008-07-10 01:36:09
56022823	629092392	Charlie Wilsons War is really quite good Great characters  story	2008-01-22 19:20:28
868078	1298334238	 Ive got a review on Charlie Wilsons War for ya	2009-03-09 00:48:37
1632226	545082492	Getting ready to eat Mongolian and see Charlie Wilsons War Ho hum	2007-12-30 00:54:23
453096	543124812	Went to the movies saw Charlie Wilsons war A great movie First that my wife and I have seen together since Ray	2007-12-29 07:43:00
40578977	1243741212	Watched Charlie Wilsons War Great stuff	2009-02-24 04:50:41
6171729	840918632	Charlie Wilsons War gezien Fantastische film vooral waar gebeurde verhaal erachter	2008-06-22 13:37:13
55997197	538902072	Charlie Wilsons War was good Now on to Lars and The Real Girl	2007-12-27 20:00:55
7046160	824517808	I went to see the movie quotCHARLIE WILSONS WARquot	2008-06-01 10:16:11
15238959	1060262026	Charlie Wilsons War is one of the best movies ive ever seen Going to bed now	2008-12-16 08:28:26
426271	1097493605	Insight into the quelling of violence in Iraq  reminiscent of Charlie Wilsons War	2009-01-05 17:15:53
32301014	2843384535	at home watch the Tom Hanks movie charlie wilsons war so far its excellent	2009-07-25 21:49:33
10344351	852300754	Your Not Dumb Your Just In Congress PHILIP SEYMOUR HOFFMAN IN CHARLIE WILSONS WAR	2008-07-07 21:15:59
11466754	1382880751	charlie wilsons war  to assistindo	2009-03-24 17:25:28
32961696	2118632906	Walmartcom  Videos  Charlie Wilsons War Exclusive Full Frame  Steven Soderbergh  1996 	2009-06-11 16:14:35
27273308	1193647369	Going to watch Charlie Wilsons War Tom Hankypanky	2009-02-09 23:36:06
300399	1008336618	Watched Charlie Wilsons War last nite Great movie	2008-11-16 16:12:02
55813839	804317454	Charlie Wilsons WarIm running for congress	2008-05-06 01:27:37
21504945	1561345001	OMG  Charlie Wilsons War is hysterical in parts and upsetting in others Love the belly dancing scene Too funny	2009-04-19 23:40:23
15315939	1045543305	Charlie Wilsons War FTW	2008-12-08 19:02:22
55314301	525305252	  Let me know what you think about Charlie Wilsons War I hope they did not goof it up	2007-12-23 01:24:50
13644714	1754130882	watching Charlie Wilsons War	2009-05-10 12:06:15
38895484	2026906333	Current Docket quotERquot Season Three quotCharlie Wilsons Warquot paperback Dov Davidoffs quotThe Point Isquot and working on quotCheaterquot	2009-06-04 07:12:16
15886214	1998068738	The real crime is that Philip Seymour Hoffmans fuck you you fucking child scene from Charlie Wilsons War aint on YouTube	2009-06-02 00:56:27
55734619	668310822	hmmm might watch Charlie Wilsons War today	2008-02-02 01:00:31
31128659	2587664045	Watching Charlie Wilsons War anybody seen it Any good	2009-07-11 19:29:22
52689686	829543069	Just watched Charlie Wilsons War and now we are going to watch Zodiac I guess this is a movie night 	2008-06-08 04:11:51
5189193	803220651	 K suggests watching Charlie Wilsons War after 4  He bought it yesterday	2008-05-04 14:46:12
7215129	827438572	2 stars for Charlie Wilsons War catnot asleep	2008-06-05 06:17:17
33134561	1932797528	RT  A line in the movie Charlie Wilsons War  What do you want to be when you grow up	2009-05-27 05:14:34
3133045	835604438	Ok back to movie nightgonna watch Charlie Wilsons Ware now  	2008-06-16 01:05:14
39156857	3115519068	RT  Ha Charlie Wilsons War just started Wish US could do the same for Iranian people gr88 iranelection	2009-08-04 01:23:33
34212106	2120184321	Movie  DVD Deal Walmartcom  Charlie Wilsons War Exclusive Full Frame  Steven Soderberg 	2009-06-11 18:24:20
55827462	808400776	 Charlie Wilsons War Two Thumbs up	2008-05-11 03:33:00
9800774	764611397	 Check out Charlie Wilsons War if you havent already	2008-02-28 20:14:28
5146560	1031479175	Watching Charlie Wilsons War Julia Roberts looks like a sea bass dressed up as Career Barbie in a bad wig	2008-12-01 01:14:36
45345833	2201344439	Mommy is going to put everyone to bed now her movie isnt that good Charlie Wilsons war	2009-06-17 03:08:41
56008203	870272584	just watched Charlie Wilsons War on PPVhilariousespecially enjoyed the witty writing job by Aaron Sorkin	2008-07-28 05:10:50
22960548	1568174669	Watch ampgt Ghost Town The Science of Sleep or Charlie Wilsons War amplt tonight	2009-04-20 19:34:00
54386274	829560206	Watching Charlie Wilsons War	2008-06-08 04:51:56
50642050	2731519006	Finished watching Charlie Wilsons War Loved it	2009-07-20 02:19:34
56020999	819833848	Making a backup of a few movies Juno Charlie Wilsons War amp 27 Dresses You know just in case I lose the originals in a fire	2008-05-26 00:45:06
908023	649781852	Viggo Mortensen get Oscar nomination for talking less in Eastern PromisesTom Hanks is better in Charlie Wilsons War	2008-01-28 07:51:03
1891477	644580842	Reading Charlie Wilsons War at sbux	2008-01-26 19:19:58
23225439	1522874202	charlie wilsons war netflix goes quite hard	2009-04-15 04:11:22
14736919	2556978122	Likes Charlie Wilsons War Okay we armed Afghanistan so they could defeat the Russians  are they    movies	2009-07-09 21:23:09
8533256	1471343812	forgot how good charlie wilsons war was	2009-04-07 19:02:53
40090898	2294338890	Watched charlie wilsons war Great movie Interesting story amp lesson	2009-06-23 13:24:35
7856921	1035202008	Trying to decide whether to watch Citizen Kane for the 10th time or Charlie Wilsons War which I havent seen yet	2008-12-03 00:14:31
33218211	2107549093	 Kan ikke mye om utenlandsstyrkene men anbefaler Charlie Wilsons War som Afghanistanbakgrunn og som fantastisk bok L229ne	2009-06-10 20:00:18
31998911	1341013390	slept well last night Anusol cream amp supps did the trick awwh eek Tom Hanks Charlie Wilsons War good watch X2 Could go a Bacon sarnie	2009-03-17 07:25:03
765816	829482166	Expected  Charlie Wilsons War to be less comical and stereotypical Aside from that and Julia Roberts enjoyable in its way	2008-06-08 01:50:09
599860	568165652	Charlie Wilsons War was great I especially liked the acting and the blowback quote from Wilson that filled the screen before the credits	2008-01-06 12:38:07
28962751	2106583509	Charlie Wilsons War is a great film to get a taste of what really happens in the world of international politics 	2009-06-10 18:35:12
55406228	1031730683	Late to the party Just finished watching Charlie Wilsons War	2008-12-01 04:36:58
3035532	681183932	Charlie Wilsons War  Dont know what to think exactly He changed the world but they messed up in the endgame	2008-02-05 20:42:52
55974808	874363304	Just watched Charlie Wilsons War with my wife and dogs We all liked it Back to social bookmarking with a great system for an hour now	2008-08-01 04:04:55
4799503	799098066	heading to greggs with matty to go watch Charlie Wilsons War	2008-04-28 23:20:38
29290056	2092207336	tonights plans are read more Hearts In Atlantis and then later watch Charlie Wilsons War but then ill probably do neither	2009-06-09 17:48:07
17190585	2160834835	Pasta and Charlie Wilsons War with my parents	2009-06-14 02:41:29
8509233	1060795261	Got home and watched Charlie Wilsons War last night Great movie I am now exhausted I am a picture of self control and discipline	2008-12-16 15:39:53
25500435	1749935685	Just finished watching Charlie Wilsons war  a good watch	2009-05-09 22:48:24
55929103	803697834	Charlie wilsons war  Rawr 	2008-05-05 07:43:28
10499134	1032129370	Finished pushing a pram around watching Charlie Wilsons war and some late night emailing A productive day all told	2008-12-01 12:08:15
9644988	1092103851	 I saw Capote after Charlie Wilsons War  I know bad Sique	2009-01-02 19:46:47
55969979	1062061330	Blog post Charlie Wilsons War Tonight I watched Charlie Wilson8217s War 2007R ScreenIt Reviewamp 	2008-12-17 03:32:13
5356218	992709881	Wow the end of Charlie Wilsons war explains everything	2008-11-06 02:47:56
12249034	1264492926	Charlie Wilsons War by George Crile is one of those nonfiction books that reads like fiction	2009-03-01 04:47:18
171119	936573651	I really wish Charlie Wilsons War had gone more into how much we fucked up the endgame in afghanistan as charlie wilson put it	2008-09-27 01:53:45
2581	545424952	aw Charlie Wilsons War Nice lil flick Now drinking some wine	2007-12-30 03:50:11
13577179	1813206786	Anyone know if charlie wilsons war was any good	2009-05-16 03:05:25
6483525	802775871	Charlie Wilsons War was good  Off to look at Hot Water Heaters and take the kids bowling	2008-05-03 19:48:51
5044	1729527899	Grammy Award Winners Lil Kim Charlie Wilson and TPains New Music Video quotDOWNLOADquot Featuring urFooz El S 	2009-05-07 18:21:50
55917912	581782542	About to watch Charlie Wilsons War	2008-01-10 01:29:15
55695677	533623702	Watching Charlie Wilsons War	2007-12-26 02:45:35
56023533	550714092	Just saw Charlie Wilsons War The ending is deep given what has transpired since	2007-12-31 22:53:39
54418330	3188113200	Philip Seymour Hoffman is fn great in Charlie Wilsons War Tom Hanks amp Amy Adams both good Julia Roberts wellalso appears in the movie	2009-08-08 03:14:19
55941130	1064324361	Watching quotCharlie Wilsons Warquot again Great movie Phillip Seymour Hoffman is amazing	2008-12-18 04:44:38
5015	1695005701	Jenny Charlie Wilsons War  it turns out that its actually booze guns and hot women that make the world go round Entertaining enough	2009-05-04 11:54:02
34803852	3173456326	finished Charlie Wilsons War this week excellent book re macro and micro politics	2009-08-07 03:23:37
7948385	2200598227	Watching Charlie Wilsons War for the 2nd time in as many nights Forgot how good a movie this was for a govt type like me	2009-06-17 02:07:01
2454	526635302	leolaporte Charlie Wilsons War was such a disappointment How can you go wrong with Mike Nichols and 	2007-12-23 15:12:19
56014968	841415460	Charlie Wilsons War recommended	2008-06-23 06:14:15
28273784	3323848159	Watching Charlie Wilsons War	2009-08-15 05:42:23
55837361	896978545	Charlie Wilsons War pretty good in my book	2008-08-24 02:10:17
16136737	1094857172	being prematurely aged by lemurias blockbuster choices charlie wilsons war on a saturday night seriously	2009-01-04 07:41:51
34125896	2060261729	Charlie Wilsons War is boring	2009-06-07 01:34:16
16584065	1090867519	Just finished watching Charlie Wilsons War counting the hours until Barack Obamas inauguration and the end of the Bush era	2009-01-02 02:16:57
40371346	1709080109	Boyz II Men amp Charlie Wilson will b here 515  Black Expo this year Wondering if I should go or not Im leaning 2wards NOT right now	2009-05-05 19:24:48
10655674	1298468239	Very tired after todays shootfinishing another viewing of Charlie Wilsons War with  for presentation Thursthen early bedtime	2009-03-09 01:27:39
26356369	2177498640	Just finished watching quotCharlie Wilsons Warquot a movie about defeating the USSR in afghanistan Tutorial of bringing down Mi24t55 etc	2009-06-15 13:12:46
15327316	2259708506	Watching Charlie Wilsons Waractually not really paying attention to it D	2009-06-21 01:01:58
20137259	1437186919	 Deuces Wild Wild West of Here amp There Will be blood Brothers Three to Tango Charlie Wilsons WarLock Stock amp Two Smoking Barrels	2009-04-02 08:11:55
17965884	1261059927	is watching Charlie Wilsons War at home while on lunch break from school	2009-02-28 04:21:28
5657119	1243297118	 Ah yes  Charlie Wilsons War  I didnt see it either  Im looking forward to having her back in more movies though	2009-02-24 02:18:38
8090182	846463316	Watching Charlie Wilsons War	2008-06-29 22:45:18
9649846	819702782	got home from Church now going to cook lunch and watch Charlie Wilsons War	2008-05-25 19:48:02
1628077	841361190	On Charlie Wilsons War You know a movie	2008-06-23 04:17:46
28063580	2540425262	Watching Charlie Wilsons War Excellent and well written film The snappy dialogues made me laugh out loud a couple of times	2009-07-08 22:50:53
35363957	1481046668	Is about to start watching Charlie Wilsons War	2009-04-09 02:55:40
17174996	1078960594	Charlie Wilsons war is the sweetest movie ive seen in awhile	2008-12-26 05:58:08
41977769	3615128266	watching Charlie Wilsons War on HBO and having a slice of bread and a cup of ice tea	2009-08-29 00:28:28
9485866	1032511768	I watched Charlie Wilsons War last night  It was meh  Philip Seymour Hoffman stole the show from Hanks and Roberts	2008-12-01 16:34:45
32289043	2477174078	Charlie Wilson is doing Lets Chill and he sounds better than Aaron Hall did on the BET Awards	2009-07-05 02:18:30
571072	816250667	watching Charlie Wilsons War	2008-05-21 03:34:41
1818191	1563071591	Dinner was great Charlie Wilsons War wellit was just ok	2009-04-20 04:37:55
27313370	1227498768	just watched charlie wilsons war with dad wishing i had an aaron sorkin is my master tshirt the joss whedon one would be nice too	2009-02-19 18:01:56
6458783	872096314	 for some reason Dark Knight isnt appealing to me We have Charlie Wilsons War here from Netflix might watch that tonight	2008-07-30 00:26:24
20894430	1039070750	Charlie Wilsons War gekeken Leuk hoor	2008-12-04 22:51:35
7507991	3124331199	Charlie Wilsons War180 DVD No review Ironically more narrative amp visual brilliance in sponsored opener 	2009-08-04 13:47:27
8730224	2248601769	 Charlie Wilsons war Transformers The Cowboys	2009-06-20 03:53:05
40681694	2726631369	Almost forgot Charlie Wilsons War came from lovefilm pretty good actually has its moments 710	2009-07-19 20:10:19
26263485	2166068105	Just woke up going to watch Charlie Wilsons War I hope its good	2009-06-14 15:51:39
12499314	1395344516	Stillonline shopping finally successful Off home to husband amp son amp a night on the sofa watching Charlie Wilsons War Feel sad  stop	2009-03-26 16:36:43
34185961	1507401071	Watchin Charlie Wilsons War again Good movie Now where is the chinese food Go Lakers	2009-04-13 04:55:22
6779759	1030187814	just finished watching charlie wilsons war  Interesting film and commentary about american politics	2008-11-30 02:41:00
5899087	972568963	Sick day at home Restless but no energy to do much Watching behind the scenes of Charlie Wilsons War Great movie Hugely relevant 2day	2008-10-23 20:13:08
19869117	1506351056	Watching Charlie Wilsons War  Philip Seymour Hoffman Most Underrated Actor of our Time	2009-04-13 01:28:01
5024879	850453186	Me So are we going to watch Charlie Wilsons War Dad I dont know how to turn the TV on so  no	2008-07-05 02:46:52
55746322	585349892	Off to see Charlie Wilsons War in Sarver	2008-01-10 23:01:31
27064953	1187365471	Watching Charlie Wilsons War	2009-02-07 22:09:00
31007679	1437082188	 Harley Davidson amp The Marlboro Man Who Knew Too Much Ado About Nothing But The Truth About Charlie Wilsons War Of The	2009-04-02 07:33:37
44450672	809426003	Charlie Wilsons War was a damn good movie	2008-05-12 15:47:00
15333825	2148840595	watching Charlie Wilsons War	2009-06-13 02:07:38
32867831	544414032	Just saw Charlie Wilsons War Excellent film Now lunch at CPK some shopping and then back to see National Treasure 2	2007-12-29 18:52:47
6053845	814446087	about to watch charlie wilsons war just left the school brining home some of my stuff dont have a job but it sure feels good bringin it	2008-05-18 21:54:10
1837309	609446822	Wonders if anyone else wants to see Charlie Wilsons War	2008-01-17 13:52:22
56022079	839981167	Just rented Charlie Wilsons War and Rails and Ties  Anyone seen either of these Love my Apple TV	2008-06-21 02:07:14
51749777	1082236036	DVDs watched this weekend I Am Legend Charlie Wilsons War Raiders of Lost Ark w7yo Legend is freaky Wilsons War is mostlytrue	2008-12-28 13:00:19
55869850	808486003	Disappointed in Charlie Wilsons War All the balls were cut from the script Blog 	2008-05-11 07:07:23
21050114	1222483915	About to crash i am knackered Hope head cold is gone tomorrow I want to ride am Just watched Charlie Wilsons war againr Top movie 	2009-02-18 11:31:30
55896439	563352992	Great take by Tom Peters on Charlie Wilsons War by George Crile 	2008-01-04 21:59:19
19160108	1044253535	just got done watching Charlie Wilsons War excellent movie 	2008-12-08 01:19:13
41719973	1742114223	I sent Jim two Dvds quotWquot and quotCharlie Wilsons Warquot These should inspire him	2009-05-09 00:35:23
6743124	1030475251	I love Charlie Wilsons War Great movie	2008-11-30 08:03:44
3183245	869957948	Charlie Wilsons War is a great movie	2008-07-27 20:22:29
56003893	2251133609	My Aaron Sorkin withdrawal is being nicely satisfied by Charlie Wilsons War on Sky HD	2009-06-20 09:32:22
55901876	936572522	Is McCain taking credit for Charlie Wilsons war	2008-09-27 01:53:08
19161384	1012459018	watching Charlie Wilsons War on Boxee check it out at 	2008-11-19 06:04:48
2256051	808607637	Thoroughly enjoyed Charlie Wilsons War at the ANU Film Group tonight  I recommend it to you all	2008-05-11 12:51:31
9424356	1412666780	Finally watched Charlie Wilsons War last night  thoroughly enjoyed it Philip Seymour Hoffman was awesome as usual  Would defo recommend	2009-03-29 16:17:18
18692864	1331548182	ampltamplt Charlie Wilsons War ampltamplt Tom Hanks has me lmao	2009-03-15 14:55:19
35733388	2710540969	Waiting for my dad to finish Charlie Wilsons War so I can watch the DVR of Smackdown	2009-07-18 19:41:45
10110696	1190316461	Charlie Wilsons War A fast talking light hearted style make for an entertaining movie in spite of the rather serious subject matter	2009-02-09 01:08:08
5098258	892696723	 charlie Wilsons war	2008-08-19 23:50:01
19915310	1235619988	k now watching Charlie Wilsons War lol	2009-02-21 23:35:34
49083750	803575392	Watching Charlie Wilsons War Its very good	2008-05-05 02:59:05
15588448	913440446	Today was movie Sunday  The Wackness Truman Show Charlie Wilsons War	2008-09-08 03:53:14
13825186	1030091046	Watching Charlie Wilsons War on HBO Great day so far Ramblin Wreck rambled Too bad no ACC championship for them	2008-11-30 01:09:30
20850859	1031170839	Just signed up  Watching LOTR for the umpteenth time  Saw Charlie Wilsons War last night  Fascinating  Must learn how this works Willc	2008-11-30 20:59:51
12986397	1459417741	Just cleaned up around the apt a bit now gonna kick back on the couch and watch CHARLIE WILSONS WAR from Netflix	2009-04-05 22:53:41
17951063	1186935339	Watching Charlie Wilsons War for the 8000000000000th time  It never gets old	2009-02-07 18:55:36
28711129	3277935921	Just finished watching charlie wilsons warlove that movie	2009-08-13 02:10:17
1819258	631152112	Just back from Charlie Wilsons War  It is a must see  Language is rough but realistic	2008-01-23 07:00:43
12137680	1089284989	watched the movie version of charlie wilsons war  hoping the new year will work out better	2009-01-01 03:01:07
56000864	1093877127	Have come home to bare cupboardsfridge so have ordered a Dominos and am going to watch a film with Mrs S Charlie Wilsons War I think	2009-01-03 19:48:20
54233125	738049592	Listening to Charlie Wilsons War The Extraordinary Story of the Largest Covert Operation in History from 	2008-02-21 05:54:25
1350953	2353382249	 also did A few good men and Charlie Wilsons Warif you can HANDLE THE TRUTHha	2009-06-27 01:54:38
13577097	1923722260	Im watching Charlie Wilsons War at  s house whats up today	2009-05-26 14:04:53
17952130	1077472692	Watching quotCharlie Wilsons Warquot Seen it before but had to watch it again Its that good	2008-12-25 04:26:15
35468091	2798450465	Oscarwinning actor Philip Seymour Hoffman born 7231967  Check out one of his films on DVD Doubt Capote Charlie Wilsons War etc	2009-07-23 14:00:43
3381117	773128503	Charlie Wilson Wars07 Nichols B PT Charles Wilson Wadpaw To kick soviets ass Almost a great movie	2008-03-18 02:24:37
44635777	2858763694	Now for Charlie Wilsons War	2009-07-26 21:18:45
6718636	813076501	Getting psyched for the Cavs to even out the series tonight Expect a new blog on El Bohio and Charlie Wilsons War in the next few days	2008-05-16 20:29:23
26237256	950651611	McCain watched Charlie Wilsons War too	2008-10-08 02:13:06
955537	815230947	Weekend high points scoring a bike at a yard saleCharlie Wilsons WarPhilip S Hoffman Mad Hot Ballroom amp subsequent midnight dancing	2008-05-19 20:23:53
55759763	830143632	Just watched charlie wilsons war Good stuff	2008-06-09 02:46:21
15262923	1903666247	 was seeing Charlie Wilsons war yday the senate vetos his idea of building school after soviet withdrawal in Afganistan12	2009-05-24 16:28:45
27114873	1378196837	Charlie Wilsons new war  Ohio Congressman same namedifferent guy has unique idea for getting AIG  back The story tomorrow wtov9com	2009-03-23 22:13:15
14577932	892549372	Were watching Charlie Wilsons War the hilarious politicomedy about the cold war Ah har har The scenes in Afghan remind us of Ao2 A	2008-08-19 20:51:03
55700500	1297538266	urgh i dont want to watch either xmen or charlie wilsons war my two lovefilm films but i have the evening to myself what to watch	2009-03-08 20:44:35
27252456	3196194709	 its charlie wilsons warnot on tv right now	2009-08-08 18:43:59
31246414	2528930747	 lol me too but by no fault of the movie i wasnt paying attention to charlie wilsons war so im going to have to rewatch it	2009-07-08 06:48:41
55984875	2587149671	 Charlie Wilsons War is a good movie  and an interesting look at where the Taliban first got many of their weapons 	2009-07-11 18:46:16
55831781	573693632	Come231ando a assistir Charlie Wilsons War Ouvi falar que 233 ruim mas que vale pela interpreta231227o do Philip Seymour Hoffman	2008-01-08 00:36:44
5654962	794851513	In bed Charlie Wilson is singing to me Wanna be in the warm arms of my gift	2008-04-23 04:25:25
55655338	775383562	 Charlie Wilsons War fantastic and enlightening 	2008-03-22 13:06:52
11079223	838430645	Giving up on Charlie Wilsons War For now Just doesnt do it for me at 2 am	2008-06-19 06:16:44
17553965	1460563526	 just saw charlie wilsons war today shes sorta hookerish in that too still not a fan of hers P 	2009-04-06 02:43:09
51814977	1148494767	 If youre catching Aaron Sorkin flix check out Charlie Wilsons War  A personal fave Three words Phillip Seymour Hoffman	2009-01-26 07:06:55
11422645	854351981	Go rent Charlie Wilsons War Ha fantastichow did it NOT win an award Finishing up a magnum of some French vino	2008-07-10 04:50:25
12492395	1924772699	 Amy Adams Amelia Earhart shes in the movie Charlie Wilsons War good movie	2009-05-26 15:52:58
8142479	1077567637	Oh And Charlie Wilsons War on DVD booze cigars	2008-12-25 05:47:13
11663531	1109778631	Gerade Charlie Wilsons War gesehen  doc war gut 	2009-01-10 21:59:51
54889401	865524742	Watching Charlie Wilsons War Best movie dialog in quite a while	2008-07-22 21:45:34
13532656	1637484446	 Warum jetzt Kommt der Film gerade auf DVD raus charlie wilson	2009-04-28 08:57:56
1694619	753591792	Charlie Wilsons War was my favorite movie this year	2008-02-25 02:17:51
8594073	1046416246	 Charlie Wilsons War is a great movie for some background on the situation if you havent seen it I recommend it	2008-12-09 03:58:54
52875520	3274721042	 Yo try and watch CHARLIE WILSONS WAR 2007movie time	2009-08-12 22:45:09
55778197	566604062	If you only see 2 movies for the rest of your life make them Juno and Charlie Wilsons War Blown away by Juno	2008-01-05 23:29:51
52300825	752789022	Filmempfehlung Charlie Wilsons War	2008-02-24 22:10:17
31445145	1498645935	Charlie Wilsons War  the book an insight into manipulation 	2009-04-11 19:36:16
31319790	1409994463	is catching up on his DVD collection Watched Northern Exposure season 1 Charlie Wilsons War Magnificent Desolation and now Hot Shots	2009-03-29 01:29:07
11057867	857483497	Charlie Wilsons War Tom Hanks amp Julia Roberts obviously have no idea about the difference between a Texas accent and a Georgia accent	2008-07-13 21:37:05
29593799	2015202002	The Other Boleyn girl  check Leatherheads  check Charlie Wilsons War  to redo	2009-06-03 11:00:20
5569154	810807673	Charlie wilsons war what a good movie	2008-05-14 04:42:30
11644983	2306139594	Im sure i have reading to do for class or charlie wilsons war which lee loaned me ages ago but instead i picked up hp and the sorcer 	2009-06-24 04:51:01
36404929	850361879	Watched Bucket List and now watching Charlie Wilsons War for the second time  Thoroughly enjoying it	2008-07-04 23:17:13
55850402	933678317	Saw the final Studio 60 Sad Just need to see Charlie Wilsons War then Im all Sorkinedout	2008-09-24 23:42:47
7944983	839171986	Onion MovieKinda funny Under the Same MoonPretty Good Be Kind Rewinddumb Bucket List and Charlie Wilsons War are next	2008-06-20 02:50:44
17950033	1767795328	Watched quotCharlie Wilsons Warquot last night with the bf  The history of war in Afghanistan is really interesting	2009-05-11 23:02:00
3311433	1482048430	New blog post Charlie Wilsons War  Mike Nichols 2008 	2009-04-09 06:51:14
55920099	1270493915	Phillip Seymour Hoffman in Charlie Wilsons War genius	2009-03-02 19:31:33
36599879	1977541674	Charlie Wilsons War	2009-05-31 04:10:53
55823235	592895462	Just saw Charlie Wilsons War  Great and full of Sorkiny goodness	2008-01-13 02:39:26
24912633	1819132790	Charlie Wilsons war boring	2009-05-16 19:38:52
33420934	1995135932	who wants to write my paper on Charlie Wilsons War that was supposed to be due today for me	2009-06-01 20:00:26
54327803	907733255	 luv charlie wilsons war well done	2008-09-03 05:11:22
55791283	619368692	Movie hopped to Charlie Wilsons War Double feature night  cloverfield was ok	2008-01-20 05:46:31
25906490	2714267557	charlie wilsons war is delightfully good so far	2009-07-19 00:45:29
55656598	1031748247	charlie wilsons war was good informative and entertaining	2008-12-01 04:52:33
34340069	2219376230	nicerfilmtitles Charlie Wilsons Warm	2009-06-18 07:23:50
546452	768960774	I enjoyed Charlie Wilsons War more than I thought I would Its one Id watch again	2008-03-09 18:27:06
15896480	579891712	I would really like to see Charlie Wilsons War but cant face Tom Hanks AND Julia Roberts	2008-01-09 14:55:40
3558796	1057677437	Watching Charlie Wilsons War and thinking that so far its funnier than I expected	2008-12-15 01:39:09
18306937	553753852	Charlie Wilsons War Well see said the zenmaster	2008-01-02 02:06:44
25930854	1287822071	 really didnt enjoy the great gatsby movie Got Charlie Wilsons war this morning from lovefilm 	2009-03-06 11:07:07
55716038	555054642	So who has seen Charlie Wilsons War	2008-01-02 13:43:04
55877613	629201332	Veremos Toward the end of Charlie Wilsons War a CIA officer played by the pitchperfect Philip Sey 	2008-01-22 19:56:16
55659751	563553352	Taking Rox to the movies tonight quotCharlie Wilsons Warquot or quotJunoquot Anyone seen both amp which would be a good Friday night flick	2008-01-04 23:17:51
55676264	803365568	Charlie Wilsons War was really good Interesting subject too 	2008-05-04 19:31:41
6922938	856321482	watching Charlie Wilsons War and enjoying the new iPod touch Twitterific app	2008-07-12 06:13:08
56007746	533407282	Just saw Charlie Wilsons war Eh pretty good	2007-12-26 00:57:07
55926132	841196541	watched Charlie Wilsons War highly recommended	2008-06-22 22:32:15
11855230	1029050690	I just watched Charlie Wilsons War and when it was done I realized that it was one of those movies that surprise you by ending	2008-11-29 05:59:11
21935936	1556797986	 Boy you start movies late the wife lasted about 40 minutes into Charlie Wilsons War and we started at 9	2009-04-19 07:23:47
14227922	1819343843	Watching charlie wilsons war great movie	2009-05-16 20:01:55
9469368	1689256670	 reading and viewing Charlie Wilsons War Sorkin 	2009-05-03 19:57:33
9634333	819320755	 Great watch but I wouldnt call it lighthearted  Thomas Hawk amp I are watching Charlie Wilsons War whenever he finishes  	2008-05-25 02:39:57
3422	856182974	Charlie Wilsons War tonight quotWere you listening at the doorquot quotNo I bugged the scotch bottlequot Hilarious	2008-07-12 01:34:05
55899041	985748783	Wow  that was somehow a very long day  Now  Charlie Wilsons War	2008-11-02 00:08:20
11297714	846872595	Great weekend to watch moviesSideways The Bucket List and Charlie Wilsons Warstill a lot of catching up to do	2008-06-30 12:47:27
25570273	1184079055	i indulged in some of my fav things today exercise and sleepneed to finish wathcig charlie wilsons war tho	2009-02-06 18:50:23
43878983	2664686800	 In Charlie Wilsons War Julia Roberts character is using a safety pin Yiiiii  Ive used lash combs	2009-07-16 05:02:14
9122119	814210959	philip seymour hoffman is amazing in charlie wilsons war	2008-05-18 14:27:56
8240585	881740455	Having a personal Philip Seymour Hoffman film festival So far Charlie Wilsons War luv and Before the Devil Knows Your Dead	2008-08-08 17:31:20
8343697	1000803253	 Loved Charlie Wilsons War great idea think I will watch it again tonight too veteransday	2008-11-11 18:33:16
48278477	617800192	back from Charlie Wilsons war movie and fully enjoyed the film less the popcorn eaters chewing around	2008-01-19 17:42:21
22597281	1103235189	loves Charlie Wilsons War	2009-01-08 00:42:18
55730635	1007246527	Jones I watching Charlie Wilsons War was actually pretty interesting	2008-11-15 17:59:41
54461467	822782209	  Charlie Wilsons War	2008-05-29 20:35:37
55692962	536230682	about to see Charlie Wilsons war	2007-12-26 23:58:48
18010290	1822042457	Watching Charlie Wilsons War	2009-05-17 01:39:25
8196204	816070885	Going to see Chronicles of Narnia Prince Caspian tonight Yay Watched Charlie Wilsons war last night  it was soooo good	2008-05-20 22:06:08
7141757	2032203685	 I love that movie My favorites arent typically Oscarworthy Nichols did a great job w Charlie Wilsons War	2009-06-04 17:55:23
39117081	548497352	RUN DO NOT WALK to see quotCharlie Wilsons Warquot	2007-12-31 06:19:57
2350148	655591482	Watching Charlie Wilsons War	2008-01-29 15:57:41
23940152	1372094863	enjoyed Guy Ritchies film Revolver a tad too many quotes but good Sunday night entertainmentNext up Charlie Wilsons War	2009-03-22 21:11:20
34378984	1933853196	charlie wilsons war has a greeeeat performance from tom hizzanks	2009-05-27 08:13:49
550576	579373062	Is Charlie Wilsons War any good 	2008-01-09 11:46:08
55926721	797211806	Charlie Wilsons War this Friday night	2008-04-26 02:46:46
30885216	3171370854	If you haven8217t already seen the movie CHARLIE WILSON8217S WAR rent it Also the making of special feature It8217s worth your time	2009-08-07 00:18:40
55716038	518189432	 BTW glad Sorkin got his props in the Golden Globes with a nomination for quotCharlie Wilsons Warquot	2007-12-20 16:08:28
45232289	813986751	Finally got around to seeing Charlie Wilsons War I thought it was very interesting and well done  definitely recommend it	2008-05-18 04:30:18
8710333	878932808	 if you count those oneliners slacker  The visitor is great Solid 4 But charlie wilsons war is more like a 3 for me	2008-08-06 03:01:39
55716993	543346582	I hope Charlie Wilsons War movie is as good as the book was	2007-12-29 09:50:15
36883443	1722927667	just finished watching charlie wilsons war not bad different than what i expected	2009-05-07 01:48:25
22620254	1236290557	Getting ready to stage a scene from Charlie Wilsons War at the Hornet	2009-02-22 04:24:53
9538575	1285474610	15 loving Jason Mraz Charlie Wilsons War the staff the Search team and driving with the windows down 	2009-03-05 22:01:44
19895188	1288062170	A drama based on a Texas congressman Charlie Wilsons covert dealings in Afghanistan where his efforts to assist rebels in their war wit	2009-03-06 12:49:09
55994330	1635881473	totally dig watching tom hanks in charlie wilsons warseen it plenty b4but it still causes me to stop surfing	2009-04-28 03:42:31
55947733	1264943923	2108322312HBO3047520102quot33995199902285525165quotCharlie Wilsons War65292352582447136996284152637725209210282461530340652923278019988199812615925945267812433530340252092102865292244562637724847246051229030701307013034029255233766529235320214502290922810326542228325919278352599121270303402930527530269793528265292244562281022066355751229019981250262885820309234592065935498261593662939686214872485930340386512443365292200631998125026288582030934987354692885826159214532084930340122893352138596200273268130340386512443312290	2009-03-01 08:55:47
21585584	1125147579	Got my sewing machine  And now Im watching Charlie Wilsons War and getting used to the new Tumblr dashboard	2009-01-17 00:46:23
10213791	3205045078	is watching Charlie Wilsons War but finds it pretty dull	2009-08-09 08:50:35
19637860	1059722196	Gonna try amp watch Charlie Wilsons Warif only I can put my phone down Gonna be tough	2008-12-16 01:28:37
38893307	2729603271	300 off Charlie Wilsons War Widescreen 2007 now just 999 from Amazon  deals	2009-07-20 00:00:00
29170824	1985186106	Charlie wilsons war was a good movie	2009-05-31 23:36:16
33447247	1506874865	 first thought that popped in my head about your Maher comment was Charlie Wilsons Warampall the lady staffers in it hah 	2009-04-13 03:06:48
5251497	3152417669	 Charlie Wilsons Warm Apple Pie goes great with A Few Good Mints	2009-08-05 20:36:53
24055101	1160296055	noesta if you want fiction try reading Still Life with Woodpecker by Tom Robbins For nonfiction I recommend Charlie Wilsons War	2009-01-30 00:58:06
373514	533037162	Movie double feature today Juno followed by Charlie Wilsons War Juno was okay Charlie Wilson was excellent Going to see Atonement later	2007-12-25 21:32:02
3661354	754055302	Stewart le recuerda a Tom Hanks que no est225 nominado por La guerra de Charlie Wilson	2008-02-25 04:12:33
55917875	797422784	fr globeandmailcom Charlie Wilsons intellectualproperty war Film used footage 	2008-04-26 12:54:23
6574492	839762778	watching charlie wilsons war trying not to get overwhelmed with the coming week	2008-06-20 19:38:32
30361202	1551086698	Thumbs up for Charlie Wilsons War  its good when a movie makes you work a little	2009-04-18 15:06:41
55994098	570541032	Charlie Wilsons War and How to Get Things Don Truth is Ive got over 100 feeds in my RSS reader O 	2008-01-07 05:29:20
55933746	885915895	Hoping to finally make it through Charlie Wilsons War on the third sitting tonight I will not fall asleep this time	2008-08-13 03:22:30
19588235	2158965112	 Id recommend Charlie Wilsons War if you havent seen it yet	2009-06-13 23:16:24
56024962	862268721	Charlie Wilsons War  interesting preulde to the  situation in Afghanistan	2008-07-18 22:10:35
55832716	539880182	Went on hot date with wife for dinner and went to theater to see Charlie Wilsons War  Very relevant and entertaining	2007-12-28 03:13:54
26849941	1080268732	is watching Charlie Wilsons War	2008-12-27 03:13:48
13177062	2240763657	watched Charlie Wilsons War last night quite an extraordinary story amp stellar performance from Philip Seymour Hoffman 	2009-06-19 17:08:03
53866429	863830445	big movie weekend  Mama Mia at theater just watched dvd of  Charlie Wilsons War with my older son and girfriend	2008-07-21 02:15:07
30477546	1264964008	watching charlie wilsons war what an awesome political movie	2009-03-01 09:09:25
55809529	501894412	Trying to understand why the studio behind Charlie Wilsons War thought Julia Roberts horsey laugh will make people want to see the movie	2007-12-14 21:52:01
12299116	1043088956	Watched Charlie Wilsons War  3 stars  OK not great  Phillip Seymour Hoffman very very good and Tom Hanks his usual solid performance	2008-12-07 05:51:45
15400429	937725224	watched Charlie Wilsons War  good movie  Heading to bed  Rain rain go away	2008-09-28 02:44:49
47211916	3308291014	Remember the end of quotCharlie Wilsons Warquot The serious reasons behind A Soldiers March for Peace 	2009-08-14 14:29:21
20725959	1071874375	Saw 2 GREAT MOVIES recently Charlie Wilsons War  Rendition Definitely a common thread there 	2008-12-22 07:30:20
25980666	1372414836	Watched Charlie Wilsons War tonight Talky but short an actors film not bad Eastern Promises last night Expected more Disappointing	2009-03-22 22:26:10
17957709	2023284278	Kung fu panda and charlie wilsons war are making sleepy	2009-06-04 00:24:02
55860654	547984382	Charlie Wilsons War  highly recommended	2007-12-31 02:08:22
3422320	1169692797	Classification Review Board reviews Charlie Wilson8217s War   Odd relief to post non nocleanfeed news	2009-02-02 13:06:02
2979448	3321278135	 I thought Milk was fantastic so well done Havent seen Charlie Wilsons War yet Is it good	2009-08-15 02:47:16
52037048	1894858793	Just watched Charlie Wilsons war on HBO Awesome movie	2009-05-23 17:22:49
22377015	1235333234	Enjoying a nice chicken crock pot stew and watch Charlie Wilsons war for a few hours ta ta till then	2009-02-21 21:44:43
48388933	2321086112	 LIL kim performing with Charlie Wilsonthats good ent	2009-06-25 03:33:35
11296872	1030511902	Watched one of my favorite movies tonight Charlie Wilsons War mostly good tho we fell short at the end He did a lot of good	2008-11-30 09:02:19
13638808	1019474883	Finally donating platelets again Was not trouble free but it worked Watched Charlie Wilsons War Hoffman is remarkable	2008-11-23 15:16:51
20973777	992516904	Watching Charlie Wilsons Wartrying to get some work done while sick S	2008-11-06 00:01:58
7628910	1506917340	nj Just finish watching Charlie Wilsons War  Great movie	2009-04-13 03:14:50
24960626	1217682074	getting ready to watch spartan or charlie wilsons war in bed on the lappy with the wife but kids have chemistry and german yuck to homewrk	2009-02-17 03:29:36
882862	536665452	heading to the movies to see charlie wilsons war	2007-12-27 03:19:37
43185350	1905246640	I watched Charlie Wilsons War last night Informative	2009-05-24 19:46:02
55693242	525679382	Just returned from watching the Cowboys game at friends and b4 that Charlie Wilsons War Highly recommend	2007-12-23 05:16:50
55781781	624228242	is going to see Charlie Wilsons War	2008-01-21 15:39:02
52673029	596284412	Charlie Wilsons War vowed Sorkin I wanted Reiner directing a W G Snuffy Walden score or Josh Malina in drag as the Julia Roberts role	2008-01-14 04:43:20
25793203	1210818532	S229g nyss Charlie Wilsons war med Tom chocolate box Hanks Skaplig Varken mer eller mindre	2009-02-14 22:08:48
11649936	920647719	Relaxing and watching Charlie Wilsons War	2008-09-14 01:58:00
2124750	592136642	I am feeling pensive after just watching Charlie wilsons war	2008-01-12 20:55:01
13638808	1035430586	 Saw Charlie Wilsons War the other day Almost felt sorry for Tom Hanks having to share the screen with PS Hoffman Awesome actor	2008-12-03 02:51:50
5026	1703447216	New Post at   Movie Review Charlie Wilson8217s War  By Mark	2009-05-05 05:00:26
5113	1809584746	heute war eindeutig mein charlie wilson tagder mann is 53 und klingt immer noch fresh wer Rnb mag mag unkle charliepunkt unhatebar	2009-05-15 19:56:26
55494297	545430632	Saw Charlie Wilsons War Nice lil flick Now drinking some wine	2007-12-30 03:52:51
992345	532936302	Just saw quotCharlie Wilsons Warquot with my brother in law and his wife  Great flick	2007-12-25 20:29:48
1770116	2596916768	Watched Charlie Wilsons War last night Amazing film and very poiniant ending	2009-07-12 09:56:22
37500270	1500798833	I am sitting on the couch watching Charlie Wilsons War Pretty good movie	2009-04-12 02:48:46
13164762	3262946786	 Aaron Sorkin124501254012525125311253912477125401246112531123923532812358124501251312522124591239833050264122347812391123771229020195349202031612399A Few Good MenThe West WingCharlie Wilsons War2641226085Facebook12434389882644812395123751238326144300111239530528251631237712427123921249112517125401247312364279691242812390204493277312398206932747521916w	2009-08-12 10:00:09
38423127	2270089533	watching Charlie Wilsons War	2009-06-21 21:20:43
55778197	544889242	back from Charlie Wilsons War Very good movie too many amazing lines to even try to quote here	2007-12-29 23:07:55
21543101	1849807940	Watching Charlie Wilsons war	2009-05-19 18:08:32
23256122	3259751165	RT Houstons Joanne Herring King of Charlie Wilsons War fame on Afghanistan development  	2009-08-12 04:45:21
1808529	985883375	queing up charlie wilsons war	2008-11-02 02:31:34
26633622	1419989418	 charlie wilsons war	2009-03-30 20:25:13
10275180	1098200429	is listening to Charlie Wilsons War audiobook Adventures and outrages as far as one can see	2009-01-05 23:10:39
55830970	903593039	Bajando Charlie Wilsons War con Tom Hanks se las recomiendo	2008-08-30 01:58:34
39247118	1663961993	 Have u read quotThree Cups of Teaquot or quotCharlie Wilsons Warquot	2009-04-30 23:20:36
27752389	1392215086	 ah Need some movies to add to my netflix list and was wondering about Pineapple Exp  Still have Charlie Wilsons War from Nov	2009-03-26 03:03:02
47272477	2444428206	Charlie Wilsons War Terning 45 En annen ting Jeg pleide 229 le av Jon Stewart Synes ikke det er no g248y lenger tror jeg terningkast 2	2009-07-02 22:28:44
55863917	2612037399	Watched Charlie Wilsons War  Tom Hanks plays the main character as how PJ ORourke would be as a congressman Really quite good indeed	2009-07-13 09:49:38
55817058	594845732	Back from watching Charlie Wilsons War Nicely done Funny smart questions the my enemys enemy is my friend logic without patronising	2008-01-13 18:32:58
50463159	2496103295	CHARLIE WILSONS WARERIN BROCKOVICH  DVD BOXSET NEW 	2009-07-06 12:23:43
24020387	2775300253	Charlie Wilsons War  Great film very well written but rushed to the end Last 5 mins very sobering 810	2009-07-22 09:30:10
55758401	548233052	So AVPR was pretty amusing nothing epic a few annoying high schoolers  And Charlie Wilsons War was pretty darn good but again	2007-12-31 04:06:22
5179427	2802516808	 Have you seen Charlie Wilsons War yet I watched that a few weeks ago its really good	2009-07-23 18:04:22
43997939	2098483970	Watching Charlie Wilsons War	2009-06-10 02:59:47
35675247	1433511162	Enjoyed Charlie Wilsons War	2009-04-01 19:35:00
22322859	1217601502	We reviewed tomorrows big releases Morrissey Thursday Trail of Dead NASA M Ward Charlie Wilson Vetiver 	2009-02-17 02:57:42
48185691	3308544103	Jonathan Kim ReThinking Charlie Wilsons War the Afghan War that Keeps On Taking 	2009-08-14 14:44:04
9022256	1031272727	Just watched Charlie Wilsons War  never got around to seeing it b4  Really good great choice for a rainy Sunday afternoon	2008-11-30 22:22:27
7070202	1030347423	watching Charlie Wilsons Wargreat flickso this is how WA works	2008-11-30 05:16:23
1348717	536956682	Off to a movie with my cousin  Charlie wilsons war	2007-12-27 05:39:57
54495378	693919062	Tonites Movie Charlie Wilsonss War	2008-02-09 17:05:47
30210909	1588139543	loves Blockbuster previewed deals  just picked up Charlie Wilsons War Burn After Reading In Bruges and Iron Man  nothing but win	2009-04-22 21:00:17
911172	1035566719	i forgot just how hilarious Charlie Wilsons War  is	2008-12-03 04:26:07
44442353	471398422	Charlie Wilsons War  directed by Mike Nichols screenwritten by Aaron Sorkin 	2007-12-05 11:10:03
56013795	568260252	Charlie Wilsons War makes three good movies in a row	2008-01-06 13:24:37
55818047	854286177	just saw charlie wilsons war aaron sorkin is near the top of the list of people id like to meet	2008-07-10 03:00:20
38230768	1728085810	Grammy Award Winners Lilamp39 Kim Charlie Wilson and TPainamp39s New  	2009-05-07 15:39:14
31152752	2672116273	Charlie Wilson award presntation next	2009-07-16 16:45:50
39776515	1619102308	loves that part of Charlie Wilsons War where Philip Seymour Hoffman just loses his shit	2009-04-26 07:07:43
19197245	2803307186	Ur rightthx 4 correcting RT  Philip Seymour Hoffman But 2nd nom was for 07 film Charlie Wilsons War not in 05 celebriday	2009-07-23 18:50:53
31867593	1752317013	 u have suddenly woken up to movies it seems P  watched Charlie Wilsons war yesterdayit was sitting on my HD for long	2009-05-10 04:35:46
40648803	1590970064	Gotta go to Delaware tommorrow Im going to b Spring Balling it Ryan Leslie suppose to sing and I am still in Charlie Wilson mode DESU	2009-04-23 03:04:11
55575843	1044563539	watched Charlie Wilsons War on On Demand Hanks and PSH and Amy Adams are amazing	2008-12-08 05:20:55
51779312	671281172	Going to see Charlie Wilsons War	2008-02-02 23:15:17
2893	793831630	 Charlie Wilsons War Tom Hanks stars in political flick masqueradin 	2008-04-21 20:34:08
4663	1369542853	Is chilling in bed watching charlie wilsons war after a night at the bar watching a coworkers band plAy	2009-03-22 06:55:11
12056558	1429138291	 Have you watched Charlie Wilsons War I know it isnt 100 accurate but it started long before Clinton	2009-04-01 03:36:29
29787739	1272591656	just watched Charlie Wilsons War and is craving pizza for some reason	2009-03-03 05:17:54
55974053	527337562	watching Charlie Wilsons War at the Quarry  I cant remember the last time I saw a movie in a theater	2007-12-23 20:48:08
30629885	2587643211	Garlic Bread Guinness and Charlie Wilsons War	2009-07-11 19:27:36
2353356	813914286	Charlie Wilsons War is an amazing movie	2008-05-18 01:45:09
49713584	2399064204	just finished watching Charlie Wilsons War Julia Roberts is under the impression that people from Houston talk like Scarlett OHara	2009-06-30 04:31:52
55674015	1108909091	watching Charlie Wilsons War is it any good	2009-01-10 12:08:13
51711497	950668709	Ah cool McCain has seen Charlie Wilsons War Somewhere Aaron Sorkin must be pleased	2008-10-08 02:18:50
33887602	1888610809	Helping Belinda clean then watching Charlie Wilsons War from Netflix	2009-05-23 00:34:29
25099283	1200679982	Loved the film charlie Wilsons war	2009-02-11 22:44:28
13529234	1635739839	Philip seymour hoffman just stole charlie wilsons war the second he walked in Sorry tom hanks	2009-04-28 03:24:40
592032	469813702	i know money is goodbut working like a dog to make it doesnt seem worth it  btw Tom Hanks in Charlie Wilsons War  BETTER NOT SUCK	2007-12-04 22:12:22
1628077	841267999	About to watch Charlie Wilsons War	2008-06-23 01:07:56
9116084	842122757	Charlie wilsons war	2008-06-24 02:21:20
53010727	531221832	Just got back from seeing Joshs name in the movie credits of Charlie Wilsons War	2007-12-25 04:40:47
18951423	1893308614	 Charlie Wilsons War I read Kite Runner which is a fiction book around the same time and wanted to know the real history nerd	2009-05-23 13:56:49
10899238	1148003608	 Watching Charlie Wilsons War and making soup	2009-01-26 02:07:50
2407	494590612	Julia Roberts  8220Charlie Wilson8217s War8221 World Premiere ampnbspOriginal News1 Votes  Sponsored by Be 	2007-12-12 19:26:25
2190923	3152741006	so it turns out that i work with the daughter of the weaponsnerd from Charlie Wilsons War	2009-08-05 20:55:02
571072	816250670	watching Charlie Wilsons War	2008-05-21 03:34:42
50172447	2847981785	saw Charlie Wilsons War again based on the 80s true story of 1 man who funded the Afghans and brought down the Red Army in Afghanistan	2009-07-26 03:52:18
42259361	2081414609	After Afghar War Col Sultan asked Charlie Wilson for Afghan rehab His response Dollars dont grow on trees LInk 	2009-06-08 21:22:18
46587808	3331744167	24 REDEMPTION amp BLINDNESS amp BODY OF LIES amp CHARLIE WILSONS WAR covers has just been uploaded on the 	2009-08-15 18:32:59
42511117	913449388	charlie wilsons war held up well  and then we fucked up the end game	2008-09-08 04:04:42
55856023	819806759	Just seen Sweeney Todd and Charlie Wilsons war Both entertaining	2008-05-25 23:48:33
14565101	1315370953	birdfilms Blue Titfield Thunderbolt   The Empire Shrikes back  Day of the Jackdaw Fieldfare of Dreams Charlie Wilsons Warbler	2009-03-12 10:18:11
52169329	522446462	 What are you going see  i am in the middle of writing my review for quotCharlie Wilsons Warquot	2007-12-21 22:15:33
9193853	905436173	Aaron Sorkin screenwriter of Charlie Wilson8217s War amp The West Wing is scripting about FACEBOOK  its formation Will it be quotLove Virtuallyquot	2008-09-01 05:18:31
56018419	858192002	my mom called Charlie Wilsons War the Peter Johnson Movie and then refused to believe that both Peter and Johnson are euphemisms	2008-07-14 17:09:26
56025458	550388502	downloading new audiobooksEinstein unabridged Charlie Wilsons War the original book unabridged better than austin radio	2007-12-31 20:06:14
55702718	1282585986	On the train watching charlie wilsons war	2009-03-05 08:40:31
6170721	808357630	just finished an 8 mile run in the pouring rainquite refreshing actually  now going to watch charlie wilsons war with the mrs	2008-05-11 01:57:59
28631084	2287180368	Just watched Charlie Wilsons War great Film I recommend to everyone Night Tweet	2009-06-23 00:27:51
36830454	1877768877	 Freedom fighters vs terrorists  Yup I keep recommending Charlie Wilsons War Get out there and see it	2009-05-22 01:54:02
7386877	1188975964	Watched Charlie Wilsons War Thoroughly enjoyable  undersold it I think Its pretty serious about careless consequences	2009-02-08 15:19:10
41184172	2332740754	RT  RT  RT  RT  OH dem Charlie Wilson is leaning toward no Burn up the phones202225 	2009-06-25 21:44:16
30943783	1313612169	Booked a flight for Timmys wedding No Lost tonight so Im watching Charlie Wilsons War	2009-03-12 00:38:41
16462936	1594693601	201702608538651244336530633995199902285525165Charlie Wilsons War12290235662843625226275112149021644259192783536939203163688920123308283703037030303403898826448211622114724324251042010219968370962357437240219162112765292320802361421448259103034022826245551229024478275112149035506303403528224230203583549820860208553069335672216442306727138246156529236996199813767912290	2009-04-23 14:57:05
8674085	1756560844	Watching TV and wating till my fianc233 comes so we can watch The War Of Charlie Wilson	2009-05-10 19:03:49
2040749	695130792	Thinking about Charlie Wilsons War good flick	2008-02-10 03:27:20
11905165	1281796244	 good suggestion once I finish Charlie Wilsons War and the Andrew Jackson biography	2009-03-05 03:39:16
51928822	560725462	Charlie Wilsons War  Fantastic  Hanks did an awesome job I can see why this movie is awards bound  55 NetFlix stars	2008-01-04 04:21:19
4069342	1084543920	Were onto the maturity part I want sex drugs violence Charlie Wilsons War Michael Clayton LOTR from Pixar	2008-12-29 20:16:01
53874344	567680502	Just saw Charlie Wilsons War with Em amp DoFo	2008-01-06 08:05:16
25484043	2950759648	in bed watching charlie wilsons war somewhat jealous of 	2009-07-31 13:18:52
55757810	1086454350	watched Charlie Wilsons War Last nightI thought it was pretty goodgood performances	2008-12-30 19:31:56
9981737	906069686	Charlie Wilsons War  Have you seen it  No  You should  Tom Hanks Julia Roberts and Philip Seymour Hoffman	2008-09-01 20:15:49
55638771	533475752	Just saw Charlie Wilsons War amp Philip Seymour Hoffman stole every scene he was in he was the best part of that film	2007-12-26 01:31:59
11184757	1115121733	just watched Charlie Wilsons war and is doing research on the Cold War Not my normal reading at 1100 at night	2009-01-13 06:56:45
54233125	752694472	Followed up the book with the movie this afternoon  Charlie Wilsons War	2008-02-24 21:37:21
7198521	814464141	watching charlie wilsons war	2008-05-18 22:31:00
7888203	797716944	is charlie wilsons war	2008-04-26 23:09:06
19150598	1674367615	check me out at 6pm PT reviewing CHARLIE WILSONS WAR on the Young Turks Air AmericaXM radio show Streaming here 	2009-05-02 00:11:28
16397903	1368356399	 Im going to 1st thing tomorrow right now watching Charlie Wilsons War though	2009-03-22 00:48:11
55757498	1511929815	I watched Charlie Wilsons War today and it was pretty damn good	2009-04-13 21:28:02
1133425	897101950	Watching Charlie Wilsons War I have paused it approximately 8 billion times not because its boring but because I am spazzy tonight	2008-08-24 05:45:57
23434076	2766768302	Im actually looking forward to this Ghostface RampB album Can we get a collab w him amp Charlie Wilson	2009-07-21 22:55:40
48167693	1009770040	anyone seen and liked Charlie Wilsons War besides  whos seen everything i mean D	2008-11-17 16:09:49
18361903	1103723729	watching Charlie Wilsons War	2009-01-08 05:08:54
20750820	1031419399	Just watched Charlie Wilsons War Very good	2008-12-01 00:24:50
8560998	930857715	Just watched Charlie Wilsons War Aaron Sorkin is the finest screenwriter of our generation	2008-09-22 20:47:24
33979224	2270202150	Charlie Wilsons war var sjukt mycket b228ttre andra g229ngen man s229g den	2009-06-21 21:31:09
5884072	1084668171	 I just finished Charlie Wilsons War audiobook and it puts a whole new face on Afghanistan for me Book better than movie too	2008-12-29 21:31:49
11341791	850550833	Charlie Wilsons Warhopefully worth the time	2008-07-05 06:45:21
17505434	2830941909	So far Charlie Wilsons War is not the best movie Ive ever seen	2009-07-25 02:42:03
28869667	1909695846	watchin quotcharlie wilsons warquot wit fa homiezzz	2009-05-25 05:09:47
27106864	1214349772	Thinking about the state of Afghanistan after watching Charlie Wilsons War and reading Three Cups of Tea	2009-02-16 04:50:32
1349104	1125192677	Is charlie wilsons war anygood	2009-01-17 01:08:40
6718636	808501187	Going to Greek Fest tomorrow afternoon and watching Charlie Wilsons War at night	2008-05-11 07:52:43
3113585	1057305553	Watching Charlie Wilsons War on the way to DC  Could be like taking speed then driving an F1	2008-12-14 20:59:56
4191709	787958656	Just watched Charlie Wilsons war Pretty damn cool id you ask me	2008-04-12 20:50:36
5389259	857471082	Exercising and watching Charlie wilsons war	2008-07-13 21:13:26
30349370	1970301531	Anyone evr had the displeasure of watching Charlie Wilsons War ive switched it off Am almost tempted 2 watch Fireman Sam Things R  	2009-05-30 10:17:39
5354	2214662299	RT  Netflix just shipped Charlie Wilsons War to me 	2009-06-18 00:03:30
4147536	1077396413	the SeymourHoffman pissed off anger scene in Charlie Wilsons War is one of the best anger scenes everquestion my loyalty	2008-12-25 03:22:19
3676	928400850	Arthur Kent settles lawsuit with makers of Charlie Wilsons War 	2008-09-20 14:15:55
50836114	828780789	Watching quotCharlie Wilsons Warquot  Good flick	2008-06-07 01:21:51
19054814	1630111675	Watching Charlie Wilsons War Glad to know politicians wagging the dog hasnt changed much	2009-04-27 16:16:35
18552532	1056232922	is watching Charlie Wilsons War with MJR	2008-12-14 02:59:53
2785898	768465198	The Waterhorse Legend of the Deep Black amp White Bollywood The Savages Fools Gold There Will Be Blood Pride Charlie Wilsons War	2008-03-08 12:41:53
27269131	1397084811	Just watched Charlie Wilsons War  pleasantly surprised LoveFilm is truly a great invention	2009-03-26 21:53:12
1117813	1030747295	Feeling fat rested and happy Watching Charlie Wilsons War with the wife and a cup of coffee	2008-11-30 14:41:58
33224154	1329489595	Just watched Charlie Wilsons War	2009-03-15 01:01:33
29275653	2752822674	Eating avocado and watching Charlie Wilsons War its all about the simple things in life	2009-07-21 05:05:46
13062499	1052307658	Very productive day Watched dark knight Charlie wilsons war and stardust All ace especially the latter	2008-12-11 23:33:04
55845027	2829330362	Jasno Philip Seymour Hoffman first scene in charlie wilsons war is bone chilln 	2009-07-25 00:50:28
7240597	1385334119	Started rereading quotWaldenquot by Thoreau highly recommend quotCharlie Wilsons Warquot by George Crile	2009-03-25 01:22:47
1677791	550886222	Watching Charlie Wilsons war	2008-01-01 00:12:48
55998006	553351652	Liked Charlie Wilsons war for the acting  Despite the story historical interpretation	2008-01-01 22:34:03
28793318	3154249780	Charlie Wilsons War it is no argument it seems Fanks kids	2009-08-05 22:20:42
55778197	843942373	 Re Charlie Wilsons War Great flick right I love Philip Seymour Hoffman in it he makes the movie for me	2008-06-26 07:08:25
55833294	620899122	 Charlie Wilsons War Hoffman steals it Great all round Deals well with complexity 810	2008-01-20 18:14:20
13820587	1110589233	We hit Baker St the Gingerman and Taco Cabana  Id say tonight was pretty successful  Now home to guitar and Charlie Wilsons war	2009-01-11 07:11:11
3863469	818247283	 I saw Charlie Wilsons War the other night enjoyed it	2008-05-23 12:35:31
3145760	813971234	Charlie Wilsons War was pretty good	2008-05-18 03:54:02
11272258	863704811	Mmmm Zack made his delicious cheese bread and were watching Charlie Wilsons War	2008-07-20 22:37:48
23391545	2866483063	 no its more like something out of charlie wilsons war or mad men	2009-07-27 06:43:02
12940124	957263673	watched Charlie Wilsons War tonight enjoyed it and in a separate incident found this comic  what are the odds	2008-10-13 05:23:45
1829748	847407027	Thank You For Smoking Shoalin Soccer Capote South Park Uncovered The War In Iraq Charlie Wilsons War See Even a com 	2008-07-01 05:08:28
55674846	912454043	Saturday night of homemade pizza and Charlie Wilsons War drawing to an end Not an entry in the Top 10 Saturday Nights list Im afraid	2008-09-07 03:35:02
55685021	563980722	Twitterverse What movie to see Choices are Enchanted I Am Legend Juno The Golden Compass or Charlie Wilsons War Yes we are diverse	2008-01-05 02:22:22
18644446	1263499495	just watched charlie wilsons war	2009-02-28 22:37:51
55950948	536209952	I sat through all of Charlie Wilsons War and only ate half of the concessionsized box of Skittles I actually feel better about myself	2007-12-26 23:49:08
13239140	1087426561	Im watching charlie wilsons war anyone seen it	2008-12-31 05:26:59
19124240	1692992627	 charlie wilsons war	2009-05-04 04:17:02
56029591	551554712	Unos out of business  Charlie Wilsons War was hilarious even though the subject matter was depressing	2008-01-01 05:51:46
1682447	913453296	 Thats wild I watched Charlie Wilsons War tonight too	2008-09-08 04:10:01
27160329	1377716808	Charlie Wilsons War A bit boring to start of with but phillip seymour hoffman saved it D	2009-03-23 20:43:13
15580282	923620503	Lair Update Movie Review Charlie Wilson8217s War 2007 Hey thereamp8230Had a chanc 	2008-09-16 17:47:09
34609821	1566755942	Saw Charlie Wilsons war  must see movie	2009-04-20 16:33:46
31557942	1476348253	Finally saw Charlie Wilsons War  what is our afghan strategywe dont have 1 but were working on itwhos wemeamp 3 other guys	2009-04-08 13:04:30
6107007	824666362	watching Charlie Wilsons War	2008-06-01 16:20:32
21507469	1148151463	Craig is watching Charlie Wilsons War again Philip Seymour Hoffman rawks 	2009-01-26 03:24:36
55675775	1409104479	Watching Charlie Wilsons War	2009-03-28 22:10:49
7970679	3367836040	Watching Charlie Wilsons War and trying to stay cool in the AC Also doing some work on the laptop	2009-08-17 20:06:55
55950805	1236462467	Just filmed a scene from Charlie Wilsons War at Hornet for  video edition Onward	2009-02-22 05:51:24
16072266	3364325732	I ended up watching Charlie Wilsons War this weekend and it was actually really good MovieCentral gets me to watch stuff I wouldnt choose	2009-08-17 16:42:08
25886035	1232564838	Watching Charlie Wilsons War with John	2009-02-20 23:45:32
54067103	1124866018	Watching Charlie Wilsons war  Forgot how actually good Hanks can be  Seymour Hoffmann is a godlike presence though   Marvellous	2009-01-16 22:22:12
15688985	1147282557	At least now I can settle down to enjoy Charlie Wilsons War	2009-01-25 19:43:40
41661817	2290672693	Just laxn watchn Charlie Wilsons War	2009-06-23 05:23:11
11127630	2060429116	Watching Charlie Wilsons War and making muffins for breakfast in the morning 	2009-06-07 01:53:23
6110379	829874605	Watching quotCharlie Wilsons Warquot in preparation to going to a PR Committee Meeting at Church	2008-06-08 17:36:55
6895524	835756981	Great movie  Charlie Wilsons War but am glad it is over  Has been a long day and am retiring for the evening  Good Night Zzzzzzz	2008-06-16 06:17:59
6654999	801151518	Charlie Wilsons War easily the second best movie I have seen so far this year	2008-05-01 13:16:21
55981141	794891964	off to watch Charlie Wilsons War before bed  c u all in teh am	2008-04-23 05:59:00
40490782	1582444249	Watching Charlie Wilsons War so far im lost	2009-04-22 05:35:08
55726938	539253282	watching matin233e of Charlie Wilsons War	2007-12-27 22:35:55
55894175	2067402700	Watching Charlie Wilsons War while I pixel	2009-06-07 19:16:52
55726562	527648522	Buying ingredients to make traditional German sweet pancake and thinking that Charlie Wilsons War was good but could have been better	2007-12-23 23:34:35
18072347	1127636406	When you weave historical footage into a film it can be done poorly Charlie Wilsons War or it can be done well Milk Good job Gus	2009-01-18 05:14:18
4209780	1041480342	Tivoed Charlie Wilsons War on HBO  It was a good movie the first time	2008-12-06 03:51:23
52519449	1386489669	Charlie Wilsons War  a waste of my last 175 hours	2009-03-25 05:44:21
55845370	526693342	Going to breakfast and then to see charlie wilsons war	2007-12-23 15:37:23
26802753	2503614800	Just watched Charlie Wilsons War Seeing Tom Hanks behind was a very strange experience I must say	2009-07-06 21:50:44
54467155	908536031	Watching Charlie Wilsons War	2008-09-03 20:49:28
38380657	1877130075	We wre both sick today thanks to Alex A and Alexis jejeSo we wre the whole day in bed We saw Charlie Wilsons War	2009-05-22 00:42:56
2451030	819770294	Briefly considered renting Charlie Wilson8217s War then decided I couldn8217t deal with 25 hours of Tom Hanks spraying Affable everywhere	2008-05-25 22:28:00
34591246	3601165682	kayti hmm yeah i have the same dilemma with him have you seen charlie wilsons war 	2009-08-28 12:02:12
26315174	2116015704	wwwnicedealzcom Charlie Wilsons War Exclusive Full Frame  Steven Soderbergh Charlie Wi 	2009-06-11 11:53:38
34940018	1688653382	If you havent watched Charlie Wilsons War please do I loved it So relevant to whats happening in the world right now	2009-05-03 18:37:04
9291444	1302152608	Think Ill watch Charlie Wilsons War	2009-03-09 20:39:28
5650247	2378160563	just watched Charlie Wilsons War excellent movie Another great performance by Tom Hanks	2009-06-28 23:24:04
55692929	803008709	Saw two movies in the last two days Charlie Wilsons WarFantastic Michael Clayton just okay not as good as I was lead to believe	2008-05-04 04:45:07
55703042	527771952	Reiew Charlie Wilsons War Stellar dialogue amazing story 910 stars See it	2007-12-24 00:39:23
51096957	1128507875	Maar vanavond staat Charlie Wilsons War op het programma	2009-01-18 17:41:42
25665097	2380097282	About to watch Charlie Wilsons War with the mother Wonderful film highly recommended	2009-06-29 01:30:35
56004289	1323239191	Watching Charlie Wilsons War amp the title character just implored an Israeli with the phrase for the love of Christ	2009-03-13 18:47:35
3589025	763659044	Charlie wilsons war	2008-02-27 03:28:17
5042	1729433367	Grammy Award Winners Lil Kim Charlie Wilson and TPains New Music Video DOWNLOAD Featuring urFooz El S 	2009-05-07 18:10:56
9884023	1054344598	charlie wilsons war not holding my attention at all	2008-12-12 22:49:11
17436851	1356219405	  dude lets fix this  Megan and I in the finals and Ill give you a Charlie Wilsons War tshirt  Thx	2009-03-19 19:38:44
7606322	856716148	Samen op de bank met een film Charlie Wilsons War met Tom Hanks Best een leuke film	2008-07-12 19:15:44
43157925	1535952491	Watched charlie wilsons war yesterday great history lesson lesson in  flawed America foreign policy among others	2009-04-16 19:10:55
21443794	2870135068	RT  Anita Baker  Charlie Wilson to play a free concert tonight at Brooklyns Wingate Field 	2009-07-27 13:27:00
35979583	1830856884	so is charlie wilsons war basically criticizingblaming the US for supplying Afghanistan with weapons in the 80s	2009-05-18 00:43:14
6440250	817888978	charlie wilsons war and html	2008-05-23 00:56:41
2333829	1556469546	 i saw the movie tie  i am going to try to make it monday  i voted for charlie wilsons war CaaM	2009-04-19 05:57:41
10829835	1044729827	Popped on TV to kill five minutes Of course Charlie Wilsons War is on Doomed till 2 God I love this movie	2008-12-08 08:24:55
18548741	542354072	Just saw Charlie WIlsons War Decent movie and you gotta love Philip Seymour Hoffman	2007-12-29 01:12:07
13168891	946611383	watching charlie wilsons war amp making cookies	2008-10-04 23:45:50
21713450	1451782469	and have now switched to charlie wilsons war	2009-04-04 15:07:31
55851615	528557892	Recently seen Walk Hard Sweeney Todd and Charlie Wilsons War Verdict Good couldve been better Bad and OK	2007-12-24 07:21:01
51628264	580601262	In Leicester Sq about to walk up the red carpet behind Julia Roberts for the premiere of charlie wilsons war	2008-01-09 18:34:43
55303964	796519142	Laying on the sofa watching Charlie Wilsons War with the dog  Not too tired Wish I was though	2008-04-25 06:02:26
54794281	1404758749	an amazing tilapia dinner at home Recipe by  and cooked perfectly by  and now some Charlie Wilsons War	2009-03-28 01:33:41
2148441	1066571279	Godamn Charlie Wilsons War hits like motherfucker Every time	2008-12-19 06:04:09
55726822	567656622	Just watched Charlie Wilsons Warnow to download the History Channel piece on it and see what was different	2008-01-06 07:51:55
55786219	906245574	charlie wilsons war	2008-09-02 00:09:53
8739846	824288758	watching Charlie WIlsons war I didnt know this was based on a real guy	2008-05-31 23:54:42
19080484	1944340714	Did anyone else see Charlie Wilsons War Thoughts	2009-05-28 05:43:04
55665115	1054517700	 holy shit have you seen Charlie Wilsons war  He looks like a walrus	2008-12-13 00:46:18
4205395	765879544	Reading Charlie Wilsons War Loved the movie have high hopes for the book	2008-03-03 03:43:25
12842489	1296486900	charlie wilsons war whats that all about  yawn	2009-03-08 14:48:45
15239107	1273152815	Newly posted Charlie Wilsons War 	2009-03-03 09:39:36
56015548	1187287840	Just saw Charlie Wilsons War impressive acting Have to see it again	2009-02-07 21:32:48
41548547	3131801256	Bought Big Fish amazing and Charlie Wilsons War for 1632 each from the local rental shop Bargain Anyone seen the latter good Bad	2009-08-04 21:05:26
2407	495359832	Jud Tylor  8220Charlie Wilson8217s War8221 World Premiere Judy Tylor born March 24 1979 in Vancouver Brit 	2007-12-13 00:19:49
53269115	3236957435	 No one wins an Afghan war its impossible everyone loses especially the Afghan people Damn Charlie Wilson	2009-08-11 01:42:16
24198895	1776630632	 I have CHARLIE WILSONS WAR out on tour with me but I havent watched it yet Thank you for the recommendation I will	2009-05-12 19:44:41
15761266	941523870	The producers of CHICAGO 10 also produced Charlie Wilsons War An Inconvenient Truth and Syriana 	2008-10-01 05:05:07
55851403	834892822	Watching Charlie Wilsons War again while I debug	2008-06-14 21:59:18
55971209	553889802	 see Charlie Wilsons War much better movie	2008-01-02 03:15:17
41906393	543195202	Just saw charlie wilsonquots war	2007-12-29 08:23:18
38526201	1533958856	charlie wilsons war blaaa	2009-04-16 14:33:06
6081364	2052438836	Michael Clayton down Charlie Wilsons War scheduled for tomorrow	2009-06-06 07:43:58
55877517	844680592	Watching Charlie Wilsons War	2008-06-27 04:03:46
22695018	1506741321	Charlie Wilsons War was excellent	2009-04-13 02:41:26
55641664	837752769	244332969427491257732614421083253432104033995199902285525165Charlie Wilsons War20358214353047522217  	2008-06-18 13:04:23
9899414	1819063555	Im freakin sick watching charlie wilsons war in my hotel room in nacogdoches	2009-05-16 19:31:08
55785233	792852198	12298265972970218323041235723687430340251122010512299 Charlie Wilsons War 2007	2008-04-20 06:06:15
41765705	832661675	 indeed charlie wilsons war was good movie	2008-06-12 01:58:17
39219457	1713104285	going running shower charlie wilsons war while refining my resume	2009-05-06 03:04:56
3173	820303364	Charlie Wilsons War 2007	2008-05-26 17:06:22
55977611	800181800	After watching the new movie quotCharlie Wilson Warquot it just make me think how many times we help ppl that we God is working in the wrong time	2008-04-30 07:38:10
55681692	809918525	Enjoyed Charlie Wilsons War which made me proud and embarassed for Texas all at once	2008-05-13 04:39:04
6972646	3470440748	I found Charlie Wilsons War quite boring and never watched the whole thing I should probably try again one day	2009-08-22 11:30:29
1682528	793106040	Cloverfield and Charlie Wilsons War hit DVD this Tuesday I think Ill wait a long while before I pick them up hopefully on a good sale	2008-04-20 18:36:25
19169320	1090987691	 dont rent eagle eye  I dont think anything else is good Charlie wilsons war  Or lords of war on demand under free movies	2009-01-02 03:47:29
11422383	927941830	Woman  redbox offered to return Made of Honor so I could rent Thanks but no thanks Super T is not home so I got Charlie Wilsons War	2008-09-20 00:51:27
32622371	1352121998	watchin charlie wilsons war i should give actors lessons on talkin texan	2009-03-19 02:14:42
52277537	539818302	Charlie Wilsons War  excellent movie just fantastic	2007-12-28 02:45:08
21017880	2304181621	Watching Charlie Wilsons War while basking in the glow of my awesome apartment	2009-06-24 02:10:10
6475630	3256069762	Charlie Wilsons War is a great movie about the RussiaAfghanistan war in the 80s Great background	2009-08-12 01:07:18
55972152	710989812	Gestern quotCharlie Wilsons Warquot OMU im Kino gesehen Sehr geil 	2008-02-14 11:02:54
54872152	533219552	Going to see charlie wilsons war after chinese food  Studly  ran 10 miles in 14 degree weather to lunch I drove	2007-12-25 23:16:06
1623095	598942092	Hollywood In Hamilton The two dogs greyhounds from Charlie Wilsons War will appear in person at Hamilton Theater Thurs More to come	2008-01-14 20:41:33
11854961	1042912711	I am doing stuff just stuff computer stuff facebook stuff gmail stuff watching charlie wilsons war or listening to it HA	2008-12-07 03:13:13
33071551	1415736918	just finished watching The Charlie Wilsons Wargood movie	2009-03-30 03:20:26
990769	801929218	New DVD  Charlie Wilsons War B0013XZ2QK	2008-05-02 15:04:33
10082291	846223544	BTW watched Charlie Wilsons War last night Couldnt find In Bruges Absolutely classic	2008-06-29 14:38:35
34450810	2265142514	Having coffee with the love of my life Then I have to pull weeds make lunch and STUDY  Oh amp we are gonna watch Charlie Wilsons War	2009-06-21 12:53:40
15696163	1107623092	 one book I really liked on audible LONE SURVIVOR by Marcus lutrell And Charlie wilsons war Loooong though Haha	2009-01-09 20:44:16
6390902	1031761855	Tonights viewing of Charlie Wilsons War was a nice juxtaposition to last nights Iron Man	2008-12-01 05:04:46
28841466	1700053211	watching charlie wilsons war on TV	2009-05-04 22:12:53
124088	879849670	is watching Charlie Wilsons War	2008-08-06 23:49:15
29647912	2056241226	 Fantastic Mr B went a few years back and loved it They were filming Charlie Wilsons War whilst he was there	2009-06-06 17:47:05
37914858	3368075197	charlie wilsons wargreat movie	2009-08-17 20:20:06
10383132	1080576434	Saw charlie wilsons war Shouldnt have expected the whole book packed into 2 hours	2008-12-27 08:29:58
41635633	1979180459	Watching Charlie Wilsons War  Im hungry	2009-05-31 08:57:48
55314301	566960682	  Charlie Wilsons War is good too bad they had to leave out half of what happen	2008-01-06 02:18:26
18966123	985788371	quotCharlie Wilsons Warquot  VERY good  Eee pc no gcc  Head  headache	2008-11-02 00:51:52
6278201	1932041826	 der er jeg mer usikker Vakler litt mellom quotCharlie Wilsons Warquot og 229 catchup p229 TVserier tror det blir CWs War	2009-05-27 03:46:24
12399863	1781218768	 People say Will Smith is the only movie star I disagree You could say Seven Pounds did Charlie Wilsons War business	2009-05-13 04:10:23
55720847	806933035	Now were watching Charlie Wilsons War b4 going 2 bedfrom the mobile Ben	2008-05-09 03:25:05
6166942	1030404403	Watched Charlie Wilsons War Interesting and P Seymour Hoffman always brilliant	2008-11-30 06:21:25
46296157	2051698276	About to watch Charlie Wilsons War  Home on Friday night	2009-06-06 05:35:23
50923095	998176534	Watching GiantsPhilly and then in a bit Charlie Wilsons War for a second time in as many days	2008-11-10 02:09:06
39349343	2860609334	sei 241acho q tinha algo naquela comidadormi a tarde tdagora vou ver Charlie Wilsons Warfilme de 2007eu realmente estou desatualizada	2009-07-26 23:34:37
43761790	1302473967	Charlie Wilsons War Shows a congressman in his true colors manifests conservatives loves Jesus lives with Islam no respect for women	2009-03-09 21:50:03
46073837	2194760031	Charlie Wilsons War Movie You would know how US helped Afghanistan against Russia before destroying it 10 years later	2009-06-16 17:13:29
32756359	2945188573	 I like Charlie Wilsons War a lot since I saw it in the theaters  And yes I got my old job back	2009-07-31 04:22:54
38022354	1629494429	Watching Charlie Wilsons War	2009-04-27 15:02:02
20935973	1159878129	Ear infections hurt like the dickens Watching quotCharlie Wilsons Warquot and then falling asleep	2009-01-29 22:15:08
169554	525074262	Just saw the movie Charlie Wilsons War it was an intriguing true story but not for a young crowd	2007-12-22 23:10:29
55870369	821393060	Watching Charlie Wilsons War	2008-05-28 02:48:08
21030282	1078906881	Watched Charlie Wilsons War Elite Squad and The Spirit today CWWGreat ESBadass The SpiritProbably one of the worst movies of the year	2008-12-26 05:02:51
12249034	1267855661	 I couldnt find Charlie Wilsons War as an eAudiobook at the Carnegie Library of Pittsburgh but its downloadable at audiblecom	2009-03-02 03:38:28
12327683	1060182358	 Only good post Philadelphia Hanks is Charlie Wilsons War and the Toy Story franchise	2008-12-16 07:01:33
4874907	794620738	Charlie Wilsons War plays more like a really good HBO movie then a great film	2008-04-22 21:40:28
55657185	888425463	just finished watcing charlie wilsons war on dvd	2008-08-15 13:04:04
6475630	3268180821	Its a commie flick How is this not in my netflix suggestions queue Wi fix when I get to office Btw I high recommend charlie wilsons war	2009-08-12 16:40:28
29025527	2286869467	 Watch Movie Charlie Wilsons War	2009-06-23 00:02:16
4195016	1038469340	Watching Charlie Wilsons War	2008-12-04 17:03:35
3578718	1255944492	Tom Hanks bedrest kick continues  Charlie Wilsons War Really good flick	2009-02-26 23:51:52
26116199	1212021205	watched Charlie Wilsons War yesterday  	2009-02-15 10:11:31
28368745	2784224643	watching Charlie Wilsons War trying to concentrate but feel baaaaaaaaad havent eaten in 3 days but going to try eat something now hurts	2009-07-22 20:06:44
27252456	3192796133	Watching quotCharlie Wilsons Warquot  and unfortunately I wont get to finish itagain	2009-08-08 13:22:02
22854221	1168000957	And charlie wilsons war ends a good trio of films today	2009-02-01 23:12:47
51154754	984962757	watching quotCharlie Wilsons Warquot for the 3rd time sorkin is a genius	2008-11-01 07:51:33
14807774	2357538675	Charlie Wilson s War 	2009-06-27 10:29:57
3057963	944255230	Afghanistan is kind of a delicate thing  Anyone watch charlie wilsons war current	2008-10-03 01:58:44
43684864	2012090098	Listened to U2 while making homemade nachos no meat today  Getting ready to eat and watch Charlie Wilsons War	2009-06-03 03:03:12
14088532	3261836894	Charlie Wilsons War yet another great film Im chilling and enjoying	2009-08-12 07:48:52
34307134	1361320094	reading Charlie Wilsons War watching NCAA hoops working at Bethel and trying to be a good husband	2009-03-20 17:02:22
8321163	964599475	Wheres the baseball  Planning to watch Charlie Wilsons War this evening with the wife after the kids are in bed  Ive never seen it	2008-10-18 00:33:19
52010331	3088640728	 Get charlie wilsons waror pineapple expressor forgettin sarah marshallor four christmass	2009-08-02 16:56:26
42577056	2041073918	Charlie Wilsonamp39s War by George Crile  Audiobooks Australia Think and Grow Rich Instant Motivator by Napol 	2009-06-05 09:37:49
17119779	2491449159	Finished watching Charlie Wilsons War Not bad	2009-07-06 03:14:29
9913248	1059840749	Bout to watch Charlie Wilsons war with the wif Hope it isworth it  At least I can get some good cuddle time in with the little lady 	2008-12-16 02:44:03
21586341	2063298146	Ok Im up Feel Ive got a bit of a grump on coz Im not the best with no sleep Watching the rest of Charlie wilsons war then being useful	2009-06-07 09:06:05
1819258	630725202	Practicing at chiorProbably catching Charlie Wilsons War later	2008-01-23 04:07:43
21772390	1286796911	Charlie Wilson honored with Silver Bucket Award 	2009-03-06 03:52:40
41579831	2488550670	Charlie Wilson closes the Gap between then and now  NOLAcom Charlie Wilsonamp39s wars include not just prosta 	2009-07-05 23:11:57
3851894	808955981	Is watching Charlie Wilsons War with her guy	2008-05-12 00:52:49
46407919	2040563452	is busy finding charlie wilsons  war	2009-06-05 07:58:55
55942752	1017181983	Charlie Wilsons War 	2008-11-21 21:08:33
17548693	2047250435	Watching Charlie wilsons war	2009-06-05 20:22:24
25906490	2715107787	Charlie Wilsons War  Great movie	2009-07-19 01:53:40
55928226	806018760	Thanks to   I just ordered a pizza When it gets here Im going to watch Charlie wilsons war Hope its good	2008-05-08 02:12:50
55662929	810443281	Listening to Charlie Wilsons War on audiobooks So far just lots and lots of backstory	2008-05-13 19:03:40
2581958	1005920080	watching charlie wilsons war on dvd 	2008-11-14 18:54:05
2422756	1075249125	watching Charlie Wilsons War on Boxee check it out at 	2008-12-23 23:19:45
55808066	972994616	 Southland Tales is one of the best movies Ive seen all year I want to see Charlie Wilsons War cos Im a Sorkin fan	2008-10-24 02:04:42
43665120	3184900669	 by the way hast du charlie wilsons war gesehen afghanistan	2009-08-07 22:59:09
11305960	979049422	White flag Still have Charlie Wilsons War after 3 months unopened I need to return it and move on with my lifeNetflix queue	2008-10-28 14:54:18
18695036	1149217014	QR Charlie Wilsons WarInteresting and very boring at the same time PSH was a good choice for the CIA spook	2009-01-26 15:09:37
19634014	1128349107	Weeks top pick however Charlie Wilsons War  like best episode of West Wing you never saw	2009-01-18 16:07:26
890168	800843986	watching Charlie Wilsons War	2008-05-01 01:34:25
30171783	2069639004	Watching Charlie Wilsons War	2009-06-07 23:14:55
40858538	2500390686	Done with Charlie Wilsons War Learned more from the documentary I watched B4 Now Valentine tv show	2009-07-06 17:56:28
9801861	1031483173	 Charlie Wilsons War is a great movie I love Aaron Sorkins writing The book is worth reading too	2008-12-01 01:17:47
48523442	857038969	Just watched Charlie Wilsons War	2008-07-13 06:14:15
55657261	1237663622	Reading Charlie Wilsons War on Kindle Ordered 3 books from Amazon on highwire walker Phillipe Petit	2009-02-22 17:42:08
18307015	1037413271	finally finished watching Charlie Wilsons War very interesting	2008-12-04 02:36:47
47399274	818712415	Watching Charlie Wilsons War and being in pain	2008-05-24 02:00:25
24987180	1457956438	Charlie Wilsons War was Carrie Muniaks Make Out Session	2009-04-05 17:52:27
5512348	2184256900	IE Juno bourne ultimatium darjleen limited be kind rewind Charlie Wilson war get smart autumn rush kit ketridge district b13	2009-06-15 22:38:49
17501503	1209119889	Watching Charlie Wilsons War  I love Phillip Seymour Hoffman	2009-02-14 06:22:02
24858464	1225428647	Facts I got a whole lot more out of quotCharlie Wilsons Warquot the book than I did the movie Book good movie not so much	2009-02-19 03:19:47
23737004	1105908259	GETTING READY TO WATCH   CHARLIE WILSONS WAR  AND HELLBOY 2  WATCHING COUNTDOWN WITH KEITH OLBERMANN RIGHT NOW 	2009-01-09 03:17:22
3237594	913371938	Just finished watching Charlie Wilsons War Was not just entertaining but also a far better film than I might have expected	2008-09-08 02:35:28
890685	569738442	Saw Charlie Wilsons War  liked it a whole bunch  Tom Hanks and Philip Seymour Hoffman are great	2008-01-07 00:11:34
18936812	1077500527	watching Charlie Wilsons war Awesome awesome movie	2008-12-25 04:50:04
6149374	1277025688	is off 2 sleep smiling at line in Charlie Wilsons WarJulia Roberts8220Charlie Y does congress say 1 thingampdo nothing8221 Hanks8220Tradition mo 	2009-03-04 03:33:01
11617114	1189095641	 august rush der baader meinhof complex charlie wilsons war the bucket list a boy la vie en rose	2009-02-08 16:12:31
54466869	920412857	Charlie Wilsons War is a rather good film	2008-09-13 20:32:37
21722439	1419734572	The joys of EWB Had a nap and off to another nightshift in a bit Charlie Wilsons War or Spinal Tap to keep me awake till 6	2009-03-30 19:37:07
26116106	1183186836	Charlie Wilsons war	2009-02-06 14:04:09
34027537	1352246701	Is watching charlie wilsons war for ucwr	2009-03-19 02:41:22
50747350	1081664316	just finished Charlie Wilsons War  excellent film	2008-12-28 02:14:58
7986877	802910152	Does anyone want to buy Charlie Wilsons War from me Im an honests seller Its terrrrrible	2008-05-04 00:57:06
35470008	1665075949	 I just bought Charlie Wilsons War last night and I love it Im going to watch it again tonight	2009-05-01 01:37:10
39889698	1631055477	mike nichols charlie wilsons war  a fun time if you thought syriana babel amp the constant gardener were too bleak better than expected	2009-04-27 18:07:49
14880579	1069270514	 Did u watch Charlie Wilson s War	2008-12-20 18:01:10
34547181	1914798259	charlie wilsons war  pretty good enlightening loved phillip seymour hoffman	2009-05-25 18:23:31
55906504	1096594990	  I think that Charlie Wilsons War was definitely worth the viewing My superficial self enjoyed Julia Roberts makeup amp hair	2009-01-05 06:16:11
36881013	820479463	Just finished watching Charlie Wilsons War  Pretty good  Philip Seymor Hoffman was excellent as always	2008-05-26 22:49:54
3202069	1592399559	 You seen the movie Charlie Wilsons War Thoughts	2009-04-23 07:22:54
15522009	1144818359	watching charlie wilsons war and working on stuff	2009-01-24 16:36:39
10006299	830103674	if you havent seen Charlie Wilsons War yet do yourself a favor and get your ass to the nearest redbox Its awesome	2008-06-09 01:29:39
7693528	1785914709	Ive had a NetFlix copy of Charlie Wilsons War since February 16  Whats the likelihood at this point that well actually watch it	2009-05-13 16:30:59
55664819	1206882763	 The King of Kong Confessions of a Superhero Charlie Wilsons War Helvetica Jesus Camp Thank You for Smoking	2009-02-13 16:34:52
55965418	582453832	Charlie Wilsons War  very good flick I highly recommend	2008-01-10 05:59:18
33642577	695847722	megn233ztem a charlie wilsons wart szerintem fasza	2008-02-10 11:18:35
13674791	3596039364	Charlie Wilsons War Free Cinemax is awesome	2009-08-28 04:18:28
6553892	814614296	Just watched Charlie Wilsons War Good flick Depressing though	2008-05-19 03:24:06
13965178	1060145754	Charlie wilsons war Good or bad	2008-12-16 06:24:53
9961961	1097072620	    You guys were right I loved Charlie Wilsons War that Tom Hanks is something	2009-01-05 13:37:25
42901200	2639063608	filmrecension Charlie Wilsons war Mycket starkt och underh229llande drama om Afghanistan vs Sovjet Stark 4 Hanks och Hofman 228r grymt bra	2009-07-14 21:13:25
55781406	1217303332	 I just watched Charlie Wilsons War last night  your CIA gave them the weapons to do it 0	2009-02-17 01:02:27
7724784	803465531	Charlie Wilsons War non bluray 	2008-05-04 23:07:19
8169467	1209445845	OK what the crap I put in the Charlie Wilsons War DVD and theres an unskippable ad from Gwyneth Paltrow about HIV With poetry WTF	2009-02-14 10:50:56
15017108	1830267424	Fresh from a 5 hour postchurch nap feeling DARN GOOD Now watching Charlie Wilsons War	2009-05-17 23:28:36
55984293	629739742	terug van Sneakpreview Charlie Wilsons War Aardige film Vaste Sneak presenter Kenny gaat voor FokSuk tekenen en stopt ermee	2008-01-22 22:40:09
49224822	2478819276	thankyouaaron How I wish the US had funded social programs in Afghanistan after Charlie Wilsons War so that your life may have been spared	2009-07-05 05:03:37
3726133	960203402	 Charlie Wilsons War Freaks amp Geeks Disc 4 and Waynes World 2 plus 219 others you got netflix	2008-10-15 05:23:43
4106628	3607936228	watching Charlie Wilsons War on Boxee check it out at 	2009-08-28 18:13:09
46383996	576966852	enjoyed quotCharlie Wilsons Warquot as entertainment wondered what the makers political agenda was	2008-01-08 20:32:44
7402890	1092253975	What to do Watch Charlie Wilsons War or the Sugar Bowl tonight	2009-01-02 21:18:53
5344446	1538199007	 get Hard Candy Charlie Wilsons War or Deconstructing Harry	2009-04-17 00:54:08
16075130	956148711	whos seen charlie wilsons war  philip seymour hoffman is the man	2008-10-12 03:37:19
6080494	844733692	Just rented my first iTunes movie  Charlie Wilsons Warsaw that it was written by Aaron Sorkin He wrote The West Wing  Ergo Im in	2008-06-27 05:52:24
11133984	1684186415	hard day whiskey night movies etc etc Charlie Wilsons War was really good now watching Groundhog Day Bill Murrayamplt3	2009-05-03 03:31:17
22100906	1767820179	 Charlie Wilsons War is so well done too a must see movie	2009-05-11 23:04:59
6131039	2724070785	 Catch me if you can million dollar baby frostnixon the queen a beautiful mind cindrella man ali charlie wilsons war	2009-07-19 16:52:52
11855230	1027452976	Charlie Wilsons War or Eternal Sunshine of the Spotless Mind Thanksgiving was great	2008-11-28 04:55:35
2661192	884105577	224 und propos zynismusCharlie Wilson8217s War featured fr246hlichlist selbigen und wischt sowohl USA als auch verschw246rungstheortikern eins aus	2008-08-11 13:16:27
7805553	819305707	Just watched quotCharlie Wilsons Warquot	2008-05-25 02:03:39
11450244	897240776	Movie Rev Charlie Wilsons War SoSo Often formula  Actors showed up to get paid except Hoffman  Seriously needs good editing Skip	2008-08-24 11:31:42
27226417	1187469060	Have just finished watching Charlie Wilsons War washed Hollys bottles trying twitter for first time going to bed intrigued	2009-02-07 22:57:53
26964693	1210695198	Charlie Wilsons War such an enjoyable movie props to Sorkin as per Shame about the unskippable message on the DVD	2009-02-14 21:11:23
48819475	2416421234	Just watched Charlie Wilsons War	2009-07-01 06:03:22
24609352	1220338024	watching Charlie Wilsons War	2009-02-17 21:01:32
2826	755433912	 I just recorded Charlie Wilson  Sprung on me from APCSRADIO  The sound of Amsterdam	2008-02-25 12:08:48
34691864	1460365343	Watched quotCharlie Wilsons Warquot and quotAamirquot	2009-04-06 02:03:59
55927486	797233748	Charlie Wilsons War is EXTREMELY funny and I totally recommend it	2008-04-26 03:36:02
16754535	1681308981	Nachdem ich vorhin quotCharlie Wilsons Warquot und quotStellungswechselquot nachgeholt habe folgt jetzt quotUNTRACEABLEquot	2009-05-02 20:42:28
10126654	838356530	Code Clue Which actress stars opposite Tom Hanks in Charlie Wilsons War  J	2008-06-19 03:52:54
1225566	793170801	Charlie Wilsons War Surprisingly sucky Im no longer disappointed that it took me so long to see it Did Sorkin really write this Yikes	2008-04-20 21:08:05
6483525	802715074	Just finished 4 more 100CC races and still no new characters  Starting quotCharlie Wilsons Warquot  Hope the hype was right	2008-05-03 17:43:44
55977307	527837562	New blog post Charlie Wilsons War Sinematic Review 	2007-12-24 01:12:09
22682712	1264788017	put two kids to sleep cleaned organized garage played baseball w Miguel played DS watched Charlie Wilsons war and managed a tweet	2009-03-01 07:14:07
8220377	1056207653	watching Charlie Wilsons War on HBO  So far so good	2008-12-14 02:38:22
7737120	1060099439	Gonna watch Charlie Wilsons War instead of going to sleep	2008-12-16 05:44:18
5486362	872722103	New GrandCentralPoliticalcom column by fmr WH speechwriter Michael Johns Charlie Wilsons War  Americas War 	2008-07-30 16:17:25
55714735	828084431	Watching Charlie Wilsons WarJoAnne is fabulous	2008-06-06 00:30:40
4273078	912890633	watching Charlie WilsonS war before finishing up bs viewer j2ee flex minimal alpa demo	2008-09-07 16:24:05
46087129	2056626092	Charlie Wilsons War might be the most underrated movie of the last year	2009-06-06 18:29:32
16025431	1048459381	watching quotCharlie Wilsons Warquot tonight	2008-12-10 03:26:50
33711266	1455076805	The Nanny Diaries and Charlie Wilsons War  Movie night and early to bed  Work in the morning  Really work on Sunday  I love my life	2009-04-05 03:02:40
385631	876835537	Charlie Wilsons War was really good	2008-08-04 02:37:00
15146322	903715573	I love Movies and Music Just watched quotCharlie Wilsons War with Tom Hanks	2008-08-30 04:57:20
30199026	2168701028	watching charlie wilsons war again  hanks and hoffman are great	2009-06-14 20:18:53
5153	1849502224	Piece Of Mind Charlie Obama8217s War I watched the movie Charlie Wilsonamp8217s War last week I did not anticipa 	2009-05-19 17:38:03
35704988	1414534773	watching Charlie Wilsons War	2009-03-29 23:04:30
39185450	939947402	watching charlie wilsons war and eating dinner	2008-09-30 00:32:59
11228416	843856164	exhausted about to watch charlie wilsons war	2008-06-26 04:01:59
52875520	3274722808	Yo try and watch CHARLIE WILSONS WAR 2007movie time	2009-08-12 22:45:15
55716993	591186762	Movie recommendations for this evening please I loved the book of Charlie Wilsons War anyone seen the movie	2008-01-12 14:27:39
3513515	1445838091	 Book Review Charlie Wilsons War by George Crile 	2009-04-03 15:18:01
36477457	2529487687	Home Just got back from senayan city bought TIME special commemorative MJ edition Charlie Wilsons War amp Zodiac dvds Smart shopper No	2009-07-08 07:57:54
56000887	863683970	Charlie Wilsons War  strangely amusing film	2008-07-20 21:53:57
5185	1901490766	 Chinese tea ornate kimonos Dior perfumes Charlie Wilsons War Monaco Grand Prix Roland Garros and United Questce quun jour	2009-05-24 09:46:55
2723	603043602	Charlie Wilsons War fantasticly good fun amp nonpreachy Hanks does his thing but PSH is a genious	2008-01-15 22:00:54
45078606	2941958982	About to watch Charlie wilsons war	2009-07-31 01:08:25
55919617	592066042	  Charlie Wilsons War is great and Juno is sure getting the love over at rottentomatoes	2008-01-12 20:22:02
3932006	2427340559	Really enjoyed Charlie Wilsons War  great characters and dialogue particularly Mr Seymour Hoffman If you havent watch it	2009-07-01 22:29:51
17375483	1851337060	charlie wilsons war doesnt have SHIT on angelica bagos war 	2009-05-19 20:39:22
49811246	797767624	watching Charlie Wilsons War	2008-04-27 01:11:55
5216988	799958372	Heading out Thinking about renting Charlie Wilsons War since  recommended it so highly 	2008-04-30 00:27:13
33983863	3157605435	Watching Charlie Wilsons War then planning the big day tomorrow I think I found a possible big sister for my little brother in the fall	2009-08-06 01:37:02
18240157	1052994959	Charlie Wilsons War is good  I am enjoying it quite a lot	2008-12-12 07:47:52
6876089	853429201	Just finished Charlie Wilsons War Really interesting movie Hoffman was great as usual Recommended	2008-07-09 04:29:16
29250739	1292997788	Watched The Other Boleyn Girl and Charlie Wilsons War for movie night with the girls	2009-03-07 15:45:43
55967599	609578682	 Organising a trip to see Charlie Wilsons War probably on Monday Whole world welcome to join	2008-01-17 14:31:27
56022139	548067742	Going to see Charlie wilsons war with tha misses 	2007-12-31 02:49:42
55785937	1366324729	Charlie Wilsons War	2009-03-21 16:19:08
55984343	859500098	Just finished watching Charlie Wilsons War Great film  a fascinating depiction of an interesting and still relevant true story	2008-07-15 23:49:25
2961224	875300356	watching charlie wilsons war	2008-08-02 02:15:50
998317	1018608914	 Charlie Wilsons War is awesome Reads like fiction but its all true	2008-11-22 21:48:04
45334646	2315175708	 we beginnen aan Charlie Wilsons warff oordeel van de filmkenner 57430	2009-06-24 19:45:37
9225095	774355838	2885820309 Charlie Wilsons War 34987209983900625104123003848021046320261230120102	2008-03-20 10:26:34
36798168	1463985464	is heading home soon  Charlie Wilsons War from LOVEFiLM tonight maybe	2009-04-06 17:07:39
18064954	1723730891	watching quotCharlie Wilsons Warquot Giggling	2009-05-07 03:20:52
5612395	799537038	Charlie Wilsons War promotion 	2008-04-29 14:15:56
9113889	1238047935	Cold War week on my movie rotation Charlie Wilsons War is surprisingly funny and fascinating Not exactly an Oscar but i like it	2009-02-22 20:08:10
38902608	525302012	Off to see quotCharlie Wilsons Warquot with Missy and Dom Were saving quotNational Treasurequot for tomorrow	2007-12-23 01:22:36
30359068	2676295999	Is about to watch Charlie Wilsons war cant remember y I added it to my love film list	2009-07-16 21:13:03
9126202	1391242300	Bee Movie Eat Drink Man Woman Indian Babu and Charlie Wilsons Warits movie night I heart NY public library 	2009-03-25 23:52:35
6710346	810433174	Nicks List Speed Racer Charlie Wilsons War High Fidelity Baby Mama and oh yeah the poetry of Stephen Crane 	2008-05-13 18:49:40
46434580	2050080723	WIN A TRIP THE 2009 ESSENCE MUSIC AWARDS AND MEET CHARLIE WILSON CLICK HERE FOR DETAILS 	2009-06-06 01:01:54
54691802	589370802	Watched Charlie Wilsons war Educational and entertaining Philip Seymour Hoffmand has perfect comic timing and delivery	2008-01-11 23:37:20
55239938	1030087712	Watching Charlie Wilsons War on HBOHD	2008-11-30 01:06:11
55710878	2410429051	 Charlie Wilsons War	2009-06-30 22:00:48
17262765	1071981048	Just kicking back and watching Charlie Wilsons War	2008-12-22 09:32:08
23817202	1307582653	 Wondering if he was going to gift them with DVDs of Spies Like Us The Living Daylights andor Charlie Wilsons War	2009-03-10 21:59:48
43878547	1804808129	Off to class  Watch Rob Zombies Halloween last night  Review will be up later as well as for Charlie Wilsons War and Traitor	2009-05-15 10:35:57
9767207	1035386835	watching Charlie Wilsons War  Its amazing what a slacker can accomplish when motivated	2008-12-03 02:21:44
8350215	812538216	just finished watching quotcharlie Wilsons warquot Hard to call all that death quotvictoryquot	2008-05-16 06:24:10
55975374	1090987353	LOVED Charlie Wilsons War	2009-01-02 03:47:10
125501	1398923686	Charlie Wilsons War	2009-03-27 03:40:50
16464159	2253938637	Watched Charlie Wilsons War  Not only entertaining gives you good background on Afghani War wRussia and why we are where we are today	2009-06-20 15:58:51
51392142	2681273372	Charlie Wilsons War DVD 2008 Widescreen US 099 0 Bid End Date Thursday Jul162009 213231 PDTBid no 	2009-07-17 02:45:43
10207795	1171849083	watching Charlie Wilsons War on Boxee check it out at 	2009-02-03 03:14:55
30759728	543216182	Just back from seeing Charlie Wilsons War  Good history lesson for Alex born 1988	2007-12-29 08:35:21
6280178	798806625	DVD Charlie Wilsons War  	2008-04-28 16:00:02
26357388	2599894324	James on Monica Potter You want a blonde Julia Roberts dye Julia Robertss hair blonde Thats what they did for Charlie Wilsons War	2009-07-12 16:05:19
3641222	1468041654	 yeah it did suck and its on now so Im switching to the end of Charlie Wilsons War fantastic movie	2009-04-07 06:24:26
35516015	2846844480	Harry potter amp charlie wilsons war all on 1 rainy day Not so bad fb	2009-07-26 02:24:47
2669644	650294772	Charlie Wilsons War was great Fantastic writing Am now wide awake and its the end of the weekend why do I feel better now	2008-01-28 11:07:44
4406	1200093806	watching Charlie Wilsons War	2009-02-11 19:44:20
3664833	522866882	Seeing Charlie Wilsons War hope its as good as the book	2007-12-22 01:49:43
29271056	2284974218	Sat with Jacob last night and watched Charlie Wilsons War  Cant remember the last time I watched a movie laughed my head off	2009-06-22 21:32:55
2907	795499110	Getting ready to watch Charlie Wilsons War  great summerlike day in Boston	2008-04-23 22:57:48
40351880	1930209128	I must say Tom Joyners Cruise was greatlooking forward to 2010Babyface was great Charlie WilsonGapBandgreatBig Daddy Kane 	2009-05-27 00:53:19
22900409	1681062951	About to watch quotCharlie Wilsons Warquot  Tom Hanks Julia Roberts Phillip Seymour Hoffman	2009-05-02 20:07:46
34095521	1367243139	Watching Charlie Wilsons War	2009-03-21 20:01:39
1376807	1396688169	Watching Charlie Wilsons War Will let you know whats it like 	2009-03-26 20:43:38
6013175	863321881	Charlie Wilsons War was great Be Kind Rewind was clowning Jerry McGuire  not so much Wish it was Sweded	2008-07-20 09:32:13
29813794	1503545449	I love CHARLIE WILSONS WAR	2009-04-12 16:10:42
10480243	2583211218	pizza and a film Charlie Wilsons War	2009-07-11 12:45:06
55679703	1082065660	Im really really not a Sorkin fan but I liked what he did with Charlie Wilsons War Mike Nichols probably didnt hurt either	2008-12-28 08:44:11
55073410	1760228774	Charlie Wilsons War was an excellent film	2009-05-11 03:59:10
40781729	1729011796	Grammy Award Winners Lilamp39 Kim Charlie Wilson and TPainamp39s New   SYSCON Media press release 	2009-05-07 17:22:24
29396347	1814878779	I watched 8220CHARLIE WILSONS WAR 65288SKY PerfecTV652898221 yesterday Good	2009-05-16 07:36:01
17377025	2441341776	Just sang Happy Birthday to the lady Julia Roberts portrayed in Charlie Wilsons War Yeah Im awesome	2009-07-02 18:51:13
22202438	619470472	charlie wilsons war great  Aaron Sorkin too	2008-01-20 06:40:05
5880071	2219096662	Which Classic to Watch Tonight Charlie Wilsons War 	2009-06-18 06:47:20
9735366	2194712698	last message of charlie wilsons war is somethin which US should never forgetbeautiful movie	2009-06-16 17:09:41
27896589	1795295683	 Im currently reading Atlas Shrugged then I have Charlie Wilsons War and Liberty and Tyranny	2009-05-14 14:31:04
9883292	846825086	R225ntott sajtot estem steakburgony225val 233s Charlie Wilsons War c filmet n233zek hozz225	2008-06-30 11:20:05
56021571	1042794469	Charlie Wilsons War how the fuck did I not see this	2008-12-07 01:32:32
41977769	3615222810	charlie wilsons war udah abis ajadeh  hm jadinya nonton Mr Bean yg animated series decccccch btw  nanti kamu blh gax	2009-08-29 00:33:41
2279892	815297161	Just watched Charlie Wilsons War Not bad a bit cheesy and OTT but def watchable Will look out for a biography next time Im on Amazon	2008-05-19 22:46:59
38584028	1031711468	just saw Charlie Wilsons War  was pretty damn good	2008-12-01 04:20:22
24395870	1432581397	charlie wilsons war	2009-04-01 17:06:12
5606102	1797398617	wwwbestweekevertv bwetweetup  Charlie Wilsona War	2009-05-14 18:05:18
439181	1784010281	Charlie Wilsons War 	2009-05-13 12:59:00
55836343	1890408878	What is the ending quote of Charlie Wilsons War jenna123 wwwmosiocomq	2009-05-23 04:05:00
2374309	896996086	We watched Charlie Wilsons War tonight Quite good	2008-08-24 02:38:05
47989757	1057038582	watched Charlie Wilsons war last night Tom Hanks either makes movies good or he just amazing at picking which ones to be in	2008-12-14 17:34:54
33218338	2473439504	Why is Congress saying one thing and doing nothing Tradition mostly Charlie Wilsons War 108710881086 108210861085107510881077108910891084107710851072 1087108610761085110310741096107710751086 1090107710841091 108710861076107610771088107810821080	2009-07-04 20:10:55
5595696	1415118479	Charlie Wilsons War  Syriana  Talk to Me  999	2009-03-30 01:10:05
10889167	836347651	are watching Charlie Wilsons War	2008-06-16 22:15:38
41082201	2366586265	random movie of the night Charlie Wilsons War	2009-06-28 02:11:38
1220554	2877882139	Zo Weer twee films gezien Charlie Wilsons War en Severance	2009-07-27 21:33:19
9962030	824340124	Charlie Wilsons War is amazing Ive never wanted to be a politician before and if it werent for all the money raising I might	2008-06-01 01:55:44
32559294	812549551	Just watched Charlie Wilsons War Nice movie Thought provoking	2008-05-16 06:50:33
25812123	1213690488	Hoffman in Charlie Wilsons War is fucking amazing	2009-02-16 00:06:21
49357679	874465869	Chris Adams cofounder of Participant who made Syriana Kite Runner Good Nigh and Good Luck Charlie Wilsons War	2008-08-01 07:07:58
9355174	820530590	Watching Charlie Wilsons War	2008-05-27 00:39:57
6199501	806051612	Im also going to start posting when I watch a movie Recently Charlie Wilsons War Apocalypse Now Coldplay Live 2003	2008-05-08 03:07:41
6978637	1253324544	HBO3827122312259182614412298Charlie Wilsons War12299652922002728436 Tom Hanks 21644 Julia Roberts	2009-02-26 12:06:55
874396	1130552943	watched charlie wilsons war a few nights ago pretty good liked the subtle treatment in the end about how we fd up the endgame	2009-01-19 14:55:31
5352491	1030298995	Watched Charlie Wilsons War not a bad flick not great but entertaining	2008-11-30 04:27:50
55808455	717265552	Charlie Wilsons War Bastante bien No esperen una autocritica descarnada hay pero al estilo Hollywood ya saben	2008-02-15 19:48:09
25904204	2588731929	Charlie Wilson war  great film check it	2009-07-11 20:55:48
56022449	843733334	Watching Charlie Wilsons War I really feel like I relate to this guy A smart ass who likes to rock the boat	2008-06-26 00:26:02
46971745	533329172	Charlie Wilsons War was a great movie	2007-12-26 00:14:31
26894145	3321314585	  I loved both Charlie Wilsons War has Tom Hanks my boyfriend so I was sold but from  s view he like it too	2009-08-15 02:49:31
16116893	1030331406	drinking beer and watching Charlie Wilsons War in Kingman AZ	2008-11-30 05:00:03
5651698	1409885108	Watching Charlie Wilsons War Really good movie so far	2009-03-29 01:04:40
4041958	835076353	finally saw Charlie Wilsons War  Much is sugar coated though the story is quite the muse Philip Seymour Hoffman totally steals the show	2008-06-15 05:09:06
8967018	1118168172	 dudegood Charlie Wilsons War reference	2009-01-14 13:00:55
55954782	798710848	ellen Living blog Movie Watch Charie Wilson8217s War I watched Charlie Wilsonamp8217 	2008-04-28 13:54:00
55929951	542732432	Edward gives Charlie Wilsons War two paws up  claws out Screenplay by Alan Sorkin which totally explains the witty banter	2007-12-29 04:15:29
8966666	1030389564	CHARLIE WILSONS WAR  Movie was well done	2008-11-30 06:03:31
11513319	1887666430	watching real story of Charlie Wilsons war its good	2009-05-22 22:42:06
19586016	1033682617	Charlie Wilsons War at Britts in Boulder CO 	2008-12-02 05:29:32
55767696	818233941	watched Charlie Wilsons War Great and rewatched Usual Suspects also great already this morning	2008-05-23 12:14:06
25676189	1393745130	 ampltlolampgt Talking of all things yogic jumping loved that Buddhist parable in Charlie Wilsons War about the master boy and horse	2009-03-26 11:19:51
26307195	2610182356	56 price drop to 1199 Charlie Wilsons War 	2009-07-13 05:55:50
50888053	860228934	so zuhause vom adieuafterworkdrink mio pennt gleich was mach ich jetzt vll CHARLIE WILSONS WAR endlich sehen	2008-07-16 19:09:33
34814105	673422672	Listening to more of Charlie Wilsons War	2008-02-03 18:28:20
45240819	1776054057	trying 2 watch charlie wilsons war i hate the movie  good actors but i hate the plot amp dont like the story not into glorifying war	2009-05-12 18:39:14
22910925	2760622534	Interesting case presented by author of Charlie Wilsons War The Soviets knew Americans helping Afghans but they couldnt protest	2009-07-21 16:37:58
17921130	1081963651	decided on In N Out Burger now watching Charlie Wilsons War	2008-12-28 06:35:44
56021793	674555402	Showed up  the wrong theatre to see Charlie Wilsons War and now Im seeing the new Woody Allen film Huh	2008-02-04 02:07:25
29131099	1841243553	Kemp Thank you For Smoking Knocked Up and Charlie Wilsons War	2009-05-18 23:26:30
24481496	1702050550	watched Charlie Wilsons War  its excellent  Rent it	2009-05-05 02:05:34
55883508	533822692	Charlie Wilsons War was great but our new Cinemark theater sucked	2007-12-26 04:27:46
27348291	3332013433	 Hitman for plotless mindless actionCharlie Wilsons War for the reason we shouldnt be in Afghanistan	2009-08-15 18:52:43
15389228	904460271	Thought Charlie Wilsons War was pretty good and challenging	2008-08-31 01:55:48
5616345	1143803403	Just finished watching Charlie Wilsons War It was excellent Now off to bed	2009-01-24 03:19:26
24454666	1137792068	eating lasagna amp watching Charlie Wilsons War	2009-01-22 00:44:04
20750888	1108549151	Watching Charlie Wilsons War and Who Killed the Electric Car back to back gets my Irish up	2009-01-10 05:32:12
41532720	1994818047	Watching Charlie Wilsons war	2009-06-01 19:30:22
27409936	1288772845	 Apparently she gets nekkid in Charlie Wilsons War I have a sudden desire to watch it now even though it looks boring	2009-03-06 16:00:17
55096144	772148333	Up from a postvolunteering nap snacking before dinner and quotCharlie Wilsons Warquot trying to rest up for tomorrows run downtown	2008-03-16 00:18:41
34344701	615646042	Watching Charlie Wilsons War in the most comfortable chair ever	2008-01-19 01:10:02
11361766	2347482823	Why is Congress sayin one thing and doin nothing  Well tradition mostly   Nice line Charlie Wilsons War P	2009-06-26 18:09:04
26778490	1399668772	 How was Charlie Wilsons War	2009-03-27 07:16:10
2701608	936573023	McCains talking points come from Charlie Wilsons War	2008-09-27 01:53:24
27183732	1187417762	 currently watching Charlie Wilsons War but it really isnt any good lol So now I have no plans 	2009-02-07 22:33:36
20548525	535996682	Only middle aged white ppl seeing charlie wilsons war myself included i guess Howvr then agn this new england town reallyonly has ppl 	2007-12-26 22:06:27
23048539	1569006232	Watching Charlie Wilsons War again Aaron Sorkin and Phillip Semor Hoffman a match made in heaven	2009-04-20 21:15:08
34954752	869679032	Watching Charlie Wilsons War  a great movie not what I expected	2008-07-27 12:05:34
40886124	1600625196	Films quotNo End in Sightquot quotIraq in Fragmentsquot quotPersepolisquot quotDarwins Nightmarequot quotCharlie Wilsons Warquot quotParadise Nowquot quotBabelquot quotNo Mans Landquot	2009-04-24 03:28:11
1152420	578531462	Charlie Wilsons War Pretty darn mediocre    very disappointing considering the talent involved with this one	2008-01-09 05:48:51
10855447	1057106121	watching Charlie Wilsons war So far its a good movie	2008-12-14 18:27:05
14583282	1547724439	Charlie Wilsons War has been sitting in my DVR since before we cancelled HBO months ago Im loving it so far	2009-04-18 02:06:30
46026544	2315375866	gd day i guesshowever charlie wilson war is onphillip seymour hoffman is in itdoes he always dress like a dork	2009-06-24 20:00:25
19996026	1057758410	Just completed the back half of the movie Charlie Wilsons War  Said the Zen master  well done movie  another solid Hanks movie cast	2008-12-15 02:37:31
6067670	863132940	Charlie Wilsons War is better than I thought it would be	2008-07-20 02:23:39
24769989	2448477556	 Throw in Charlie Wilsons War while youre at it	2009-07-03 03:38:06
29758546	2305837626	In the Charlie Wilsons War	2009-06-24 04:23:12
40365397	1891557612	S229 Charlie Wilsons War i g229r kveld Anbefales p229 det varmeste	2009-05-23 07:21:49
6131171	820212732	HOT half marathon ystrdybiketennis tdayIndiana Jones tniteFrench OpenYAYCharlie Wilsons War wTprtty good PhSHoffsupr	2008-05-26 14:39:30
9935435	963316179	Charlie Wilsons War bleh It was all bout Phillip Seymour Hoffman He rocked it	2008-10-17 03:13:17
20506843	1037402112	 i am here ready for bed paul got me watching some crazy movie called Charlie Wilsons War	2008-12-04 02:29:19
49516476	604249282	Loved Charlie Wilsons War cant get enough history More MoreLet us all take a break okay Twitter is too hungry for Twits	2008-01-16 05:51:56
30224653	2215610529	nicerfilmtitles Charlie Wilsons Wardrobe	2009-06-18 01:22:24
1827731	566056592	wathing charlie wilsons war in concord theater	2008-01-05 19:13:20
20948130	1056126505	watching Charlie Wilsons War on Boxee check it out at 	2008-12-14 01:31:12
25484043	2951743778	finished charlie wilsons war now might watch rushmore	2009-07-31 14:24:55
5972760	998215699	Watched charlie wilsons war this weekend All I can say is wow on so political and current event levels	2008-11-10 02:48:54
33769572	2627397841	Charlie Wilsons War interesting view of the AfghanRussian war I saw a lot of this from a different point of view inside a Mosque	2009-07-14 04:58:43
6424872	803039821	Charlie Wilsons War Aaron Sorkeney goodness	2008-05-04 06:08:11
3183245	869897639	Watching Charlie Wilsons War	2008-07-27 18:33:46
2179070	863187784	just watched charlie wilsons war  very very good	2008-07-20 04:02:21
44944089	3088794820	Watching Charlie Wilsons War with Em2 and Gregg  its really good	2009-08-02 17:07:06
10179304	853494890	Hung out with Rosey for a bit  Now watching Charlie Wilsons War	2008-07-09 06:49:01
43033984	842882170	About to watch Charlie Wilsons War with Nicole	2008-06-25 00:58:33
39429907	2384590199	Charlie Wilsons War  	2009-06-29 07:09:35
1820193	1075360966	I think what Gus is worried about is that sooner or later God is gonna be on both sides Charlie Wilsons War Man I love that movie	2008-12-24 00:34:22
20735754	1933913354	 Tom Hanks performance in Charlie Wilsons war	2009-05-27 08:26:30
55702814	832643069	Finally getting around to watching quotCharlie Wilsons Warquot and enjoying it more than I expected I would	2008-06-12 01:27:28
14807774	2357551614	Charlie Wilson s War 	2009-06-27 10:32:07
38473822	2037955984	RT  agree with yall on Charlie Wilsons War  good flick End Gamethe ball keeps bouncingmany times we mess that up	2009-06-05 02:26:04
8640132	819861105	stupidly rented Charlie Wilsons War Shoulda rented Juno	2008-05-26 01:44:34
8189011	1094246113	two good movies watched while on vaca WallE and Charlie Wilsons War  Bad movie watched Mamma Mia	2009-01-04 00:04:34
53138541	835062319	NEW Charlie Wilsons War Widescreen Tom Hanks Julia Roberts Philip Seymour Hoffman Amy Adams Ned  	2008-06-15 04:37:44
23266462	2700479367	RT  I agree RT  Check out the movie quotCharlie Wilsons Warquot starring Tom Hanks Good movie	2009-07-18 03:07:37
14963856	913119229	how do I get IMDB to believe that I wasnt a Party Guest in Charlie Wilsons War   It was Blodsky darnnit	2008-09-07 21:20:26
27334435	947900382	I was pleasantly surprised by Charlie Wilsons War I probably shouldnt have been surprised  Say what you will Aaron Sorkin can write	2008-10-06 05:31:22
12461169	1066343215	charlie wilsons war  worst cgi ever and im not talking about the rubber duck used to cover tom hanks weiner in the bath tub	2008-12-19 03:15:10
7538648	957756217	Had a movie a thron over the weekend  Mostly comedies  Expect for Charlie Wilson War	2008-10-13 15:45:54
4020388	1066664956	Charlie Wilsons War compared to ESPN  Key learning 1B spent in fighting the Russians in Afganistan vs 250MM for two baseball pitchers	2008-12-19 07:36:00
27961556	1235613271	really liked Charlie Wilsons War	2009-02-21 23:32:54
30301931	890548646	watched Charlie Wilsons War newPerspectiveOnAfganistan	2008-08-17 23:31:51
29511520	2601522603	Watching Charlie Wilsons War	2009-07-12 18:21:46
33595858	1674865949	 The book Charlie WIlsons War was even better than the movie	2009-05-02 01:17:18
10496936	841682632	is watching charlie wilsons war I need to brush up on my history	2008-06-23 14:40:22
6745160	919061636	finally reluctantly saw Charlie Wilsons War Not what I expected Great movie No old schoolers it has nothing 2 do w the Gap Band	2008-09-12 15:53:53
31830184	1506814109	Watched Charlie Wilsons War I loved Phillip Seymour Hoffmans character	2009-04-13 02:55:31
56026845	921730893	Screenwriter Aaron Sorkin The West Wing Charlie Wilsons War is working on a movie about the founders of Facebook 	2008-09-15 05:05:52
11319588	873873915	We watched Charlie Wilsons War last night so of course I had a dream that I was running away from falling bombs and my heart was racing	2008-07-31 17:52:52
4768	1446304014	Book Review Charlie Wilsons War by George Crile  Desicriticsorg Book Review Charlie Wilsons War by George 	2009-04-03 16:35:09
55811182	1908253879	Watching Charlie Wilsons War tonite Im not a Tom Hanks fan besides Bosom Buddies of course but this is a stellar performance	2009-05-25 02:01:44
12057604	862550227	Working on the Sift lets improve our bounce while watching Charlie Wilsons War for the first time	2008-07-19 06:44:20
44880857	1967853513	greatacting  Phillip Seymour Hoffman in Charlie Wilsons War	2009-05-30 03:19:48
8254997	1001754024	Watching charlie wilsons war with the bromates	2008-11-12 07:47:40
5884072	1080388995	 You should listen to the audiobook of Charlie Wilsons War The movie is good but the book has some amazing details	2008-12-27 05:01:42
9865734	1031009112	watched Charlie Wilsons War last eve in awe that one man not all that important could do so much	2008-11-30 18:39:37
40766484	1818109376	watchin Charlie Wilsons war	2009-05-16 17:32:40
14078118	956269886	  nice resume on imdb  did you meet my bud Drea Lewis in charlie wilsons war shes a cool chica whats new in your world	2008-10-12 06:41:11
1820942	928670183	weekend movie this week will be Charlie Wilsons War direct from Blockbustercom	2008-09-20 19:45:23
8349391	808310322	Just finished watching Charlie Wilsons War Thought it was an interesting film and it sure brought back a lot of memories	2008-05-11 00:10:39
22664723	1493796667	just watched the movie Charlie Wilsons War and gave a rating and comment at 	2009-04-10 23:21:45
46051484	831886294	Tonights Charlie Wilsons War made up for last nights Cloverfield Tomorrow night I expect to be blown away by There Will be Blood	2008-06-11 04:06:15
53299836	1467103640	Charlie Wilsons War has a really choppy quick ending Now to bed	2009-04-07 02:56:17
37919680	1620980815	Sun mornup too early Up late with Charlie Wilsons War Sucker for anything Aaron Sorkin writesTough when West Wing is on at 2AM evry nite	2009-04-26 15:27:20
48005686	2338023989	watching Charlie Wilsons war Heard it was good finally getting to see it	2009-06-26 02:53:18
3051520	829792136	 Liked Charlie Wilsons War Great dialogue And realworld difference between DVDR amp DVDR is in the technical term piddlypoo	2008-06-08 15:00:50
5361220	820675688	charlie wilsons war  i miss aaron sorkin  phil s hoffman was better in b4 the devil knows youre dead	2008-05-27 05:39:48
46164359	2038870763	Why didnt someone tell me that Charlie Wilsons War was about Afghanistan WTF Man Just a few days b4 my hubby leaves 	2009-06-05 03:52:15
38893307	2629642196	400 off Charlie Wilsons War Widescreen 2007 now just 1299 from Amazon  deals	2009-07-14 09:00:01
2920874	1294211701	Chili rhubarb crumble  and now Charlie Wilsons War on DVD	2009-03-07 22:02:51
24391865	1683479092	Gotta love a relaxing Saturday night Wine amp Charlie Wilsons WarGood times	2009-05-03 01:55:11
55970493	591924362	quotCharlie Wilsons Warquot  Nice movie	2008-01-12 19:19:57
41449623	830174060	Just watched Charlie Wilsons War made me real pissed about how we fed up the end game Things would have been so different	2008-06-09 03:43:53
21219257	2528601088	 Mmm Charlie Wilsons War sounds good I didnt like the movie though	2009-07-08 06:13:00
55951443	1033744740	So far Julia Roberts accent is the worst part of Charlie Wilsons war	2008-12-02 06:28:41
53458177	1248555640	Thinks massive issues are handled like they say in Charlie Wilsons War Whos working on this We are Whos we Me and 3 other guys	2009-02-25 08:47:50
53065457	1187088285	Charlie Wilsons war in HD time	2009-02-07 20:02:06
45055007	2446761949	Charlie Wilsons War what an awesome movie Philip Seymour Hoffman is hilarious	2009-07-03 01:26:44
14915496	2441282494	Loving Philip Seymour Hoffmans role as Gust in Charlie Wilsons war	2009-07-02 18:47:10
15448668	936582960	I saw charlie wilsons war john Mccain fucked it up the first time when he was in the senate	2008-09-27 01:58:20
55653357	625845012	Saw first movie this year hope not the last like last year Charlie Wilsons War Excellent	2008-01-22 00:31:58
1328770	829510867	Just watched Charlie Wilsons War  	2008-06-08 02:56:47
52859573	3158734361	watched Charlie Wilsons War 2007	2009-08-06 02:38:21
16281324	2658283915	just finish watching Charlie Wilsons War not bad funny movie too	2009-07-15 21:34:01
3147562	566665742	Heading out for date night  Cant decide between Juno amp Charlie Wilsons War  Havent been to a date movie in a month	2008-01-05 23:59:56
47011805	3337278178	Mom saw Charlie Wilsons Warwhat is the sequellet me guessWhoof Woof	2009-08-16 01:30:56
27263196	834446306	Charlie Wilsons War was pretty good I liked Phillip Seymour Hoffman Tom Hanks was solid Just wish the true story ended differently	2008-06-14 04:58:46
6724346	822126240	 did you catch the Aliquippa reference in Charlie Wilsons War	2008-05-29 00:58:58
50359922	2476425768	Watching Charlie Wilsons War	2009-07-05 01:03:07
5960531	815417558	Back from Lake Citywatching Charlie Wilsons War and then heading to bed	2008-05-20 01:58:39
55920793	3221807362	Charlie Wilsons War was pretty good  I like it when Hoffmann dresses up all super fugly He was rockin that tache	2009-08-10 07:37:17
8922771	1012452767	Just finished watching Charlie Wilsons War while working on a necklace of sequins Now checking email and getting chilly	2008-11-19 05:58:15
6743124	936577822	 I just mentioned the same thing about about Charlie Wilsons War lol	2008-09-27 01:55:52
35979583	1829773458	is finally watching quotCharlie Wilsons Warquot after having it from netflix for like EVER	2009-05-17 22:24:44
24410086	2567454644	Reading Charlie Wilsons War cant put it down Especially interesting re current controversy about what the cia said and didnt say	2009-07-10 12:49:34
18385255	1103170281	Just watched Charlie Wilsons War and it kicked ass Time for an episode of Eli Stone before bed	2009-01-08 00:07:45
9644179	1095470250	finished watching Charlie Wilsons War and The Bourne Ultimatum Enjoyed both a lot	2009-01-04 18:06:07
8294576	841933555	bargain shopping grilling stakes agility training Charlie Wilsons War	2008-06-23 20:52:42
25606338	2603381121	 My DVD for the night is Charlie Wilsons War but I have to write another 1000 words first	2009-07-12 20:50:46
28404672	2936096294	Top July DVD rents Man With A Movie Camera 1929 Doctor Mabuse The Gambler 1922 Sunrise 1927 Charlie Wilsons War 2007	2009-07-30 19:24:23
55878546	542497502	Bowling Alley Tony died on Christmas Eve I am really bummed Watching Charlie Wilsons War with the parents right now in spite of the sad	2007-12-29 02:21:46
8252965	1087417413	Watching Charlie Wilsons War on HBO and posting blogs	2008-12-31 05:20:03
6047116	828078281	Watching Charlie Wilsons War	2008-06-06 00:18:49
55869924	1148097439	Watching quotCharlie Wilsons Warquot  interesting but I have a pounding headache	2009-01-26 02:56:10
55331937	1096263776	want to read Charlie Wilsons War	2009-01-05 02:31:38
168839	532569582	I think were gonna go see Charlie Wilsons War this afternoon It looks good	2007-12-25 17:02:55
42553378	3627181940	Charlie Wilsons War next on HBO	2009-08-29 16:15:38
34540035	1570648340	Watching Charlie Wilsons War One more day til I have cable	2009-04-21 00:42:41
7687195	1476817941	Charlie Wilsons War 	2009-04-08 14:26:56
1054752	538649762	charlie wilsons war	2007-12-27 18:10:16
40199628	3369157727	 Mike Nichols to Direct Deep Water Having faced Charlie Wilsons War Mike Nichols is gearing u 	2009-08-17 21:20:16
15886214	1906650765	 What did Josh due 2 offend Aaron Sorkin so much that he wasnt cast as the weapons expert in Charlie Wilsons War No brainer	2009-05-24 22:37:50
49748247	3081125467	I cant sleep so Im gonna watch Charlie Wilsons War havent seen it before	2009-08-02 03:44:53
55977160	524821042	Off to see Charlie Wilsons War     good luck with wrapping up your shopping  	2007-12-22 20:42:49
24580800	3173949209	Going to watch Charlie Wilsons War hopefully it is good	2009-08-07 04:10:02
30702488	1281914158	is watching Charlie Wilsons War for the 30th time  I just love this flick	2009-03-05 04:12:39
27563425	1297085719	Watching Charlie Wilsons War and thinking gosh Emily Blunt is a stunner	2009-03-08 18:19:06
45365954	539479082	Holding down the fort with Lex Meanwhile Nancy is off to see Charlie Wilsons War	2007-12-28 00:15:07
18808335	1291376742	Watching Charlie Wilsons War	2009-03-07 02:50:50
9886129	1031497185	is watching Charlie Wilsons War	2008-12-01 01:29:17
31657442	797855793	Feel asleep during Charlie Wilsons War	2008-04-27 04:42:36
3110517	933577312	Dinner ampamp watching Charlie Wilsons War	2008-09-24 21:59:33
4194318	765874720	is back home Although the political suspects I liked the Charlie Wilsons War there are great chats	2008-03-03 03:27:35
8057031	863975429	Charlie Wilsons War 2615935498201543711719968234503520135242332563702727171303402969422580652922516533021303323325820839245152057040670229092010765311	2008-07-21 07:37:58
30951404	1412375893	Watching charlie wilsons war before the tournament starts again   The second game should be a good one  Whats everyone up to	2009-03-29 15:05:49
55704338	548419112	 How was Charlie Wilsons war	2007-12-31 05:40:22
2807279	2607706474	Watching Charlie Wilsons war	2009-07-13 02:34:27
35377452	2364508687	Charlie Wilsons WarGood movie	2009-06-27 22:44:57
14793541	1070259430	Just watched Charlie Wilsons War Felt sad at the end	2008-12-21 07:58:37
55787344	565144942	28310206332035830475Charlie Wilsons War	2008-01-05 12:36:39
28117739	1360855854	 shes alright in some films charlie wilsons war and the pelican brief	2009-03-20 15:38:02
1643396	544956082	off to see Charlie Wilsons War after dinner at White Fence Farm	2007-12-29 23:43:09
55682471	544583742	Caught Charlie Wilsons war Fascinating entertaining What does being American mean to you	2007-12-29 20:18:35
8728091	835839251	Audible book recomendation Charlie Wilsons War unabridged awesome read	2008-06-16 09:30:03
5781349	1309406029	Reading Charlie Wilsons Warfascinating	2009-03-11 05:55:36
56003245	1035380352	Charlie Wilsons War  decent mitten knitting movie  Take that for what it is worth	2008-12-03 02:17:35
43856369	1812383065	Watching Charlie Wilsons War with Kristy Had a great day with the Team  Marriott Shoals Thankful for my family my job and my friends	2009-05-16 01:31:45
18545120	1033005165	We like Charlie Wilsons War You should like it too Find out why in this weeks Stealth Entertainment column 	2008-12-01 21:37:39
11187661	2508652974	Mieway blog Charlie Wilsons War T252m bunlar ger231ekten ya351and305 199ok g246rkemliydi ve d252nyay305 de287i351ti 	2009-07-07 03:58:56
34303580	2178234035	CHARLIE WILSONS WAR Angels amp Demons star Tom Hanks in Mike Nichols look at US Afghanistan Policy in the Cold War 	2009-06-15 14:23:50
1544106	547183202	Went to the skate park back at Brandons about to get back to work on PC stuff Saw Charlie Wilsons War with Allison last night fun	2007-12-30 19:19:19
1538648	552904772	Going to see 3 movies today 1 Sweeny Todd  2 Charlie Wilsons War  and 3 Walk Hard  Whew love this time of year	2008-01-01 18:28:01
34960363	2073155952	 LMAO umm yeah you might want to find Charlie Wilson so Dwight Howard can do some Magic lol	2009-06-08 05:35:45
37424985	1830420569	Recommend Charlie Wilsons War Outstanding script Hanks is great but Hoffman is just insanely brillant Sorkin  genius	2009-05-17 23:48:12
55955870	802980095	Just watched Charlie Wilsons War I was entertained Talk to you later twitterverse	2008-05-04 03:34:52
36144736	2049695892	It was ok  RT  Watching Charlie Wilsons Waranyone seen it yet	2009-06-06 00:20:07
17663279	2663670063	I went kayaking today and now my arms are sore Now Im watching Charlie Wilsons War I hope its good	2009-07-16 03:44:19
8640616	1004945636	Blergh In other news wondering if I should give Charlie Wilsons War another shot Too many people I like loved it	2008-11-14 04:06:52
2971611	1078924605	 similar geopolitics with a little bit more actionMay be you can close it with Charlie Wilsons war Perfect trio	2008-12-26 05:20:16
39443833	576717852	I think today ima go watch Charlie Wilsons war in the theatre  ALONE  damn I need a girlfriend	2008-01-08 19:04:19
16630833	1044508749	Watching Charlie Wilsons War	2008-12-08 04:33:49
44358435	2227601902	 charlie wilsons dad	2009-06-18 20:24:11
13782725	929013576	just saw Charlie Wilsons War  who else has seen it and what did you think	2008-09-21 03:46:20
41516760	2316750460	I got Revolutionary  Road Ocean180s 13 4 months 3 weeks amp 2 days Charlie Wilsons War amp The end of the affair  a lot	2009-06-24 21:40:56
36256000	1990929368	 phillup seymour hoffman is the bestquotIm gonna make it rainquot He was awesome in charlie wilsons war too	2009-06-01 13:03:14
55975374	1090842476	is watching Charlie Wilsons War thinking that Phillip Seymour Hoffman and Amy Adams are gifts to the humanity	2009-01-02 01:58:50
31146137	1635799084	just watched charlie wilsons war great movie	2009-04-28 03:32:02
1624831	911553465	just finished watching Charlie Wilsons War great movie great lessons in diplomacy	2008-09-06 04:36:41
28965358	1754387800	just finished charlie wilsons war cant believe ive not seen it before its so so good	2009-05-10 13:05:41
6444568	950651154	debate08 I watched Charlie Wilsons War too but I would not consider it good history	2008-10-08 02:12:48
55462457	2107971338	Watching Charlie Wilsons war	2009-06-10 20:35:08
9521658	809550432	 Charlie Wilsons War great movie Charming funny and thought provoking Too bad Tom Hanks is always still Tom Hanks 	2008-05-12 18:42:20
9590229	1020235532	About to watch Charlie Wilsons war Long weekend Looking forward to vegging on couch with husband	2008-11-24 02:50:13
56013004	869539228	Charlie Wilsons War pretty good flick interesting prescient	2008-07-27 05:53:08
52656642	1974749593	Started reading Charlie Wilsons  war today not too bad	2009-05-30 20:46:09
28639612	1365349263	Sunshine Cleaning Trailer Amy Adams is lekker op dreef Na topfilms als Doubt Charlie Wilsonamp8217s War en  	2009-03-21 10:31:14
55838295	819382089	Just finished Charlie Wilsons War Whoa So thats what was happening during high school	2008-05-25 06:02:43
55989519	985252936	Just watched Charlie Wilsons War Highly recommend it	2008-11-01 15:14:17
46616468	3210759453	80s babies see Charlie Wilsons War Didnt teach this in school	2009-08-09 17:51:42
6588319	1220174325	Details of Charlie Wilsons War  The Russians got what they deservedAfgans didnt	2009-02-17 20:10:50
11789747	1031440963	Watching Charlie Wilsons war while my wife edits her editing assignment	2008-12-01 00:43:01
13542541	1233093663	Watching Charlie Wilsons War on DVD dvd	2009-02-21 03:09:14
35457948	2165856891	Ok I heart Charlie Wilson Hes a legend and working hard to bring awareness to cancer in the African American community My hero	2009-06-14 15:27:28
55875052	538077112	The Hive on Charlie Wilsons Wargood movie by the way 	2007-12-27 14:39:26
3818143	1241909093	Khyber Pass revisited 20 years after Charlie Wilsons war 	2009-02-23 19:19:09
19391205	1426827321	 Heres a slightly different version of that story Phillip Seymour Hoffman used it in Charlie Wilsons War 	2009-03-31 20:45:23
55141801	595680202	Going to see charlie wilsons war	2008-01-14 00:33:57
2612543	2307008070	 I didnt mind Charlie Wilsons War  got the job done told a yarn	2009-06-24 06:25:19
3766676	740531212	On my coffee break reading quotCharlie Wilsons Warquot	2008-02-21 19:10:40
44267091	1509557207	 Youre too new york Get a copy of Charlie Wilsons War and listen to Julia Roberts if youre going for high society south	2009-04-13 15:06:59
55695863	540290032	When Principle Trumped Partisanwhip Why Charlie Wilsons war couldnt happen today 	2007-12-28 06:29:30
20032396	1266063358	Enjoyed Charlie Wilsons War on DVD this afternoon Hanks really delivers a poor performance	2009-03-01 18:06:50
6301540	798292051	going to watch Charlie Wilsons War tonight	2008-04-27 22:49:56
10186209	835706085	Watching Charlie Wilsons War  interesting film	2008-06-16 04:22:49
3747377	815311255	I really didnt enjoy Charlie Wilsons War it bored me but I think Julia Roberts and Tom Hanks were great in it	2008-05-19 23:09:10
10887337	1030187365	Just finished watching Charlie Wilsons War for the second time If you havent seen this movie you need toit shows what we did wrong in	2008-11-30 02:40:37
34378984	1933849619	charlie wilsons war is one	2009-05-27 08:13:04
30170383	1266562241	Watching Charlie Wilsons War at the end of a short weekend	2009-03-01 20:48:13
22960548	1546262152	Oooh My next free lovefilm rentals are on their way Ghost Town Science of Sleep and Charlie Wilsons War	2009-04-17 22:33:18
29156855	1656269044	Lets end the night on good stuff Charlie Wilsons War if you havent rent it State of Play pay the 10 and go see it	2009-04-30 04:21:59
1541207	887755384	ich mag die dialoge in quotcharlie wilsons warquot sehr sogar	2008-08-14 20:06:56
31075501	1327641382	Watched charlie wilsons war last night It was okay but I felt bad that I thought it was a comedy and not based on a real event	2009-03-14 17:01:25
5137991	816304894	Just watched Charlie Wilsons War with Mike now packing for Vegas  3 days and counting	2008-05-21 05:18:16
22555519	2403789693	CHARLIE WILSONS WAR is OK becof Sorkins writing though its toned down amp Philip Seymour Hoffman Julia Roberts Texas accent is shoddy	2009-06-30 14:02:56
13145784	1500038906	watching Charlie Wilsons war	2009-04-12 00:13:18
21466743	1064022919	watching charlie wilsons war upstairs	2008-12-18 01:27:55
28404214	2332180888	RT  RT  RT  Ohio dem Charlie Wilson is leaning toward no Burn up the phones2022255705 via  	2009-06-25 21:05:47
14186503	1114741027	Watching Charlie Wilsons War Philip Seymour Hoffman is so good	2009-01-13 02:59:24
55980179	564221592	Going to charlie wilsons war while our car gets buried in the snow  	2008-01-05 04:14:26
5880071	2195072807	  yeah i am a big tom hanks fan the green mile the terminal charlie wilsons war forest gump youve got mail sleeples	2009-06-16 17:38:30
52314297	542384462	after seeing the Kite Runner and Charlie Wilsons war on consecutive nights the Bhutto assassination seemed eerily appropriate	2007-12-29 01:26:26
8343697	1119615363	Oh man TheOfficialNetflixcom  is following mehow did those guys know I havent returned Charlie Wilsons War yet	2009-01-14 23:26:43
36805824	1556247485	getting ready for bed about to watch Charlie Wilsons War which means ill be going to sleep soon	2009-04-19 05:08:22
1724367	618554482	enjoyed Charlie Wilsons War but not that much	2008-01-19 23:13:53
23404981	1264286537	just watched Charlie Wilsons war and Im more depressed than I was before	2009-03-01 03:25:08
36533972	3090803840	forgot how good Charlie Wilsons War was I really ought to get it on DVD	2009-08-02 19:31:24
21263965	1041645660	Watching Charlie Wilsons War  I should be doing homework amp getting ready for my meetings tomorrow	2008-12-06 06:26:34
41012365	2872915307	Julia Roberts Why is Congress sayin one thing and doing nothing Tom Hanks Well tradition mostly Charlie Wilsons War	2009-07-27 16:32:33
55739393	1091228333	Watching Charlie Wilsons War and see the butterfly effects of history disruption of PakistanAfganistan by USSR 28 yrs ago haunt us today	2009-01-02 07:25:32
1306188	2378273848	Charlie Wilson Jermaine Dupri and  What a weekend You dream it I live it Lets GO Be Back Tuesday 	2009-06-28 23:32:54
9395990	1006287704	Daily email check DVDs I rented Anchorman Munich Aeon Flux Animated The Invisible Charlie Wilsons War Resident Evil 3 The Hammer	2008-11-14 23:23:26
5582	2488420944	3 Film Boxset Charlie Wilsons WarApollo 13Philadelphia  163499  Sainsburys INSTORE 	2009-07-05 23:01:06
21449949	2466548010	I will watch Charlie Wilsons War sometime today the 4th	2009-07-04 07:04:02
55690683	1264248830	Just saw Charlie Wilsons War and loved it  Sad I didnt see it sooner	2009-03-01 03:10:58
39043922	869399334	Watching Charlie Wilsons War	2008-07-27 01:26:45
26457512	2588916016	 have got Charlie Wilsons War  on DVDVD not watched it yet	2009-07-11 21:10:52
2464981	842399878	Watched Charlie Wilsons War the other day It was good but I wish they would have included the part about Rambo saving Col Troutman	2008-06-24 12:08:37
19705562	1408966699	watchin Charlie Wilsons war	2009-03-28 21:39:39
8107635	864740889	Bike ride of the nopainnogain variety Going to watch Charlie Wilsons War	2008-07-22 03:13:39
35916289	1608382228	Finished Charlie Wilsons War now on to Before The Devil Knows Youre Dead It seems I am on a Philip Seymour Hoffman kick	2009-04-24 23:04:17
55946928	945674412	Just finished watching quotCharlie Wilsons Warquot Great flic	2008-10-04 01:18:36
55970138	1911274693	Charlie Wilsons War  trailer A MUST watch movie that shows how 1 mans effort destroyed the USSR  and How 	2009-05-25 10:15:45
7994917	883144498	about to watch Charlie Wilsons War on DVD  should be good 	2008-08-10 09:24:36
267548	863740688	going to watch Charlie Wilsons War	2008-07-20 23:51:43
55176418	632355782	300072015424212358132923330475303403000524433Charlie Wilsons War6529219981368073276335793244562886665292Tom Hanks2164422823220683382121340199973582824471397403702720040245551229012290122902154820063215481998125026	2008-01-23 14:19:55
43892274	3202834124	Just finished watching Charlie Wilsons War What a weird offbeat movie Never knew Mike Nichols directed it Wonder how true it is	2009-08-09 04:48:56
29199707	2252548637	watching Charlie Wilsons War on Boxee check it out at 	2009-06-20 13:30:28
11219388	2246024079	watched Charlie Wilsons War afghanistan politics 2008 russian udssr wilson war soviets charlie 	2009-06-19 23:59:11
55868731	850828190	charlie wilsons war on the 4th of july how appropriate	2008-07-05 18:14:06
3518337	809117591	Charlie Wilsons War was intelligently written wellacted and thoughtprovoking without being preachy	2008-05-12 06:28:32
3032969	808429365	someone to eat cheese with odd movie Charlie Wilsons War Odd movie Odd movies to watch back to back	2008-05-11 04:35:13
11901968	1055448044	didnt like Charlie Wilsons War nearly as much as shed hoped Studio 60 maybe sensitized her to Sorkins ohsoheavy handbut PSH rules	2008-12-13 16:33:42
27514859	1265434465	been to church had lunch its raining gonna try to watch Charlie Wilsons War	2009-03-01 14:09:25
7126311	1068653887	Best part of Charlie Wilsons War hands down Shiri Appleby	2008-12-20 06:56:57
2605907	1100307847	Charlies angels Charlotte Gray amp Charlie Wilsons War are each one channel up fron each other on TV right now Eerie	2009-01-06 20:58:32
27011577	1807804530	 USED to like Tom Hanks but havent even bothered to watch recent films think davinci code charlie wilsons war the terminal	2009-05-15 16:51:40
28952799	1986968993	watching Charlie Wilsons War	2009-06-01 02:35:29
7919482	1058694590	oh and i watched Charlie Wilsons War Friday  PS Hoffman is SUCH a champ  Rent it ASAP	2008-12-15 15:50:16
35544954	1508959892	there needs to be a clifnotes for movies  cuz really who wants to watch charlie wilsons war	2009-04-13 13:16:30
30309240	1292664145	Finished Studio 60 I dont think Ill ever get over that being canceled Still more Sorkin YES Finally grabbed Charlie Wilsons War	2009-03-07 13:35:20
562930	820554312	Watching Charlie Wilsons War on the projector	2008-05-27 01:27:48
21265632	1091131138	Charlie Wilsons War dir by Mike Nichols Proves that history repeats itself Well written and important	2009-01-02 05:45:09
25297536	2903643846	yummwatching charlie wilson war	2009-07-29 04:11:56
12665168	1499589467	Highly recommend History Channels Charlie Wilsons War	2009-04-11 22:42:06
6397348	1030113047	watching Charlie Wilsons Wargood movie	2008-11-30 01:30:43
5912	3283920950	Charlie Wilsons War rating by index in Current Release Movies 	2009-08-13 10:14:01
22278503	1644113206	Why are Aust and American soldiers dying in Afghanistan  Have you read Charlie Wilsons War by  George Crile see 	2009-04-29 00:25:06
29790544	1757660144	Watching Charlie Wilsons War Julia Roberts looks so different somethings different I wonder if its just the makeup and hair	2009-05-10 21:57:30
43191996	2724556049	Just enjoyed Sunday Morning Starfckers amp am watching Charlie Wilsons War	2009-07-19 17:30:20
55974542	3203061033	Just finished Charlie Wilsons War Excellent movie I must say	2009-08-09 05:11:35
12398121	1003705998	Charlie Wilson8217s Bailout War The Public Lost Community Blogs at ProgressOhio  Charlie Wilsons Bailout  	2008-11-13 12:21:15
39443833	577505792	Watching Charlie Wilsons War Again Id like to emphasize that Im watching it ALONE	2008-01-08 23:37:55
39535645	794682055	Charlie Wilsons War is a terrific film	2008-04-22 23:31:51
43091452	1893828862	 none P neither am i gonna but it is something i havent even heard of charlie wilsons war sounds good	2009-05-23 15:12:34
7489572	906390102	Watching Charlie Wilsons War	2008-09-02 03:09:53
12249034	919678948	read Charlie Wilsons War sometimes fact IS better than fiction debating whether to see movie might be a let down after such a good read	2008-09-13 02:05:47
5072	1761946068	charlie wilson s war 	2009-05-11 10:16:37
1547222	705045692	Ins Kino gehen ist ja auch mal nett quotCharlie Wilsons Warquot war kein schlechter Film	2008-02-12 22:05:01
21757445	1226127772	Watched Charlie Wilsons War last night Highly entertaining Hanks and Hoffman were excellent	2009-02-19 09:49:06
27311522	1193499244	im rather excited for charlie wilsons war right now bathed and fed and feeling contentgood times	2009-02-09 22:45:06
25630793	1327988654	 Coen Brothers always good but obviously not a funny film  Didnt see Charlie Wilsons War	2009-03-14 18:28:14
765989	520362282	Otto minuti da Charlie Wilsons War   	2007-12-21 07:36:52
36005876	1415887897	watching charlie wilsons war	2009-03-30 03:54:30
34483625	2083375557	Dinner  crab cakes corn on the cob and fruit movie  charlie wilsons war studying  no	2009-06-09 00:27:09
3503111	846542416	movies I have watched this weekend definitely maybe charlie wilsons war how she move fools good and enchanted	2008-06-30 01:02:37
1892009	896225472	watching charlie wilsons war	2008-08-23 04:17:02
1821809	645091572	Charlie wilsons war is een aanrader	2008-01-26 22:57:18
40461837	2812531596	Spent the day in LA with Participant Media who made docs An Inconvenient Truth Darfur Now and movies The Soloist Charlie Wilsons War	2009-07-24 04:17:11
996484	531166922	Just saw charlie wilsons war awesome movie PSHoffman sooo funny	2007-12-25 04:10:39
55953444	1439273198	 Love her in Junebug  Also in Charlie Wilsons War Just starting to get big rolls Makes me happy	2009-04-02 16:23:39
20784084	949268614	watching charlie wilsons war my boyfriend philip seymour hoffman all night	2008-10-07 05:46:37
35187490	2406331086	 ada Charlie Wilsons Wargoh yalupa om Robert itu suami pertama apa kedua xp	2009-06-30 17:07:50
4473	1237851571	10am Charlie Wilson S War The Band Wagon Vizio Vs370e Edy Williams Quaver Mhsaa Wi 	2009-02-22 18:55:06
3194766	1096405021	 Charlie Wilsons War was good Hope you enjoyed it	2009-01-05 03:58:37
5379953	798224615	recs Juno over Savages I Am Legend over Cloverfield Hitman over In the Name of the King Charlie Wilsons War was great  no sub	2008-04-27 20:21:09
10121921	1282470268	How have I not seen Charlie Wilsons War until now Really good movie	2009-03-05 07:43:52
36155765	2748177113	Watching Charlie Wilsons War on skinamax	2009-07-20 23:58:21
1797172	809910324	 I am thinking that every American Afgan and everyone else should watch Charlie Wilsons War And then read Charlies comments	2008-05-13 04:22:10
55812181	580947832	Out renting a few new releases Going to see Charlie Wilsons War later tonight	2008-01-09 20:30:31
7892784	2298255955	  Me amp Phillip Seymour Hoffman from Charlie Wilsons War	2009-06-23 18:27:02
909825	2652923189	8 In Charlie Wilsons War Gus described the United States as quotMost strictly speaking we dont have one  But were workingquot	2009-07-15 15:53:23
46587808	3331740011	24 REDEMPTION amp BLINDNESS amp BODY OF LIES amp CHARLIE WILSONS WAR covers has just been uploaded on the 	2009-08-15 18:32:40
5605422	1635989935	Watching Charlie Wilsons War  Again  I love Sorkin	2009-04-28 03:56:52
55877244	522943122	Charlie Wilsons War is an amazing movie  Everyone should see this picture	2007-12-22 02:30:06
53299836	1469347272	I still dont know if I like Charlie Wilsons War or not I think I do This decision is important	2009-04-07 13:05:35
48835871	2289934590	Watching Charlie Wilsons War	2009-06-23 04:11:07
46161790	780013387	Finished reading Charlie Wilsons War  More unbelievable than any fiction Ive read recently	2008-03-31 06:57:13
44249924	1821566453	I am watching quotCharlie Wilsons Warquot   I always feel easy when I listen to English of Tom Hanks	2009-05-17 00:32:38
9737821	824133091	Just watched Charlie Wilsons War pretty good movie  Now time to get ready for a day of cleaning and studying Chinese characters 	2008-05-31 18:03:37
29042201	3071613199	has a good nite of movies on TV Flashdance Charlie Wilsons War You Me and Dupree and then Bourne Supremacy WOO HOO	2009-08-01 16:02:19
2532209	986623813	3047523436charlie wilsons war 2481921040200042885765306165292200262016020040201543186724635386563520125112201052160265311We only need to be humane and considerate everybody 26529220154202042463526159215212444826356326542290930340201072928921568653742608035770261593193431070236183875436824261592928936136236183875465374	2008-11-02 19:00:26
52108970	2181042144	Sad music of chance Just watched Charlie Wilsons War when an Estonian soldier got killed in Afganistan 	2009-06-15 18:17:15
5328929	3211173498	Charlie Wilsons War is a great movie  Love it	2009-08-09 18:24:39
5567519	1037799663	Just watched Charlie Wilsons War Good movie Interesting though that a covert war has been declassified less than 20 years after	2008-12-04 08:15:39
14550210	906308351	aaron sorkin is a geniusCharlie Wilsons WarWest WingStudio 60 etc	2008-09-02 01:29:23
23550982	1722132708	i need to borrow a copy of memphis belle eight men out nixon and charlie wilsons warif i can borrow them tonight or tomorrow msg me	2009-05-07 00:14:58
3070399	765374225	really enjoyed Charlie Wilsons War I really encourage all my friends to catch it	2008-03-01 16:33:03
7479080	819654249	I really liked Charlie wilsons war	2008-05-25 17:53:00
7976076	1092062921	Enjoying a whisky and watching some movies  just finished Charlie Wilsons War moving on to The Magdalene Sisters next	2009-01-02 19:21:44
55979571	897792697	is watching Charlie Wilsons war with Stacy	2008-08-25 02:15:14
34864927	771215219	Recommend renting the movie Charlie Wilsons War   important true story great acting great dialogue	2008-03-14 01:27:06
15227426	1703246464	 Good movie Philip Seymour Hoffman can do anyone and do it quite well Hes really good in Charlie Wilsons War too	2009-05-05 04:30:05
49190980	1792555620	Charlie Wilsons War with Tom Hanks chronicles how US got involved in Pak under Gen Zia 	2009-05-14 06:29:46
51696457	3116226586	Charlie Wilsons WarJulia Roberts awful southern accent strikes again n successfully detracts from another good movie Luckily shes gorgeous	2009-08-04 02:05:29
2846	771527925	268arlio Vilsono Karas  Charlie Wilsons War 2007	2008-03-14 15:46:15
55739393	1091240138	Watched Charlie Wilsons War and saw the butterfly effect of history disruption of PakistanAfganistan by USSR 28 yrs ago haunt us today	2009-01-02 07:39:42
2662630	1409203566	just watched Charlie Wilsons War Havent found a Tom Hanks movie I didnt like yet	2009-03-28 22:33:19
9780067	889592693	 charlie wilsons war was pretty good	2008-08-16 18:23:21
12467450	985714699	Charlie Wilsons War is HIGHLY underrated Tom Hanks for Prez	2008-11-01 23:30:39
39086795	1660145376	charlie wilsons war what a wonderful movie tom hanks really is one of my fav actors julias eye make up is quite bizarre	2009-04-30 16:02:04
55938816	624162742	Tryst for brunch Charlie Wilsons War later on	2008-01-21 15:20:41
10848103	2323788432	 Remember CHARLIE WILSONS WAR Its our glaring Attention Deficit Disorder that causes blowback like 911	2009-06-25 08:29:21
3134	816273763	Japanese Box Office May 17821118 Animemangarelated films each drop one spot for Charlie Wilsons War 	2008-05-21 04:17:45
56001027	791394961	I saw Charlie Wilsons War Good stuff	2008-04-17 21:32:09
55712405	904673450	went to the movies Saw Tropic Thunder Babylon AD amp Mamma Mia  Home watched Charlie Wilsons War Good night	2008-08-31 08:47:27
26609499	1296174904	Nice quiet sunday CoffeeshopBookHomeplusCharlie Wilsons War Might watch one of Youngjas films now	2009-03-08 12:24:42
46757899	859638128	ap243s assistir jogos de poder charlie wilsons war s243 por alguns di225logos j225 vale o download twittada patrocinada por qfilmecom	2008-07-16 03:09:10
55778197	544474472	off to see Charlie Wilsons War I hope its good	2007-12-29 19:22:08
16323509	1143702587	Charlie Wilsons War 30 Rock or This is Your Brain on Joy Decisions decisions	2009-01-24 02:20:25
15314291	1044392087	going to watch Charlie Wilsons War	2008-12-08 03:04:06
18935595	2436147730	Finally watched Charlie Wilsons War last nightthe children with no handsarmsthe ache goes on	2009-07-02 12:31:55
45693234	1031750269	Just watched Charlie Wilsons War Pretty good enjoyed it	2008-12-01 04:54:25
3904634	2850376056	Watching Charlie Wilsons War Its going good but they are talking to fast for my tired mind Maybe I should watch something lighter	2009-07-26 07:35:18
21407038	1819613087	Charlie Wilsons War  ftw	2009-05-16 20:30:06
677638	522407572	Charlie Wilsons War with my crew	2007-12-21 21:56:49
11504667	850370128	is it wrong to have fish tacos on the 4th of july dinner and a movie coming up charlie wilsons war at least tom hanks is all american	2008-07-04 23:37:32
39504145	2167045415	Just watched Charlie Wilsons War  Too bad we didnt build the schools	2009-06-14 17:35:42
6971830	1229354059	Time to watch Charlie Wilsons War	2009-02-20 04:00:05
56022079	840358382	 I like the historical story of Charlie Wilsons War  The movie kinda boring	2008-06-21 16:16:25
1697004	1080354708	 Great movie Charlie Wilsons War	2008-12-27 04:30:08
6272160	1467939747	Denis OHare Charlie Wilsons War Michael Clayton Duplicity is just amazing But I digress I need some sleep	2009-04-07 05:54:36
55842871	1055023035	Home Watching Charlie Wilsons War Any movie with Julia Roberts goes down at least one  notch but well see	2008-12-13 08:29:45
37770389	802785989	frustrated theres nothing on TV and Charlie Wilsons War requires too much attention	2008-05-03 20:10:47
10914182	1269585756	Charlie Wilsons War 	2009-03-02 15:32:37
9604071	1031555423	Today Charlie Wilsons War Pace U Womens Basketball with offspring Pace wins	2008-12-01 02:16:23
35125460	3550063210	watching charlie wilsons war again   thought you 2 would be interested 	2009-08-26 03:58:35
38430658	3308386445	RT  Remember the end of quotCharlie Wilsons Warquot The serious reasons behind A Soldiers March for Peace 	2009-08-14 14:34:56
32342707	1456765026	Another weekend morning another movie on the DVR  Today Charlie Wilsons War	2009-04-05 12:56:35
13138900	1862844700	Going to Sarahs  Gonna watch Charlie Wilsons War Be home late	2009-05-20 19:53:44
38255492	540251082	just saw Charlie Wilsons War it was good	2007-12-28 06:11:22
45943193	3079765997	Watching Charlie Wilsons War with the parental units	2009-08-02 02:04:53
3132552	1185320602	Watching Charlie Wilsons War for the second time in a month Brilliant movie	2009-02-07 02:41:55
55960675	1078070906	started day with overnight caramel french toast and hot chocolate now watching Charlie Wilsons War  Merry Christmas all	2008-12-25 15:56:26
47221563	2696516590	I need to watch Charlie Wilsons War tonight	2009-07-17 22:20:51
2582	545427152	saw Charlie Wilsons War Nice lil flick Now drinking some wine	2007-12-30 03:51:11
5538673	1267273051	Charlie Wilsons War not so good  Kinda bored  Falling asleep	2009-03-02 00:32:50
3051520	829353610	Finally getting around to watching Charlie Wilsons War tonight even though it scored 2 points less than Kung Fu Panda on the Tomatometer	2008-06-07 21:11:17
4740	1417547791	US Charlie Wilsons War in Paperback  57 Off  649 Save 43  	2009-03-30 13:02:01
55804780	827422619	should take advantage of quiet at home to get to sleep early Watching Charlie Wilsons War instead	2008-06-05 05:39:55
10226972	1447248265	just saw charlie wilsons war 	2009-04-03 19:30:50
36108068	1467803821	watching one of the best movies ever Charlie Wilsons war  watch it if you havent yet  go out of your way	2009-04-07 05:18:04
55850029	829398427	Reading Charlie Wilsons War On page 27 of 550 See you in September	2008-06-07 22:37:27
54588900	595006562	960961953957 955943947959 947965961943963945956949 945960972 963953957949956940 964959 Charlie Wilsons War 942964945957 960959955942 954945955972	2008-01-13 19:40:17
55950261	538511792	Big day Bird feeders Walmart amp Charlie Wilsons War	2007-12-27 17:17:05
1544019	664122702	I just saw a negative review of Charlie Wilsons War This makes me Angry You wouldnt LIKE ME WHEN I AM ANGRY	2008-01-31 23:19:49
20053051	1094820633	Watching charlie wilsons war Julia roberts and tom hanks	2009-01-04 07:02:44
10239433	850920595	eating some awesome cookies and watching Charlie Wilsons war	2008-07-05 22:39:41
7858065	956368117	Watching Charlie Wilsons War	2008-10-12 10:14:26
46004708	2440567049	4am Now going back to bed Watched Charlie Wilsons War Stirring film but untrustworthy hollywood as per usual Good performances though	2009-07-02 17:57:39
49682594	2446974840	watching charlie wilsons war	2009-07-03 01:42:53
24459702	626797502	 Totally down Still need to see Charlie Wilsons War too	2008-01-22 06:25:52
36830454	1761491542	 Seen Charlie Wilsons War when he talks about what his constituents want	2009-05-11 08:18:09
406119	592343542	 Sounds interesting dont know it myself they are talking about Charlie Wilsons War here Have fun if you go and big popcorn	2008-01-12 22:31:36
6264539	940207440	Had a yummy dinner amp watched Charlie Wilsons War  Such a nice night	2008-09-30 05:24:32
16109716	2585544621	 I know I am in love I watched Brokeback 27 Dresses Charlie Wilsons War Nims Island amp NIght at the Museum yesterday	2009-07-11 16:33:33
56004287	527976332	No Country For Old Men or Charlie Wilsons War decisions decisions	2007-12-24 02:20:12
8635547	1633053093	Just watched Charlie Wilsons War A very good film	2009-04-27 22:00:53
31617796	2795535056	Just watched Charlie Wilsons War  Julia Roberts plays a pretty good slut	2009-07-23 09:21:50
19376111	1724277656	 Yeah the Ladykiller didnt do it for me either Think Hanks was funny in Charlie Wilsons War though it was technically drama	2009-05-07 04:33:40
44698639	1901915220	Bored Two Sunday DutyMates Missing Also Watched Charlie Wilsons War last night and loved Om Puris Gen Zia	2009-05-24 11:35:19
54312723	672003292	Charlie Wilsonampaposs War Despite initial hype the edited ampquotCharlie Wilsonampaposs Warampquot appears in 	2008-02-03 05:43:31
5371005	1030104967	So far Charlie Wilsons War is pretty good	2008-11-30 01:22:37
170560	1748983686	This was a new one At the beginning of my legally bought Charlie Wilsons War DVD  before the You Are Thief commercial  a film about HIV	2009-05-09 20:28:16
51735910	797189573	Kids in bed Charlie Wilsons war in the player	2008-04-26 01:59:29
33585443	2331472904	RT 10 RT  RT   Ohio dem Charlie Wilson is leaning toward no Burn up the phones2022255705	2009-06-25 20:15:08
12285307	1189968676	Just watched Charlie Wilsons War Screenplay by Aaron Sorkin Was very good	2009-02-08 22:35:02
23378120	1178332847	Charlie Wilsons War very enjoyable 4 those who liked Wag the Dog Hanks amp Hoffman were hillarious but the film is just okay 	2009-02-05 01:48:37
30786367	1504474114	quotCHARLIE WILSONS WARquot   The middle is sharp funny and moving  Hoffmann is astonishing  As is Ned Beatty  HanksRoberts  movie stars	2009-04-12 19:18:40
11163676	1341584173	Watched Charlie Wilsons War last nite n thought Is this really our government Then I read about AIG bonuses Disappointing night for USA	2009-03-17 11:26:40
11138651	1030300518	quotCharlie Wilsons Warquot in brief Tom Hanks delivers Foghorn Leghorns material over rim of bourbon glass towards Julia Roberts pageant wig	2008-11-30 04:29:26
2772344	835521507	Wondering if Tigers knee is going to hold up today tired lazy day today watching Charlie Wilsons War tonight	2008-06-15 22:12:51
23619270	1365126372	Charlie Wilsons War One of those films that had nothing wrong with it but didnt end up achieving anything F 	2009-03-21 08:22:11
6708685	797271496	Enjoyed a night of movies and no work Raiders of the Lost Ark Charlie Wilsons War and 300 All really good flicks	2008-04-26 05:06:35
