30144337	2439966950	Cell Phone Numbers Go Public this month Dont let em call you call 8883821222 from your cell phone to add to national do not call list	2009-07-02 17:16:38
46442440	2424242192	As of today cell s r being released to telemarketerscall 8883821222 from the phone  u want blockedthe Do Not Call Registryit  	2009-07-01 18:46:53
26640290	1739554142	Cell phone numbers go public next month Put yourself on the national do not call list 18883821222	2009-05-08 17:34:05
26200631	1797639724	National Do Not Call Number 4 cell phones is 8883821222 Cell phone numbers go public soon Takes 20 seconds 2get on listspread the word	2009-05-14 18:30:06
30955254	1791382066	RT  RT Lemberg RT Gage Cell phone s go public today 4 telemarketers Call 8883821222 to join do not call registry	2009-05-14 03:03:23
25507581	1835924882	Cell Phone Numbers Go Public next month  Nat DO NOT CALL  8883821222 Register your phone today	2009-05-18 14:01:41
21630804	1279849998	 8883821222 for the National DO NOT CALL list You must call from the cell phone number you want to have blocked Just did it	2009-03-04 19:11:09
49917326	2747732737	Cell Phone  go public July 1 2009 You will be charged for telemarketing calls Call the national DO NOT CALL LIST at 8883821222	2009-07-20 23:28:26
387884	1160355594	RT  to remove your cell phone from the national donotcall registry call 8883821222  	2009-01-30 01:23:52
44625567	1878533419	 You should register wNatl DO NOT CALL REGISTRY 18883821222 No solicitation calls after 30 days It actually works lol	2009-05-22 03:17:02
28709327	2017892478	Call the NATIONAL DO NOT CALL registry at 8883821222 It will block your cell phone for 5 years	2009-06-03 16:06:44
270920	1156172922	National DO NOT CALL List 8883821222 US	2009-01-28 19:22:15
54022751	1835908941	Cell phone s go public next month 8883821222 to be put on Do Not Call list	2009-05-18 13:59:59
20750175	1137147885	Get on National Do Not Call List Only takes a minute 8883821222	2009-01-21 20:10:33
9089835	1204700452	Cell s release to telemarketers tomorrow2 prevent call 8883821222 from your cell phoneeasy via  via 	2009-02-13 00:19:32
25235109	1954759354	protect your cell phone or any phone  from telemarketers NOW 8883821222 thx David Spann	2009-05-29 01:58:03
14327923	2126388060	Register your cell  on DNC list Telemarketers start calling soon 8883821222	2009-06-12 03:22:21
35539887	1784353282	rt Gage Cell phone s go public today 4 telemarketers Call 8883821222 from your cell phone to get on the do not call registry	2009-05-13 13:41:24
25117472	2107465537	CellsPublic4telemktersyou receive salescallsBE CHARGED2preventcall frm cell 8883821222National NO CALL list blocks number for 5 yrs	2009-06-10 19:52:52
1272821	2899307103	Cell phones go public this month put your cell  on  or 8883821222 Via   via 	2009-07-28 23:26:24
30851309	1786038145	To prevent this call the National DO NOT CALL number at 8883821222 You must call from the cell phone you intend to list	2009-05-13 16:43:43
27287315	3095955019	RT YOU WILL BE CHARGED FOR THESE CALLS To prevent this call the following number from your cell phone 8883821222 A DO NOT CALL list	2009-08-03 01:33:39
42765841	2879600445	8883821222 National Do Not Call List because cellphones go public next month	2009-07-27 23:21:36
45439231	1932862019	8883821222 most searched telephone number  auto warranty robocall  	2009-05-27 05:23:42
19486824	1589242191	Remember cell phone numbers go public next monthTo get on the quotdo not callquot list you must call 8883821222 from your cell phone Do it	2009-04-22 23:22:00
7994057	1223093597	Avoid telemarketing calls Register your Number w National Do Not Call Registry 18883821222	2009-02-18 15:19:11
19980346	1121673904	TODAY YOUR CELL PHONE GOES PUBLIC CALL 8883821222 FROM YOUR CELL TO GET IT BLOCKED OR  Do it now	2009-01-15 18:49:45
49939416	3569363442	What Cell phone s are being released to telemarketers next month amp Im supposed to call the national do not call list  8883821222	2009-08-27 01:19:28
35522529	2025217433	National DO NOT CALL list from telemarketing comp It will only take a minute of your time It blocks your CELL  for 5yrs 8883821222	2009-06-04 03:32:00
32963135	1719362062	To stop your Cell Phone Number from Going Public next month call 8883821222 for the National DO NOT CALL list I did it so should you	2009-05-06 18:53:31
15222933	3117379796	Just got my first telemarketing call on my cell phone Call National DO NOT CALL list from your cell phone  8883821222 I just did	2009-08-04 03:15:20
26221684	1646004612	Federal Do Not Call Registry 8883821222 Cell phone numbers go public in May  FYI	2009-04-29 04:06:16
18400815	2396951831	RT boogie Do Not Call Registry 8883821222 Call from the phone you want to have enlisted Block telemarketers for 5 years	2009-06-30 01:43:16
24106356	1140594019	cell phone numbers go public soon get more info at  or call 8883821222 the do not call list	2009-01-23 00:04:23
11667073	1173821091	Carriers start selling your cell s to telemarketers today Use your phone 2 call 8883821222 DO NOT CALL registry Pass it on	2009-02-03 19:02:08
42420497	3465789848	8883821222 	2009-08-22 04:02:32
11880378	1874122575	Cell s go public nxt month meaning telemarketers will start calling 2 get on the Do Not Call registry call 8883821222 from ur cell	2009-05-21 19:00:51
39798827	2058047558	Reminder All Cell Phone Numbers Go Public next month Aaack get put on the DO NOT CALL LIST 8883821222	2009-06-06 21:09:45
22023267	1561792347	RT  FALSE  its NOT true cell phone numers released 18883821222 amp it stops   THX	2009-04-20 01:07:42
11663614	1181435054	 call 8883821222 its the national do not call list	2009-02-05 23:19:07
43909680	2158905415	Do Not Call Registry 18883821222	2009-06-13 23:10:04
23339221	1168576312	you will receive sales calls on your cell phone and be charged unless you call 8883821222	2009-02-02 02:29:40
22434893	1125146805	Dont forget to register your cell phone with do not call list as s are going public 1 8665803625 or 8883821222	2009-01-17 00:45:54
26125635	2002535149	get your cell phone number put on the do not call registry b4 telemarketing companies can start using that   call 8883821222	2009-06-02 11:29:40
2123262	918092943	Today is the last day to register for he DO NOT CALL list for cel phones in CA  Call 8883821222 from your cel phone to register	2008-09-11 20:22:36
11238963	1067528826	Call this number so your cell phone doesnt get sales calls 8883821222	2008-12-19 18:02:26
1339023	924206081	EVERYONE  call from your cell amp home phones the National Do NOT Call Registry to avoid telemarketers 18883821222	2008-09-17 03:54:09
49585304	2804248848	okay if you want telemarketers to stop calling your phones register your number with the fcc 18883821222	2009-07-23 19:46:28
22177566	1069651554	after searching I found the number for the NTNL DO NOT CALL registry  8883821222  thought it might help	2008-12-20 23:00:17
22306293	1509904069	rt  call the following number from your cell phone  8883821222 It is the National DO NOT CALL list	2009-04-13 16:06:30
14053524	954377050	 you have to register your phone with DNC listing DO NOT CALL 18883821222	2008-10-10 16:22:20
15286469	1786854977	RT  Gage Cell phone s go public today 4 telemarketers Call 8883821222 to join the do not call registry Pls RT	2009-05-13 18:09:22
22152630	1577332123	cell s released to telemarketers tomorrow 4228883821222 to be taken off list	2009-04-21 18:40:51
5577918	1518217514	RT  FTC National Do Not Call Registry Call from the phone you want to register 8883821222 Stop those annoying telemarketers	2009-04-14 17:28:45
17680394	2099007612	Cell Phone Numbers Go Public next month amp are being released to telemarketing co  call from your cell phone to block at 18883821222	2009-06-10 03:46:59
29936600	1835979864	Whoa Thx K RT  Cell Phone Numbers Go Public next month  Nat DO NOT CALL  8883821222 Register your phone today	2009-05-18 14:08:15
39196196	2889989098	To prevent this call the following number from your cell phone   8883821222	2009-07-28 13:48:52
41763514	1947883948	RT  Cells will be released to telemarketers to reg wdonotcall registry call 8883821222 from any phone Takes 60 s 	2009-05-28 14:52:02
13890016	1061485148	Cell numbers went quotpublicquot today  got my first spam call already  dial 8883821222 FROM YOUR CELL to register for Do Not Call	2008-12-16 21:42:25
8584855	1204827342	RT  Cell s release to telemarketers tomorrowto prevent call 8883821222 from your cell phone I did  two simple steps	2009-02-13 01:08:08
48615516	547465282	Last day to preregister your mobile num for the national donotcall list 8883821222  do it now	2007-12-30 21:43:39
4950295	2899348714	RT  Cell phones go public this month put your cell  on  or 8883821222 Via lots of people	2009-07-28 23:29:11
16398089	2388435797	Hate telemarketers Call the Do not call registry 8883821222 to get your number blocked for 5 years 	2009-06-29 15:04:22
34578270	1696062933	RT Did U know all cell s go public next month Heres National DO NOT CALL LIST number to avoid all this telemarketer crap 8883821222	2009-05-04 14:32:02
20950806	1784884372	Cell phone s go public today 4 telemarketers Call 8883821222 to join the do not call registry Pls RT	2009-05-13 14:45:20
17929138	1349521950	after this month telemarketers  can call your cell phonecall 18883821222 from your cell phone to register on the do not call list	2009-03-18 17:42:59
37043332	2128486290	REMINDERAll cell phone numbers are being released to telemarketing companiesTo prevent this call 8883821222THIS IS NOT A JOKE	2009-06-12 06:56:55
15838306	3595492122	RT  Your cellphone number may be sold to telemarketers Call FTCs 8883821222 from your phone to prevent via 	2009-08-28 03:45:43
34284721	1766436000	Just registered to the national donotcall registry 8883821222 so I can file a complaint to all telemarketers	2009-05-11 20:23:13
90062	1118650585	This is the National DO NOT CALL listYou must call from the phone number you want to have blocked 8883821222 	2009-01-14 16:41:04
53252712	3395894743	FTC Natl Do Not Call Registry  8883821222 Must call from phone to be registered	2009-08-19 01:43:24
54082497	2437917638	thx bro RT  Cell Phone Numbers Go Public next month call 8883821222 so you dont get charged when telemarketers call	2009-07-02 14:56:22
27259486	3395841598	FTC Natl Do Not Call Registry  8883821222 Must call from phone to be registered	2009-08-19 01:40:48
26977705	1939163523	Telemarketers have been calling cell phones amp we are getting charged If you call 8883821222 u can go on a National No Call List	2009-05-27 20:03:40
23150209	2818076390	RT  register your cell  to prevent telemarketing calls when numbers go public next month 8883821222	2009-07-24 13:16:29
17782767	1864634599	Call 8883821222 with a cellphone to add it to the national do not call list for 5yrs Otherwise it will be available to marketers in June	2009-05-20 22:59:00
11289284	1349598335	RT  after this month telemarketers  can call your cell call 18883821222 from your cell to register on do not call list	2009-03-18 17:56:56
56004757	2042670851	33 phone 8883821222 It is the National DO NOT CALL list  real or scam	2009-06-05 13:39:29
2689965	1173820205	RT  Carriers srt selling yr cellphone s 2 telemarketers 2day Use yr phn 2 call 8883821222 dnt CALL registry Pass it on	2009-02-03 19:01:51
8905237	2852005088	Cell Phone Numbers Go Public this month Call the National Do Not Call List from your cell to block yours 8883821222	2009-07-26 11:24:47
24100443	2024714671	Cell phone numbers going public next month Call from your cell to National Do Not Call list at 18883821222 or be sorry	2009-06-04 02:42:17
35077333	2168897998	Your Cell  will be released to telemarketers next month Register with donotcall registry 8883821222 from any phoneTakes 60 seconds	2009-06-14 20:38:01
41981361	1719518527	Call donot call registry now from your cell phoneCell numbers go public next month 8883821222  Need to put new bike seat on Rachs bike	2009-05-06 19:10:31
9238851	1571582184	RT  Cell Phone Numbers Go Public next month Call 18883821222 from your cell phone to get on DO Not Call List	2009-04-21 02:36:47
9939757	1136390705	apparently cell s are free game for telemarketers starting today take a sec to call the national DO NOT CALL  from yr cell 8883821222	2009-01-21 15:09:20
11163935	1598807698	RT  Cell Phone Numbers Go Public next month Call 18883821222 from your cell phone to get on DO Not Call List via 	2009-04-23 23:28:47
25553062	1171612038	 Yes you do We got a company wide email about it You need to call 18883821222 national do not call list	2009-02-03 01:27:30
28709327	2017898825	Call the NATIONAL DO NOT CALL registry at 8883821222 It will block your phone for 5 years	2009-06-03 16:07:20
55843384	1142252579	Cell phone numbers go public today Add yours to the Do Not Call registry by calling 8883821222 from the phone you want to register	2009-01-23 16:04:49
44406020	1963955274	In the near future all cell phone s will be released to the public and sales companies to prevent this call 8883821222	2009-05-29 20:30:15
23995604	1993364977	RT  this month cell s go public amp telemarketers will call and u will be charged To prevent call 8883821222 from ur cell	2009-06-01 17:15:33
15974075	1876352196	Thanks Pam for making it easy for me to do the same  Just called 8883821222 to add number to the national DNC list via 	2009-05-21 23:08:15
24287653	1571631675	RT  Cell Phone Numbers Go Public next month Call 18883821222 from your cell phone to get on DO Not Call List	2009-04-21 02:42:58
55945660	1174088017	RT  Carriers start selling your cell  to telemarketers today Use your phone 2 call 8883821222 DO NOT CALL registry Retweet	2009-02-03 20:33:51
1818010	1149731895	Register your cell phone on the donotcall registry  Tomorrow telemarketers can start calling you  8883821222  Pass it on	2009-01-26 18:22:40
34014392	2220942908	Everyone cell phone numbers go public next month No Call List 2 prevent this you must call from your cell phone 8883821222	2009-06-18 11:20:40
38839736	2160293592	REMINDERCells go Public next monthYou must call the National Registry to block them 8883821222 must call from the phone u are blockn	2009-06-14 01:43:21
47805881	2389823319	Remember  all cell phone numbers go live to telemarketers July 1 Natl DO NOT CALL register is 8883821222 Takes 20 sec Love this rain	2009-06-29 16:47:10
9374137	933183065	Everyone should talke 20 seconds to call 8883821222 For ore info visit 	2008-09-24 16:22:18
23530325	3362889405	REMINDERCell phone numbers will be released to telemarketers next month call the National DoNotCall Hotline 2 B removed 8883821222fb	2009-08-17 15:15:33
2128827	1203315609	RT  If you are in the US make sure you put your cell phone on the do not call list by calling 8883821222	2009-02-12 17:20:24
13076461	964336505	Cell phone s go public todaytelemarketers can call and you get charged Call 8883821222 from your cell phone to get on DO NOT CALL list	2008-10-17 20:22:45
21417941	1649860134	It seems that we need to add our cell phones to the do not call list 8883821222	2009-04-29 15:44:51
11451153	2212387155	REMEMBER  Cell Phone Numbers Go Public next month 18883821222 is the National DO NOT CALL list RT this around	2009-06-17 21:02:00
50194401	3363798811	Block unwanted telemarketers  Federal Do Not Call Registry  8883821222	2009-08-17 16:11:04
13903801	1450157136	RT  Cell s go public next month To prevent paying 4 sales calls call National DO NOT CALL from your cell 18883821222	2009-04-04 05:18:14
28709327	2017917465	 Call the NATIONAL DO NOT CALL registry at 8883821222 It will block your cell phone for 5 years	2009-06-03 16:09:06
55739317	1002949958	To place your mobile phone on National Do Not Call Registry go 2 wwwdonotcallgov or call 8883821222 f phone u want to register	2008-11-12 23:46:20
38052269	2390617097	 You can put your cell on a donotcall list if you call this number from your phone18883821222  I promise its not a scam	2009-06-29 17:45:35
90518	2210752285	called 8883821222 and registered my cell to the no call list	2009-06-17 18:58:42
6616993	1311042933	Add your cell phone to the Do Not Call registry B4 s are released next month 8883821222	2009-03-11 15:27:46
90062	1118632028	What is really whack is that we will be charged for these callsI got one yesterdayIf you want to prevent this call 8883821222	2009-01-14 16:33:37
55717727	861306448	cristina The do not call list is 18883821222	2008-07-17 21:31:14
17408066	1050522503	RT  Cellphone numbers go public today  to  add your cell  to the do not call registry call 8883821222 Not a hoax	2008-12-11 03:04:59
42226192	2210090209	RT  RemUS cell s to be released 2 telemarketers July 1st Call 8883821222 amp register your  on national do not call list	2009-06-17 18:09:28
36616774	3453490284	ALL CELL  NUMBERS GO PUBLIC NEXT MONTH  CALL 8883821222 TO BLOCK YOUR CELL NUMBER FROM TELEMARKETERS  IT IS THE NATL DO NOT CALL LIST	2009-08-21 16:59:50
35886482	1853176360	CELL PHONE  RELEASED Call 8883821222 if you dont want your cell phone released to telemarketers You must call from the cell phone	2009-05-19 23:46:13
48614749	2359498249	DIAL 18883821222 FROM YOUR CELL PHONE IF YOU DO NOT WANT TO HAVE TO PAY FOR RECEIVING UNWANTED TELEMARKETING CALLS ON YOUR CELL PHONE	2009-06-27 15:01:48
19081225	1173940993	RT  Carriers start selling your cellphone s to telemarketers today Use your phone 2 call 8883821222 DO NOT CALL registry	2009-02-03 19:42:52
23697175	1784439702	RT Gage Cell phone s go public today 4 telemarketers Call 8883821222 to join the do not call registry Pls RT	2009-05-13 13:51:34
33884443	3109217005	RT 18883821222 call this number and have your cell or house phone number registered to block telemarketers	2009-08-03 18:55:25
53535447	3395790310	FTC Natl Do Not Call Registry  8883821222 Must call from phone to be registered 	2009-08-19 01:38:12
19491363	1206861649	  heres the phone number  call the following number from your cell phone ampgt ampgt 8883821222	2009-02-13 16:28:53
20565147	2766173298	Reminder Cell Phone numbers go public next month Register for the Do Not Call List 8883821222	2009-07-21 22:18:30
26895294	2021252558	RT  REMEMBER  Cell Phone Numbers Go Public next month National do not call llst 8883821222 to avoid telemarketers	2009-06-03 21:09:21
14229216	2915163316	Cell phone ALERT  Avoid telemarketers calling u  DO NOT CALL LIST must call on your cell   8883821222	2009-07-29 19:22:38
28709327	2017915733	Call the NATIONAL DO NOT CALL registry at 8883821222 It will block your cell phone for 5 years	2009-06-03 16:08:56
13641538	1632110381	Cell phone numbers are being released to telemarketing companies next month National DO NOT CALL list 8883821222 hurry	2009-04-27 20:12:46
17517903	1784565129	rt gage Cell phone s go public today 4 telemarketers Call 8883821222 to join the do not call registry	2009-05-13 14:05:53
16284645	1962310650	PROTECT your cell phone from Telemarketers 18883821222   Must call from cell phone u use tcot cell	2009-05-29 17:50:58
9992547	1216946214	FYI 8883821222  National do not call list Blocks your number for 5 years  Call from the  you wish to have blocked	2009-02-16 22:51:16
9845687	1449660163	Cell phones go public next month To prevent paying 4 sales calls call the National DO NOT CALL list from your cell phone 18883821222	2009-04-04 03:17:10
34569638	2136903474	registering my cell phone  on the new national DO NOT CALL list  cell spamming is legal soon  do it now  8883821222	2009-06-12 21:23:23
18080659	1238812681	Register your phone number for free with the National Do Not Call Registry at  or call 18883821222	2009-02-23 00:40:09
46667789	1079433228	Register for the new Do Not Call list  8883821222  	2008-12-26 15:46:31
3234847	1919539717	National DO NOT CALL REGISTRY  call from your phones now 18883821222    Retweet now	2009-05-26 03:05:00
41011341	2000696748	ScamNo need to worry   RT  cell s go public amp telemarketers will call To prevent call 8883821222	2009-06-02 05:43:44
31119046	3109240541	RT domi RT 18883821222 call this number and have your cell or house phone number registered to block telemarketers	2009-08-03 18:56:50
221499	2916859645	Tired of telemarketers Fright back 18883821222 to block the calls go to wwwdonotcallgov to report and killthecallscom to sue them	2009-07-29 21:03:51
25218722	1650346466	telemarketers can now call cell phones To prevent this call the following number from your cell phoneampgt 8883821222	2009-04-29 16:41:00
39536660	2279953504	Cellphone numbers are being released to telemarketing companies amp you will start to receive sales callsTo prevent this call 8883821222	2009-06-22 15:12:58
20428746	1990512155	Stop Cell Phone Telemarketing calls by registering your number at the Do Not Call Registry   Takes about a minute  8883821222	2009-06-01 12:03:53
36807757	2337594062	Do Not Call List for your cell and phone good for 5 years takes like 20 sec 2 do I just did it 18883821222	2009-06-26 02:20:59
6078838	2649858344	RT  REMEMBERCell Phone s Go Public ths month 2 prevent this call frm cell phone  National DONOTCALL list 8883821222	2009-07-15 12:03:33
11872232	2017958249	RT   Call the NATIONAL DO NOT CALL registry at 8883821222 It will block your cell phone for 5 years	2009-06-03 16:12:50
11687417	948771528	Retweeting  Cell numbers just went publicBlock your cell phone number to telemarketers call 8883821222 wwwdonotcallgov	2008-10-06 20:56:23
40518862	3124183429	2 keep telemarketers from calling your cellcall 18883821222 U must b calling from your cell phone in order 2 block telemarketers	2009-08-04 13:37:08
54308050	1224435564	If you are in the US call 8883821222 to get your name on the national do not call list for telemarketers for your cell phone	2009-02-18 21:46:49
15421524	1116171220	register your cellphone for Do Not Call List to avoid telemarketers cellphone s soon to be released into wild Call 8883821222	2009-01-13 17:53:17
24221528	1174004121	Liked quotCarriers start selling your cellphone s to telemarketers today Use your phone 2 call 8883821222 DO NOTquot 	2009-02-03 20:04:02
23335083	1700848242	Telemarkting cos can now call cellphones and UR charged when they call8883821222 NATIONAL DO NOT CALL list blocks UR no for 5 yrs	2009-05-04 23:48:17
37546381	1998296583	Register your cell phone with the national do not call list 8883821222 Just did ours Your dogies go public next month	2009-06-02 01:19:01
42667053	1783747035	RT  RandyGage Cell phone s go public today 4 telemarketers Call 8883821222 to put it on the do not call registry Pls RT	2009-05-13 12:20:39
14430438	1580628276	RT  Cell phone numbers go public next month Call 18883821222 from your cell phone to get on Do Not Call list Takes 15secs	2009-04-22 01:22:24
25117472	2107508903	CellNumbersPublic2telemarketrs u will receive callsCHARGED2prevent call from cell8883821222National NO CALL list blocks your  for 5 yrs	2009-06-10 19:56:44
45597833	2568590350	Cell phone numbers go public next month so call 8883821222 to get on the do not call list	2009-07-10 14:22:02
15183651	1000642021	cell phone s go public todayput yourself on the cell phone do not call list8883821222 so telemarketers dont eat up your mins	2008-11-11 16:48:18
15325957	1993779046	RT   this month cell s go public amp telemarketers will call and u To prevent call 8883821222 from ur cell	2009-06-01 17:55:08
9529686	1757240034	Cell Phone Numbers Go Public next month Register on National Do Not Call Directory Call 8883821222 from your cell phone	2009-05-10 20:57:27
39410445	2195265262	Ok tweets cell phones will become public soon to telemarketers call this number to register to block ur  18883821222	2009-06-16 17:54:06
37619157	1628804056	 You can reach them at 18883821222  Its a highly automated process so be prepared for several layers of auto attendants  	2009-04-27 13:32:17
9992656	1009635281	telemarketers can start calling cell phones tmrw register your cell on the no call list  8883821222	2008-11-17 14:41:18
10521499	1183410808	tweet alert National DO NOT CALL list number for cell phones8883821222call from your cellour numbers go public today so DO THIS	2009-02-06 15:21:44
530030	1173853418	RT  Carriers start selling your cellphone s to telemarketers today Use your phone 2 call 8883821222 DO NOT CALL registry	2009-02-03 19:13:12
16176254	945634085	Natl do not call my cell phone with verbal spam registry 8883821222  Starting today you can be charged for telemarketer calls	2008-10-04 00:30:27
28069327	1561755109	Check link falseRT  anyone know if its true cell phone numers released soon 18883821222  and it stops  	2009-04-20 01:00:23
6046785	1034267215	Have you registered your cell number in Natl Do Not Call Registry which just opened for mobiles From your phone dial 18883821222	2008-12-02 14:57:09
23821261	1788657087	RT  RT  National Do Not Call Number 4 cell phones is 8883821222 Cell phone numbers go public soon	2009-05-13 22:09:13
11626327	1204355030	 the end of this month telemarketers get public acess to cell  call 18883821222 to get on the do not call list	2009-02-12 22:21:04
16759568	2437703906	Cell Phone Numbers Go Public next month call 8883821222 so you dont get charged when telemarketers call	2009-07-02 14:41:09
38738015	1798551419	National Do Not Call list  18883821222	2009-05-14 20:19:51
39189180	2158246017	REMEMBER Cell Phone Numbers Go Public next month National DO NOT CALL list 8883821222	2009-06-13 21:58:43
44810683	3245819964	To prevent this from happeningcall 18883821222 to register your cell phone number for the National	2009-08-11 14:14:15
2330036	1116167348	RT  register your cell for Do Not Call List to avoid telemarketers cell s soon 2B released into wild Call 8883821222	2009-01-13 17:51:36
14166414	1787745487	Cell phone s go public today 4 telemarketers Call 8883821222 to put it on the do not call registry Pls RT	2009-05-13 20:35:36
55753785	1842848759	Call this number to be put on the National DO NOT CALL list 8883821222 just called it Im pretty sure its legit	2009-05-19 02:15:30
6884521	1571897793	RT  RT  Cell Phone Numbers Go Public next month 18883821222 from your cell phone get on DONotCall List	2009-04-21 03:16:36
15472635	1571955034	RT  Cell Numbers Go Public next month Call 18883821222 from your cell phone to get on DO Not Call List	2009-04-21 03:23:40
20955261	2153759021	RT  Cell phone numbers go public next month Add yours to the Do Not Call Registry 8883821222	2009-06-13 14:00:58
39848125	2021422122	RT  National do not call llst 8883821222 to avoid telemarketers for your cell phoneMust call from your cell for it to work	2009-06-03 21:24:28
11677831	914168240	Cell numbers go public on Tuesday be sure to call to get yours off the list8883821222	2008-09-08 18:56:22
30959610	1289725353	Hey Americans Call 8883821222 the nocall list Next month your cell number is going to be given out to phone soliciters	2009-03-06 19:39:11
24935786	2852019966	RT  Cell Phone Numbers Go Public this month Call the National Do Not Call List from your cell to block yours 8883821222	2009-07-26 11:27:05
15734038	924191037	Cell phone s go public today 2 prevent telemkts call 8883821222 from the phone you want on the DO NOT CALL List or wwwdonotcallgov	2008-09-17 03:37:07
25071731	1174881111	Cellphone DO Not Call  8883821222 Cellphone numbers go public next month	2009-02-04 01:23:46
20498081	1174517192	RT  Carriers start selling your cellphone s to telemarketers today Use your phone 2 call 8883821222 DO NOT CALL registry	2009-02-03 23:01:16
29646528	1572110552	RT  RT  Cell Phone Numbers Go Public next month Call 18883821222 from your cell phone to get on DO Not Call List	2009-04-21 03:43:27
46214531	2536818466	truthbetold Call the following number from your cell phone8883821222It is the National DO NOT CALL Cell list iPhone ATampT  it works	2009-07-08 18:47:54
11155754	1571597528	RT  Cell phone numbers go public next month Call 18883821222 from your cell phone to get on Do Not Call list Takes 15 secs	2009-04-21 02:38:41
10630897	1048234366	Call 8883821222 from your cell phone to get on the Do Not Call list for cell numbers They will be released to telemarketers tomorrow	2008-12-10 01:02:17
9104084	1174539387	RT  Just read this Carriers start selling your cellphone s to telemarketers today Use your phone 2 call 8883821222  	2009-02-03 23:09:26
3904959	1703001211	Cellphone numbers go public tomorrow for sales people to call you along with telemarketers Call 18883821222 or go to donotcallgov	2009-05-05 03:56:42
17560144	1571590711	RT  Cell Phone Numbers Go Public next month Call 18883821222 from your cell phone to get on DO Not Call List	2009-04-21 02:37:51
28858599	1364212281	National DO NOT CALL number for cell phones 18883821222 Blocks your number for 5 years from telemarketers calls YOU pay for Call now	2009-03-21 02:57:04
41474775	1991761359	To prevent this call the following number from your cell phone   8883821222	2009-06-01 14:37:06
28780756	1250752325	Stop Telemarketers from calling you with the National Do Not Call Registry  or call 18883821222	2009-02-25 20:39:56
1494484	1173832967	RT Carriers start selling your cellphone s to telemarketers today Use your phone 2 call 8883821222 DO NOT CALL registry	2009-02-03 19:06:10
35817060	1788704905	FYI Cell phone s go public today 4 telemarketers Call 8883821222 to join the do not call registry	2009-05-13 22:14:23
9816784	2766441543	RT  Reminder Cell Phone numbers go public next month Register for the Do Not Call List 8883821222	2009-07-21 22:35:12
33098151	2109305670	National Do Not Call Registry   8883821222   Call from the phone number you want blocked Very easy  gratuitous squarespace mention	2009-06-10 22:30:27
35556307	1783739475	RT Gage Cell phone s go public today 4 telemarketers  Call 8883821222 to put it on the do not call registry  Pls RT	2009-05-13 12:19:28
19164336	1220707267	Cell phone numbers are going public and being released to telemarketing companies Call 8883821222 to block your number for 5 years	2009-02-17 22:51:07
7751098	1678560800	Call 8883821222 to put yourself on the Do Not Call Registry	2009-05-02 14:05:17
29986179	2021162669	RichGolischREMEMBER Cell Phone Numbers Go Public next month National do not call llst 8883821222 to avoid telemarketers	2009-06-03 21:01:39
12663083	950921973	If you want to block your cell phone numbers  now they are public to telemarketers call 8883821222 or go to wwwdonotcallgov	2008-10-08 05:54:48
53183655	1695935330	All cell s are going public here is the registry  so you dont get called 8883821222 thanks to 	2009-05-04 14:16:04
55807527	1160348176	to remove your cell phone from the national donotcall registry call 8883821222  	2009-01-30 01:20:35
28760400	2594064294	Do not call list number for telemarketers is 18883821222 Im not sure if its just for Michigan though	2009-07-12 04:18:07
7907913	918393419	REMEMBER Cell Phone Numbers Go Public today To prevent call the  from your cell phone 8883821222 or or go to wwwdonotcallgov	2008-09-12 01:47:25
14351975	2551452539	Just got done registering my cell phone on the do no call list 18883821222	2009-07-09 15:14:09
19634430	1615815179	Cell phones released to telemarketing Co this month call 8883821222 from your cell phone  to prevent it for 5 years Takes 20 sec	2009-04-25 21:42:24
8176068	1757557954	Cell phn s go public nxt month Register on Natl Do Not Call Directory Call 8883821222 from your cell phone via  amp 	2009-05-10 21:42:29
20704840	1047216004	Cell Phone Numbers go public today To prevent this call the following number from your cell phone 8883821222	2008-12-09 15:33:31
15208824	1223282011	remember Cell phone numbers go public next month call this number 8883821222	2009-02-18 16:11:37
14228642	915431292	OMFG the cell phones went public today already for a call from Dominoes  put your number on the DO NOT CALL LIST 8883821222  AAHH	2008-09-09 18:47:03
35954615	2104122071	Cell phone s go public next month Call 18883821222 from the phone you want blocked from telemarketers Valid for 5 yrs	2009-06-10 15:06:05
18795269	1690990917	RT  RT  Cell Phone Numbers Go Public this week Prevent this Natl DO NOT CALL list for your cell 8883821222	2009-05-03 23:50:43
33228402	1695858428	Did U know all cell rs go public next month Heres National DO NOT CALL LIST number to avoid all this telemarketer crap 8883821222 A	2009-05-04 14:06:03
43694696	2033927786	Starting tomorow the law changes and quotCold Callersquot will be able to call cell phones8883821222 if u want ur cell  on donotcall list	2009-06-04 20:22:52
25883468	1429239625	Noticed an increase in telemarketers calling my cell Happening to u Call 8883821222 or visit 	2009-04-01 03:56:23
55788262	1102267835	Signed up for Natl Do Not Call cell phone list  8883821222  Must call from cell phone takes about 20 seconds	2009-01-07 17:08:37
936151	1569660597	RT  just put my cell  on the do not call list since cell s will be released to telemarketers next month 18883821222	2009-04-20 22:36:12
14853512	948776464	RT maguire RT  Cell numbers just went publicTo block your number call 8883821222 wwwdonotcallgov	2008-10-06 21:00:41
39573830	2021269799	RT  National do not call llst 8883821222 to avoid telemarketers for your cell phoneMust call from your cell for it to work	2009-06-03 21:10:51
4034462	1852479097	Call 8883821222 to block your cell number Otherwise you will be charged for those that call youProtect yourself	2009-05-19 22:33:21
35716430	1723661475	RT  National DO NOT CALL  list for cell phones youll pay for the minutes wasted on sales calls 8883821222	2009-05-07 03:12:28
54059620	3395831831	FTC Natl Do Not Call Registry  8883821222 Must call from phone to be registered	2009-08-19 01:40:19
16463883	2818678658	RT  register your cell  to prevent telemarketing calls when numbers go public next month 8883821222	2009-07-24 13:58:31
6840696	2801706277	RT  Call 8883821222 from your cell amp add it to the Do Not Call Registry Cell phone banks are being opened to telemarketing Aug 09	2009-07-23 17:16:48
24063075	2591959063	cell ph no go public next mo call from yours to 8883821222 to block no for 5 years	2009-07-12 01:28:07
21808582	1262090297	8883821222 is the national do not call number it has to be from the cell phone that you dont want them to call	2009-02-28 14:25:38
20372647	1859649938	I just registered my CELL phone for the  NATIONAL REGISRY  DO NOT CALL list  DO IT NOW 8883821222 stop telemarketers wasting ur minutes	2009-05-20 14:31:47
29019574	2800794412	RT  RT  Call 8883821222 from cell phn amp add it 2 the Do Not Call Registry cell phn banks R being opened 2 telemark 	2009-07-23 16:23:47
43307688	2180388028	Cell phone s released today to telemarkerters YOU WILL BE CHARGED FOR THESE CALLS Call 8883821222 FROM YOUR CELL ONLY blks for 5 yrs	2009-06-15 17:24:10
44810683	3245829441	DoNotCall list Thats 18883821222	2009-08-11 14:14:57
23431175	1142367653	cell s being released today to telemarketers Do not call  is 8883821222 to block your  for 5 years Has to be called from the cell	2009-01-23 16:47:03
39754101	2152009048	REMEMBER  Cell Phone Numbers Go Public next month To prevent this call the following number from your cellphone   8883821222	2009-06-13 08:37:31
36613957	2766461996	RT  RT  Reminder Cell Phone numbers go public next month Register for the Do Not Call List 8883821222	2009-07-21 22:36:28
1696769	1947335263	Cell Phone Numbers Go Public next month Stop sales calls now by dialing from your cell phone 18883821222 the National DO NOT CALL list	2009-05-28 13:57:40
16576069	1993152216	this month cell s go public amp telemarketers will be calling To prevent this call 8883821222 from ur cell phone via 	2009-06-01 16:54:58
22923878	1206704118	 thx for Cell Phone Numbers Go Public next month To prevent this call the following number from your cell phone 8883821222	2009-02-13 15:43:42
11704085	2136885270	RT Barton registering my cell phone  on the new national DO NOT CALL list  cell spamming is legal soon  do it now  8883821222	2009-06-12 21:21:48
90399	1871605208	Listed so I dont get solicited  do not call list for cell phones 8883821222	2009-05-21 14:57:01
9789924	1368235381	8883821222 this the cell phone do not call list good for 5 yrs after u register telemarketers cant call u	2009-03-22 00:15:58
34849370	3146897767	Cell s going publicunless 8883821222 call this  so that you is on the National DO NOT CALL list Must call from ur cell though 	2009-08-05 15:24:48
36776476	1638562778	I registered my call phone with Do Not Call Registry 18883821222 Added protective measure Use your cell when calling	2009-04-28 12:55:34
32563267	1347612237	Remember Cell Phone Numbers Go Public next month  National DO NOT CALL list  8883821222 from cellphone to block telemarketing calls	2009-03-18 10:34:13
16133783	2818069003	RT  register your cell  to prevent telemarketing calls when numbers go public next month 8883821222	2009-07-24 13:15:58
25963793	1721888721	National DO NOT CALL  list for cell phones youll pay for the minutes wasted on sales calls 8883821222	2009-05-06 23:44:41
5356965	931827867	advises those who want to prevent telemarketers from bombarding their cellphoneshome phones to call 8883821222 and register	2008-09-23 16:06:12
12651724	1109530565	CALL AND BLOCK YOUR CELL PHONE NUBBER8883821222         Cell Phone Numbers Go Public today	2009-01-10 19:26:28
23912718	1525745481	Cell phone s go public next month To prevent telemarketing calls you need to register your  with the natl no call list  8883821222	2009-04-15 14:59:38
12329267	2393066409	Apparently Cells go publicfor sale next month to telemarketers National DO NOT CALL List  8883821222	2009-06-29 20:42:16
3224590	1028440682	Canadian Cell phone numbers go public on Monday To prevent telemarketing calls call  1 8665803625 or 8883821222 From the Cell Used	2008-11-28 20:23:28
53812395	1862063640	Do Not Call list  to stop getting telemarketing calls  or 8883821222	2009-05-20 18:33:39
90574	2536964467	 Add your cell phone or asterisk DID to DO NOT CALL Registry Just call 8883821222 with CallerID of number to block	2009-07-08 18:57:32
8919311	2153744365	Cell phone numbers go public next month Add yours to the Do Not Call Registry 8883821222	2009-06-13 13:59:10
16926201	3235926115	Remember cell phone s go public next month 4 telemarketers Call the quotDo Not Callquot registry amp add your cell phone 18883821222 RETWEET	2009-08-11 00:45:16
26200631	1788601458	National Do Not Call Number 4 cell phones is 8883821222 Cell phone numbers go public soon Takes 20 seconds 2get on listspread the word	2009-05-13 22:03:16
20071829	1142469091	8883821222 natl do not call registry only took a minute	2009-01-23 17:24:08
4685668	1580292152	diving 18883821222	2009-04-22 00:41:43
32320247	2800529971	Tip Call 8883821222 from your cell phone amp add it to the Do Not Call Registry cell phone banks are being opened to telemarketing Aug09	2009-07-23 16:08:14
7879427	1571592143	RT  Cell phn Numbers Go Public nxt month Call 8883821222 from yr cell phn 2 get on dnt Call List Just did it amp it took 15 sec	2009-04-21 02:38:02
29240077	1728402928	Cell phones go public today To avoid sales calls call 8883821222 to remove your cell from list	2009-05-07 16:14:04
8130200	1220711142	RT  Cell phone numbers are going public and being released to telemarketing companies 8883821222 to your num for 5 years	2009-02-17 22:52:18
47147760	3227754398	rthueyREMINDERcell phone numbers go public this month  Call 8883821222 to get on National DO NOT CALL LIST	2009-08-10 16:38:57
17301925	1124399103	It is going into effect that telemarketers can call your cell phones as of today Call 8883821222 to be added to the Do Not Call list	2009-01-16 18:53:23
23642000	1784519532	RT Lemberg RT Gage Cell phone s go public today 4 telemarketers Call 8883821222 to join do not call registry Pls RT	2009-05-13 14:00:43
36528949	1936303847	Cells will be released to telemarketers to reg wdonotcall registry call 8883821222 from any phone Takes 60 seconds	2009-05-27 14:49:33
39543823	1873317483	Cells will be released to telemarketers next month to reg wdonotcall registry call 8883821222 from any phone Takes 60 seconds	2009-05-21 17:41:16
10203789	1145413769	Cell phones go  Public Next Month  telemarketers can start calling you Call  8883821222 from your cell phone to register it	2009-01-24 21:56:56
8047201	1142393561	Cell phone s going public soon Natl Do Not Call Registry 8883821222 Call fm cell phone you DONT want released to publictelemarketers	2009-01-23 16:56:26
41306713	3308003502	National DO NOT CALL LIST for TELEMARKETERS 8883821222 Call today for cell phones and landlines Cell phones s went public April 09	2009-08-14 14:11:57
16575871	1571777630	RT  Cell Phone Numbers Go Public next month Call 18883821222 from your cell phone get on Do Not Call List Did it in 15 secs	2009-04-21 03:01:24
46214531	2536918007	Call the following number from your cell phone8883821222 The National DO NOT CALL Cell list  Try it youll c truthbetold	2009-07-08 18:54:26
23787538	1796827491	cell s go public next month to telemarketers You will be charged for those calls Prevention Call 8883821222 the DO NOT CALL LIST	2009-05-14 17:06:02
18656036	1518211453	FTC National Do Not Call Registry Call from the phone you want to register 8883821222 Stop those annoying telemarketers	2009-04-14 17:27:52
12771773	997821492	does everyone know about the telemarketing quotdo not callquot list for cell phones just call 8883821222 to register your cell very easy	2008-11-09 20:14:09
21185566	1949072261	Called 8883821222 from cell phoneThe National DO NOT CALL list Up with privacy Down with Spam	2009-05-28 16:45:07
1890811	1046742462	Telemarketers are now allowed to call cell phones The California Do Not Call registry is at 18883821222	2008-12-09 09:11:12
15838306	3580294733	cell phone s r being released 2 telemarketing companies2 stop these calls call the following  from your cell phone 8883821222 RT pls	2009-08-27 14:43:50
13284972	1053555883	If you dont want telemarketers calling your cell phone call 8883821222 to register each of your phones on the Do Not Call list	2008-12-12 15:36:17
2591324	1571610557	RT  Cell Phone Numbers Go Public next month Call 18883821222 from your cell phone to get on DO Not Call Listtook 15 sec	2009-04-21 02:40:18
25360991	1784310786	RT  RT Gage Cell phone s go public today 4 telemarketers  Call 8883821222  Is this same as TPS for UK  Pls RT	2009-05-13 13:36:22
22850976	1181515966	Register your cellphone with the US National Do Not Call list  8883821222  Solicitors have access to cell numbers starting this week	2009-02-05 23:48:43
5610267	1986371534	all cellphone numbers are being released to telemarketing companies in June get on FTC do not call list 8883821222	2009-06-01 01:44:48
10907098	1964020556	RT desertmansarde Tired of telemarketing calls to your cell call 8883821222 from your cell and register it with the Do Not Call List	2009-05-29 20:36:12
22023267	1561653740	anyone know if its true cell phone numers released soon call from cell number to this 18883821222  and it stops IS THIS TRUE	2009-04-20 00:40:12
37858200	1752788341	To prevent this call the following number from your cell phone 8883821222 It is the National DO NOT CALL list	2009-05-10 05:59:45
13246191	948758299	RT  Cell numbers just went publicTo block your cell phone number to telemarketers call 8883821222 wwwdonotcallgov	2008-10-06 20:45:12
20188257	1887110078	Cell Phone  Go Public next month U will get sales calls amp they will charge u To stop this call this  from your cell phone 8883821222	2009-05-22 21:37:02
24395354	1600522156	Get Registered National Do Not Call Registry 18883821222 Do it now everybody 	2009-04-24 03:14:05
55802814	1805619515	Block your cell from receiving telemarketers calls Call from your cell 8883821222 National no call list Blocks your phone for 5 yrs	2009-05-15 12:56:42
23442877	1568597628	I just did this RT  Remember cell phones go public next month 8883821222 to register your cell number on the nocall list	2009-04-20 20:25:41
524644	1595688218	ACTION  Do this today US mobile phones Call 18883821222 Take 30 sec to restrict Telemarketing calls  to your mobile donotcallgov	2009-04-23 16:56:14
40051430	1713569811	registering my cellphone number for the do not call list 8883821222	2009-05-06 04:02:44
41102683	2558334189	 want to stop the telemarketers call 8883821222	2009-07-09 22:56:55
26938375	1780781052	This is the second notice that your car warranty will expire  I just reg on the DO NOT CALL list for my cell 18883821222	2009-05-13 03:18:33
211933	1173821566	RT  Carriers start selling your cells to telemarketers today  call 8883821222 DO NOT CALL registry Pass it on	2009-02-03 19:02:17
8744753	1718669963	Sign up for the Do Not Call list at 8883821222 to reduce your risk of investment fraud  stop the calls stop the risk	2009-05-06 17:36:53
24829320	1786562652	Cell phone s go public today 4 telemarketers Call 8883821222 to join the do not call registry	2009-05-13 17:38:42
10686408	1173820966	RT  Carriers start selling your cellphone s to telemarketers today Use your phone 2 call 8883821222 DO NOT CALL registry	2009-02-03 19:02:06
33736554	1835933708	RT  Cell Phone Numbers Go Public next month  Nat DO NOT CALL  8883821222 Register your phone today	2009-05-18 14:02:43
13573611	915772523	Today all cell phone numbers are public  Have you registered your cell  Do Not Call Registry 8883821222 or pay the s Kids phone too	2008-09-10 00:14:14
90572	2536717589	turnon Call the following number from your cell phone 8883821222 It is the National DO NOT CALL Cell list iPhone ATampT tilaarmy haha	2009-07-08 18:41:10
32131052	1953225554	RT  Cell Phone Numbers Go Public next month Must call 8883821222 from phone National DO NOT CALL list	2009-05-28 23:29:52
41368226	3095926750	RT  YOU WILL BE CHARGED FOR THESE CALLS To prevent this call the following number from your cell phone 8883821222  A DO NOT CALL list	2009-08-03 01:31:49
35374852	2016984302	Register your cellphone with the DO NOT CALL registry  8883821222 amp avoid having your minutes wasted by telemarketers TODAY	2009-06-03 14:40:32
40244784	1607559927	Put your name on the cell phone do not call list   8883821222	2009-04-24 21:20:43
26464112	1786850461	RT Gage Cell phone s go public today 4 telemarketers Call 8883821222 to join the do not call registry Pls RT	2009-05-13 18:08:53
27747260	2671282411	Please call 8883821222 to block your cell phone numbers from telemarketing companies The numbers will be released next month	2009-07-16 15:46:21
23636201	1199590283	Just registered my mobile phone number on the Do Not Call Registry 8883821222	2009-02-11 17:10:37
8108406	1316457659	Cell Numbers going publicto telemarketers call the following number from your cell phone 8883821222 Its the National DO NOT CALL list	2009-03-12 15:19:41
31850525	2299717475	Even a problem for ppl not picking up unknown s so to take ur  off the public record call the  8883821222 This block ur  for 5 yearzz	2009-06-23 20:15:30
35977340	1606786572	Cell phone s go public today so be sure to call 8883821222 to be put on the do not call list u must do this from your cell phone an 	2009-04-24 19:49:25
17927137	1690937422	Cell Phone Numbers Go Public this week To prevent thiscall the Natl DO NOT CALL list from your cell 8883821222	2009-05-03 23:43:18
1390923	1976649853	Cell numbers go public in June to telemarketers  Heres the registry number for the quotdo not callquot list 8883821222	2009-05-31 01:40:37
24660284	1798941828	RT  Call 18883821222 to get on Do Not Call List for cells from phone youre putting on list Telemktrs can now call cells	2009-05-14 20:59:41
43141937	3362932125	RT  Cell phone numbers will b released 2 telemarketers next month call the Natl DoNotCall Hotline 2 B removed 8883821222	2009-08-17 15:18:14
16925638	2387676936	Cell phones go public this month put your cell  on a do not call list at 8883821222  TMobile saz they do not sell your number	2009-06-29 14:02:19
26824480	2263207444	l phone  on the new national DO NOT CALL list cell spamming is legal soon do it now 8883821222	2009-06-21 07:12:56
19773286	1571700418	RT  Cell Phone s Go Public next month Call 18883821222 from your cell 2 get on DO Not Call List Just did amp it took 15 sec	2009-04-21 02:51:39
7473560	1835855730	RT  Cell phone s go public next month 8883821222 to be put on Do Not Call list	2009-05-18 13:53:30
32805090	1912082888	Block telemarketers from calling your home amp cell phones by registering your phones at wwwdonotcallgov or call 8883821222 EZ to do	2009-05-25 12:58:11
5430760	1788593535	RT  Cell phone s go public today 4 telemarketers Call 8883821222 from your cell to get on the do not call registry	2009-05-13 22:02:27
19014656	1798929505	Call 18883821222 to get on Do Not Call List for cell phones Must call from phone you are putting on list Telemktrs can now call cells	2009-05-14 20:58:31
4685668	1571573629	Cell Phone Numbers Go Public next month Call 18883821222 from your cell phone to get on DO Not Call List Just did it and it took 15 sec	2009-04-21 02:35:42
17728393	1246662629	REMEMBER Cell Phone Numbers Go Public next month To prevent this call the following number from your cell phone  8883821222	2009-02-24 22:04:33
3846795	1139691689	To add your cell number to the national telemarketing DO NOT CALL list for 5 years call 8883821222	2009-01-22 17:59:08
5099423	1571869258	RT  RT  Cell s Go Pub next mo Call 18883821222 from your cell to get on DO Not Call List  took 15sec	2009-04-21 03:13:00
22125184	1569633631	just put my cell  on the do not call list since cell s will be released to telemarketers next month 18883821222 took 20 seconds	2009-04-20 22:32:43
30199487	1568561894	Just registered my cell for the do not call list  Remember cell phones go public next month 8883821222 to avoid cell phone telemarketers	2009-04-20 20:21:16
41547455	1783845437	RT Gage Cell phone s go public today 4 telemarketers  Call 8883821222 to put it on the do not call registry  Pls RT	2009-05-13 12:35:42
40470377	1697462839	RT  FYI peeps Cell phone numbers go public this week To prevent this call 8883821222 or wwwdonotcallgov	2009-05-04 17:17:16
39289203	1862691610	National Do not Call Registry  18883821222   I highly recommend it it takes 1 minute 	2009-05-20 19:37:51
79665	1204820429	 cell s release to telemarketers tomorrowto prevent call 8883821222 from your cell phone i just did  it was e 	2009-02-13 01:05:32
16464048	1154090962	Apparently cell phne s are being released to telemarketing ppl So if you dnt want them to call you register at 8883821222	2009-01-28 02:42:06
9485539	1572024005	 Whats impt is that 8883821222 IS the  to get on the do not call list Now no more telemarketing calls to my cell  Yay	2009-04-21 03:31:57
36528949	1936122125	Cells will be released to telemarketers next month to reg wdonotcall registry call 8883821222 from any phone Takes 60 seconds	2009-05-27 14:29:43
46419328	2607233035	Block ur phone from telemarketerswwwdonotcallgov8883821222	2009-07-13 01:59:25
19163755	2136884251	RT Barton registering my cell phone  on the new national DO NOT CALL list  cell spamming is legal soon  do it now  8883821222	2009-06-12 21:21:42
18849195	1184072200	Block unsolicited cell phone calls 8883821222 or 	2009-02-06 18:48:09
10544822	1835928961	Cell phone s go public next month 8883821222 to be put on Do Not Call list via 	2009-05-18 14:02:09
21988831	1173831373	RT  Carriers start selling your cellph s to telemarketers today Use your phone 2 call 8883821222 DO NOT CALL Urb Legend	2009-02-03 19:05:39
51671411	3236126289	Remember cell phone s go public next month to telemarketers Call the Do Not Call registry amp add your cell phone 18883821222 RETWEET	2009-08-11 00:56:30
12851140	1871320109	Cell phones go pubic next month Put it on DO NOT CALL list 8883821222	2009-05-21 14:27:38
15526788	1149733180	RT  Cell phone s go public 0209 Call the Do Not Call Registry from your cell to have your phone  blocked 8883821222	2009-01-26 18:23:07
29982597	1860767398	DId you know cellphone s go public in June so telemarketers can call you Call 8883821222 to get on the donotcall list	2009-05-20 16:24:29
28709327	2017919794	 Call the NATIONAL DO NOT CALL registry at 8883821222 It will block your cell phone for 5 years	2009-06-03 16:09:19
17816145	1152992529	Dont forget to register your number with the national do not call registry  8883821222 you must call from the phone you are registering	2009-01-27 19:36:02
17285488	3235642449	Remember cell phone s go public next month to telemarketers Call the Do Not Call registry amp add your cell phone 18883821222 RETWEET	2009-08-11 00:28:46
41485405	1784670910	RT Gage Cell phone s go public today 4 telemarketers Call 8883821222 to join the do not call registry Pls RT	2009-05-13 14:20:01
26315028	1470292909	YOU WILL BE CHARGED FOR THESE CALLS To prevent this call the following number from your cell phone 8883821222	2009-04-07 15:55:21
6709405	1784716829	RT Lemberg Gage  Cell phone s go public today 4 telemarketers Call 8883821222 to join do not call List	2009-05-13 14:26:02
36771525	2388029987	Did u know that cell phone s go public this monthNow telemarketers will be able 2 call your cell phoneCall 8883821222 from your cell	2009-06-29 14:31:35
2335571	2899186386	Cell phones go public this month put your cell  on  or 8883821222 Via  	2009-07-28 23:18:23
11684740	3179137116	Cell phone s go public this month Call 8883821222 Do Not Call List  register your cell phone for 5 years	2009-08-07 15:35:45
37512607	1784568260	RT  Cell phone s go public today 4 telemarketers Call 8883821222 to join the do not call registry Pls RT	2009-05-13 14:06:17
30545363	1357729703	Call the National NoCellphoneSolicitation Hotline 8883821222 Call them type in your number and youre done	2009-03-20 01:07:58
31819694	2778106600	Dont want sales calls on yr cell call 8883821222 Do not call registry JUST SAYIN 	2009-07-22 14:00:53
39878865	3152170948	To prevent this call 8883821222 from your cell	2009-08-05 20:22:53
29060270	2021150741	REMEMBER  Cell Phone Numbers Go Public next month National do not call llst 8883821222 to avoid telemarketers	2009-06-03 21:00:36
35450980	2405088430	Cell phone numbers go public next month Call 8883821222 from cell to put on do not call list	2009-06-30 15:40:03
55768003	1061397739	Calling DoNotCall registry 8883821222	2008-12-16 20:55:21
24073798	1113909956	I just got another one  Dont you hate getting sales calls on your cell  National DO NOT CALL registry from your cell phone 8883821222	2009-01-12 20:17:22
43741385	1817856664	Dont forget telemarketers can call your cell on June 1stCall the quotDo Not Call Registryquot NowIt takes 31 days to enable 8883821222	2009-05-16 17:00:49
36528949	1960343933	Cells will be released to telemarketers to reg wdonotcall registry call 8883821222 from any phone Takes 60 seconds	2009-05-29 14:48:55
17191970	1152248325	cell phone numbers released to telemarketers today You have 30 days to call 18883821222 to get your number removed from the list	2009-01-27 15:13:37
30330479	1414969179	Tip of the week Cell phone s will be given to marketers very soon Call  8883821222 from your cell 4 Cell Do Not Call List Thanx Mom	2009-03-30 00:38:38
17773357	1924926034	Cell phone s go public next month To prevent this call the following number from your cell phone 8883821222 Natl DO NOT CALL list	2009-05-26 16:08:01
21979075	2077284190	is this true   cell phone numbers to be released to telemarketing companies To prevent this call from your cell phone 8883821222	2009-06-08 15:40:47
19620371	1281666972	DO NOT CALL cell phone s released to telemarketing co this week call following  from your cell phone to block for 5 yrs 8883821222	2009-03-05 03:04:13
39803283	3253104333	    To block your number from being given call 18883821222 its quick n easy	2009-08-11 22:06:25
13158171	1173864224	RT  RT  Carriers start selling UR cellphone s 2 telemarketers 2day Use UR phone 2 call 8883821222 DO NOT CALL 	2009-02-03 19:16:48
36053048	1556801088	getting junk phone calls put your phone numbers on the national do not call list  8883821222 it only takes a minute	2009-04-19 07:24:42
20184096	1131788095	Law chgdNow telemarketers can call ur Cell Ph unless u get on no call listU must call from cellph you want blockedCall18883821222 RT	2009-01-19 23:50:00
421619	1173822996	RT  Carriers start selling your cell  to telemarketers today Call 8883821222 DO NOT CALL registry Pass it on	2009-02-03 19:02:46
17262637	1982608546	Make sure you call the National Do Not Call Registry at 8883821222 to add your name and prevent telemarketer harassment  It takes 20	2009-05-31 18:32:56
5947966	2137368117	RT Barton registering my cell phone  on the new national DO NOT CALL list  cell spamming is legal soon  do it now  8883821222	2009-06-12 22:04:13
19637093	1356130394	To prevent this call the following number from your cell phone 8883821222	2009-03-19 19:18:41
12634204	3133286403	RT   Tip Call 8883821222 from your cell phone amp add it to the Do Not Call Registry	2009-08-04 22:32:19
29021299	2108224479	Cell Phone Numbers Go Public this month To prevent marketing calls call 8883821222 call from the cell number you want blocked	2009-06-10 20:56:06
7422726	943615058	Do not call registry 8883821222  cell s go public so be sure to block	2008-10-02 18:15:18
19341881	1173839106	RT  Carriers start selling your cellphone s to telemarketers today Use your phone 2 call 8883821222 DO NOT CALL registry	2009-02-03 19:08:17
32788421	1501894213	Prevent your cell phone number being released to telemarket companies Call 18883821222 from your cell phoneremoves your  for 5 yrs	2009-04-12 07:27:12
6510244	1939135159	Dont let telemarketers get your Cell Phone starting June  Do not Call List Register 8883821222	2009-05-27 19:59:42
8240968	1835936290	RT  Cell phone s go public next month 8883821222 to be put on Do Not Call list via 	2009-05-18 14:03:02
55654573	1173821927	RT Carriers start selling your cellphone s to telemarketers today Use your phone 2 call 8883821222 DO NOT CALL registry 	2009-02-03 19:02:24
12179609	1234140266	Today cell phones go publicTo prevent calls from telemarketing companies call the National Do Not Call List 8883821222	2009-02-21 13:52:42
27709302	1219288547	Just registered my cell on the DNC list because I kept getting your cars warranty has expired calls Register yours 18883821222	2009-02-17 15:53:55
24494476	1139901087	Call the National Do Not Call list at 8883821222 to block your number from sales calls for five years	2009-01-22 19:21:06
10214681	1768453360	RT  call 8883821222 from your cell phone to get on the do not call list cell numbers go public next month you will get tele	2009-05-12 00:23:06
10353091	1173844182	RT Carriers start selling your cell  to telemarketers today Call 8883821222 DO NOT CALL registry Pass it on	2009-02-03 19:10:04
34855682	3226978855	YOU WILL BE CHARGED FOR THESE CALLSTo prevent this call this number from your cell phone18883821222 It is the National DO NOT CALL	2009-08-10 15:52:24
27050509	1993434523	 Thank you for calling 8883821222 We lied You will be charged 6350 for this call We appreciate your stupidity	2009-06-01 17:22:16
16755077	3105764637	PSA Cell phone 8217s go public this month amp are being released 2 telemarketers Call the Nat8217l Do Not Call List from your cell 8883821222	2009-08-03 15:27:34
55839225	1252225678	 Thanks for the National Do Not Call Registry number for cell phones 8883821222	2009-02-26 03:37:17
18718395	2300903998	RT  DO NOT CALL List  for cell phones 18883821222 Thx We have DNC amp DNE built into REST	2009-06-23 21:44:36
55982850	1122070904	FTC National  Not Call Registry NOW OPEN Stop Phone Spam Just call this number 8883821222	2009-01-15 21:39:00
22125796	1699237030	Dont want telemarketors calling your phone Call 8883821222 and follow the instructions you hear Just did my cell phone 	2009-05-04 20:38:21
15335714	1166139452	Everyone call this  8883821222 from your cell	2009-02-01 04:24:49
23473030	1204720329	RT  Cell s release to telemarketers tomorrowto prevent call 8883821222 from your cell phone I did  it was easy	2009-02-13 00:27:12
31497746	1571775570	RT  Cell Phone Numbers Go Public next month Call 18883821222 from your cell phone to get on DO Not Call List	2009-04-21 03:01:10
23273794	1784497529	RT Gage Cell phone s go public today 4 telemarketers Call 8883821222 to join the do not call registry Pls RT	2009-05-13 13:58:19
6077929	920483608	 They can now SPAM cell phones Call the do not call number 18883821222 from your cell phone and opt out That should do it	2008-09-13 22:10:13
21402865	1595823285	RT  ACTION  Do this today US mobile phones Call 18883821222 Restrict Telemarketing calls  to your cell phone donotcallgov	2009-04-23 17:15:04
7494749	824648439	last week cell phone numbers became public domain block sales calls before they start FTC donotcall registry 8883821222	2008-06-01 15:43:06
39023171	2875712753	Cell phone s go public next monthCall the following  number from your cell phone  8883821222It is the National DO NOT CALL list	2009-07-27 19:22:57
40395847	2336791090	Remember tweeps cellmobile numbers will be accessible to telemarketers by the end of the month Do Not Call List 18883821222	2009-06-26 01:22:42
32734005	2655447773	To prevent this call the following number from your cell phone 8883821222 It blocks your number for five 5 years	2009-07-15 18:33:20
46214531	2536692594	turnon Call the following number from your cell phone 8883821222 It is the National DO NOT CALL Cell list  iPhone   ATampT tilaarmy	2009-07-08 18:39:31
55751338	1102394989	Retweeting  Signed up for Natl Do Not Call cell phone list  8883821222  Must call from cell phone takes about 20 secs	2009-01-07 18:04:40
21376523	1340318608	The Fed gov created the national registry to make it easier  for you to stop getting telemarketing calls call tollfree 18883821222	2009-03-17 03:32:48
52573919	908714769	after searching I found the number for the NTNL DO NOT CALL registry  8883821222  thought it might help	2008-09-03 23:59:28
17600730	3236133795	RT  Remembr cell s go public next month 2 telemarketers Call the quotDo Not Callquot registry amp add ur cell  18883821222 RETWEET	2009-08-11 00:56:55
5474718	1173843489	RT RT Cell s sold to telemarketers 2day Must use your phone to call 8883821222 DO NOT CALL registry	2009-02-03 19:09:50
55846389	948743685	Cell numbers just went publicTo block your cell phone number to telemarketers call 8883821222 wwwdonotcallgov	2008-10-06 20:32:41
36817099	1587072956	Cell  numbers about to go publicBlock telemarketers call from cell to be blocked only 18883821222 only way to prevent paying for calls	2009-04-22 18:47:36
41776456	1757688869	RT StirFryeDesignCell phn s go public nxt month Register on Natl Do Not Call Directory Call 8883821222 from your cell phone	2009-05-10 22:01:30
90585	2570392876	To stop unsolicited cell phone calls call the National Do Not Call Line Registry 8883821222 You must call from your cell phone	2009-07-10 16:40:16
20695544	1181230645	RT All cell phone s are being released to telemarketing companies tomorrow Natl DONOTCALL list 8883821222	2009-02-05 22:10:42
45439231	1932872886	8883821222 is also the number of the Do Not Call list  Number spoofing  	2009-05-27 05:25:18
46963332	2617659386	get on the do not call list for telemarketers call 8883821222	2009-07-13 17:53:12
4793396	2540109987	REMEMBER Cell Phone s Go Public this month To prevent this call from your cell phone the National DONOTCALL list 8883821222	2009-07-08 22:28:54
46214531	2536793627	turnon Call the following number from your cell phone8883821222It is the National DO NOT CALL Cell list iPhone ATampT tilaarmy it works	2009-07-08 18:46:17
14863605	1278656535	Productivity tip Register your cell phone with the DO NOT CALL register today 8883821222 it takes 20 seconds	2009-03-04 14:32:14
26478701	2881134585	All cell phone numbers are being released to telemarketing companies next month and you will start to receive sales calls Call 8883821222	2009-07-28 01:00:33
11807802	1138147364	You can register online at donotcallgov or call 8883821222 from the 	2009-01-22 03:28:20
28186282	1757480220	RT  Cell Phone Numbers Go Public next month Register on National Do Not Call Directory Call 8883821222 from your cell phone	2009-05-10 21:31:08
49755811	2410268338	REMEMBER Cell s Went Public Feb 4 amp have been released 2 telmktg cmpnys 2 avoid sales calls call this from ur cell phone 8883821222	2009-06-30 21:48:44
14331423	1691585439	RT  Cell Phone Numbers Go Public this week To prevent thiscall the Natl DO NOT CALL list from your cell 8883821222	2009-05-04 01:10:44
10883588	2271099879	The National No Call List phone number is 18883821222 I just registered Is you gonna	2009-06-21 22:57:29
38216989	1534221555	 all cell  are being released tofrom your cell 18883821222	2009-04-16 15:09:54
35438356	1774347482	TELEMARKETS GET CELL PHONE NUMBERS To prevent this call the following number from your cell phone  18883821222	2009-05-12 15:35:35
6361557	1161882137	No one likes marketing cell calls 18883821222 for the do not call list Hope thats also do not text list 	2009-01-30 15:28:01
27716024	1695872886	RT  FYI peeps Cell phone numbers go public this week To prevent this call 8883821222 or wwwdonotcallgov	2009-05-04 14:07:59
16096493	1159270062	Cell Phone Numbers Go Public today To prevent this call the following number from your cell phone 8883821222	2009-01-29 18:40:50
28414545	2568746164	RT  Cell phone numbers go public next month so call 8883821222 to get on the do not call list	2009-07-10 14:32:55
42623089	2312801197	Cell Phone s go public next month 2 prevent this call the following number from your cell phone  NATIONAL DO NOT CALL LIST 8883821222	2009-06-24 16:49:39
52004098	1105618801	RT  RT  Cell numbers go public tomorrow register your number on the do not call list 8883821222	2009-01-09 00:23:33
13306703	1836532780	Found out today that cell phone Will recieve calls from telemarketers next month 8883821222 do not call list 	2009-05-18 15:09:56
2797278	824729146	Retweet   last week cell s became public domain block sales calls now FTC donotcall registry 8883821222	2008-06-01 18:34:06
14818412	1784471367	Cell phone s go public today 4 telemarketers Call 8883821222 to join the do not call registry Pls RT R U Serious	2009-05-13 13:55:12
5409547	803854452	8 days until tmarketers can call your cell Do Not Call registry number  8883821222 call from your cell Takes 30 sec	2008-05-05 13:35:08
28153854	1528023030	CALL 8883821222 NATIONAL DO NOT CALL LIST  TO BLOCK YR CELL PHONE FOR 5 YEARS FRM TELEMARKETERS GOING LIVE NEXT MONTH	2009-04-15 20:19:55
21655249	1124033298	cell  go public today ullbe charged for sales call18883821222  regist ur  on DO NOT CALL LIST 	2009-01-16 16:20:04
13329631	1836423271	RT  RT  Cell Phone Numbers Go Public next month  Nat DO NOT CALL  8883821222 Register your phone today	2009-05-18 14:58:23
20106611	1342268567	National Do Not Call list 8883821222 Call to keep your cell phone mostly telemarketer free	2009-03-17 14:18:08
15008304	2646181605	cell phone  8883821222 8232It is the National DO NOT CALL list  It w It blocks your number for five 5 years	2009-07-15 05:07:03
10229275	1029592049	CELL PH s going public To prevent sales calls register at the following number from your cell phone   8883821222	2008-11-29 17:29:19
35111528	3232055531	Participate in the national nocall regtistry by going online to wwwdonotcallgov or by calling 18883821222	2009-08-10 20:53:09
2921411	1116158593	register your cellphone for Do Not Call List to avoid telemarketers cellphone s soon to be released into wild Call 8883821222	2009-01-13 17:47:50
9485539	1571889369	RT  Cell Phone Numbers Go Public next month Call 18883821222 from your cell phone to get on DO Not Call List Thx Jerry	2009-04-21 03:15:28
32836971	3557732809	ALERT ALL cell numbers released to telemarketers  to prevent unwanted calls dial 8883821222 National Do Not Call Registry from phone	2009-08-26 15:02:30
20449439	1142784790	8883821222 National Do Not Bug The Crap Out Of Me Telemarketers List  Today cell numbers go public so get his done	2009-01-23 19:26:19
38627535	916830251	Retweeting  all cell phone numbers are being released to telemarketing companies tomorrow to register donotcall  8883821222	2008-09-10 20:09:51
19980346	1121443738	TODAY YOUR CELL PHONE GOES PUBLIC CALL 8883821222 FROM YOUR CELL TO GET IT BLOCKED  OR  	2009-01-15 17:13:43
30461171	1783794628	RT Gage Cell phone s go public today 4 telemarketers Call 8883821222 to put it on the do not call registry	2009-05-13 12:28:10
11497652	1571826323	Cell Phone Numbers Go Public next month Call 18883821222 from your cell phone to get on DO Not Call List Thanks 	2009-04-21 03:07:32
10481895	2550838358	Put cell ph on Do Not Call list Cells public this mnthampull b chrged4calls frm sls ppl Frm ur cell 8883821222 via wilson	2009-07-09 14:31:13
46906592	2187109108	Register your cell phone  so telemarketers wont call Call the National DO NOT CALL List from your cell phone at this number  8883821222	2009-06-16 02:48:12
1050779	1107217428	jan 9th cell phone s go public means telemarketers will call you and you will pay for that call call 8883821222 the do not call list	2009-01-09 17:40:29
54578380	3692242721	Cell numbers are being made public to telemarketers next month To prevent calls call the following  from your cell phone 8883821222	2009-09-01 17:09:34
52578250	2934292584	cell phone number will be released to telemarkers August 1st keep your number off the list by calling this number 8883821222	2009-07-30 17:44:10
21630804	1279863414	Telemarketers can call cells now Call this number to prevent this 8883821222 for the the National DO NOT CALL list Its legit	2009-03-04 19:14:21
9575984	977582630	Cell Numbers Go Public TODAY Register your phones with National Do Not Call list at 8883821222 or go to 	2008-10-27 16:06:26
9767158	1180925109	RT  Cell Phone Numbers Go Public next month To prevent this call the following number from your cell phone 8883821222	2009-02-05 20:31:05
37832422	1964898449	CELL PHONE NUMBERS GO PUBLIC NEXT MONTH  CALL 18883821222 IF YOU NOT WANT TO BE LISTED I DID	2009-05-29 21:59:34
17355226	1613677846	 tell them u will report them Here is the number to register ur home and or cell phone 18883821222	2009-04-25 16:28:41
21031171	2137916707	Registering my cell phone  on the new national DO NOT CALL list  cell spamming is legal soon  do it now  8883821222 via Barton	2009-06-12 22:54:30
25449384	1376380142	If you are getting bombarded with solicitation calls8230make sure you are on the Do Not Call Registry Call 18883821222	2009-03-23 16:34:19
36737924	1464432819	Cell numbers go public this month To prevent this call 8883821222 from your cell phone Its the National DO NOT CALL list	2009-04-06 18:25:58
12013927	943446251	tweet everyone you know  cell numbers go public today To prevent this call the following number from your cell phone 8883821222	2008-10-02 16:04:01
12811774	902152557	tired of telemarketers call 8883821222 from the phone you want registered or do it at 	2008-08-28 21:41:15
10175580	1180882653	Cell Phone Numbers Go Public next month To prevent this call the following number from your cell phone 8883821222	2009-02-05 20:16:51
2101601	966778642	Just heard on radio that cell phone s are being made public for telemarketing Call 8883821222 from cell to add your cell to Do Not Call	2008-10-20 00:22:59
44474222	2800831850	RT  via   Call 8883821222 from cell amp add 2 the quotDo Not Call Registryquot mobiles R being opened 2 telemark	2009-07-23 16:26:01
17320213	1691060784	RT    Cell Phone Numbers Go Public this week To prevent call the Natl DO NOT CALL list from your cell 8883821222	2009-05-04 00:00:18
26713691	1259036596	CELL PHONES are being released to telemarketers soon To prevent this call the following number from your cell phone8883821222	2009-02-27 18:09:00
33433331	2069302974	all cell phone numbers are being released to telemarketing companies to prevent call 8883821222 the National Do Not Call List	2009-06-07 22:37:49
44083808	1849732420	To prevent telemarketing companies from calling your cell phone  for 5 years call this  number 8883821222  EMC	2009-05-19 18:01:01
15329345	1149720518	Parents  Cell phone s go public Feb 2009  Call the Do Not Call Registry from your cell to have your cell phone  blocked  8883821222	2009-01-26 18:18:24
35151665	3388954571	18883821222 is the number to block tellemarketers from your cell phone they go public this month	2009-08-18 19:38:11
5841010	2918446228	Tired of telemarketers Fright back 18883821222 to block the calls go to wwwdonotcallgov to report and killthecallscom to sue them	2009-07-29 22:41:28
11073417	2137003369	registering my cell phone  on the new national DO NOT CALL list cell spamming is legal soon do it now  8883821222 via Barton	2009-06-12 21:32:02
41102683	2558389310	 want to stop the telemarketers call 8883821222	2009-07-09 23:00:44
35557948	1866051414	CELL PHONE NUMBERS GO PUBLIC PROTECT YOUR SANITY CALL THE DO NOT CALL LIST  8883821222 EASY BREEZY LEMON SQUEEZY	2009-05-21 01:29:06
55682857	2800905074	RT  Tip Call 8883821222 from your cell amp add it to the quotDo Not Call Registryquot cell banks are being opened to telemarketing Aug09	2009-07-23 16:30:22
21659681	2306013090	Cell phone numbers go public next monthTo prevent this call the following number from your cell phone 8883821222	2009-06-24 04:39:07
18808050	2550559301	Put cell ph on Do Not Call list going public this month and ull b chrged 4 calls frm sls people From your cell phone call 8883821222	2009-07-09 14:10:43
25449384	1258274632	Happy Friday Are solicitors phone calls driving you crazy Call 18883821222 and put your number on the National Do Not Call List	2009-02-27 14:56:46
11886194	1049658424	just registered my cell phone with the do not call registry call 8883821222 to register your phone cell phone s go public next month	2008-12-10 18:31:25
26030161	2932954930	Call the following number from your cell phone 8883821222 to remove your number off telemarketers list  you will pay for these calls	2009-07-30 16:31:26
34634800	3185918082	National DoNotCall Registry for home and cell  18883821222   Do it NOW	2009-08-08 00:20:13
34775025	2496679461	Cell phone users call 8883821222 from your cell to avoid cell phone telemarketing calls which are now allowed  Stop the insanity	2009-07-06 13:20:48
14854627	1149601361	Jodios telemarketers ya est225n jodiendo hasta en los cellphones Si est225n en NY registren su celular pa que no los jodan 18883821222	2009-01-26 17:33:47
30481897	1491164649	Cell phone numbers go public soon to telemarketers You will be charged for those calls Call 18883821222 to get on the Do Not Call list	2009-04-10 16:01:05
7100797	1993081229	this month cell s go public amp telemarketers will be calling and u will be charged To prevent this call 8883821222 from ur cell phone	2009-06-01 16:48:04
35102149	2291002385	To add your phone numbers to the Do Not Call Registry call 8883821222	2009-06-23 06:00:28
19444790	1264763993	Next month cell phone s are going public and to get telecommunications people from calling your cell phone call 18883821222	2009-03-01 07:00:05
10521499	1183415707	You can be charged when Telemarketers call youso get yourself on the listpass the number on please8883821222  DO NOT CALL celllist	2009-02-06 15:23:22
9566865	1102650407	RT  cell phone numbers being released to telemarketing companies today To protect yours call 8883821222 from cell Pass along	2009-01-07 20:01:48
43562936	2097872756	sorry the  is 8883821222	2009-06-10 02:07:12
6922538	1184098553	 Yes there is8883821222  must call from your cell phone so it can capture the number to add to the list  Good Luck	2009-02-06 18:56:53
55663899	1142115708	Call 8883821222 to put ur cell phone on the do not call list	2009-01-23 15:12:51
20668591	1939228231	RT  Dont let telemarketers get your Cell Phone starting June  Do not Call List Register 8883821222	2009-05-27 20:10:49
13762382	3522294210	RT Cell numbers go public this monthTo prevent this call this number from your cell phone 8883821222 The National DO NOT CALL list	2009-08-24 22:55:21
23446967	1185299581	cell phone s go pub this mnth s to be released you will start to rec sales calls amp pay 4 them call 8883821222 for dont call list	2009-02-07 02:31:18
25628862	1207436419	 Supposedly to prevent telemarketers call the following number from your cellampgt phoneampgt 8883821222  Havent tried yet	2009-02-13 19:12:41
14097392	3454059774	RT  mobile numbers go public next month block yours now 8883821222 and no my account is not hacked this is Elle	2009-08-21 17:28:08
11633164	1173821373	RT  Carriers start selling yr cellphone s 2 telemarketers 2day Use yr phn 2 call 8883821222 dont CALL registry Pass it on	2009-02-03 19:02:13
7544776	1662306133	Cell Phone s released next month  Call Do Not Call Center  8883821222	2009-04-30 20:04:42
42080949	1786538144	Cell Phone Numbers Go Public Next Month  To GET OFF their list call from your cell phone 18883821222 I just didphew	2009-05-13 17:36:02
3382160	1784465742	RT  Gage Cell phn s go public 2day 4 telemarketers Call 8883821222 2 put it on the do not call registry Pls RT	2009-05-13 13:54:35
25552181	1163738747	REMINDERCell phone numbers are being released to telemarketing companiesYou will be charged STOP calls8883821222 from cell phone	2009-01-31 03:58:06
17408746	1784495375	RT Gage Cell phone s go public today 4 telemarketers Call 8883821222 to join the do not call registry	2009-05-13 13:58:04
18234321	1102643359	Retweeting  cell phone numbers are being released to telemarketing companies today To protect yours call 8883821222 from you 	2009-01-07 19:58:42
36765165	2018432276	Just got an Email CELLs GOIN PUBLICTo prevent this call the following number from your cell phone 8883821222	2009-06-03 16:57:33
33493992	2738676259	Add your phone number to the national do not call list  Call 18883821222  My mother emailed me about it	2009-07-20 13:43:27
6866016	1783875058	rt Gage Cell phone s go public today 4 telemarketers Call 8883821222 from your cell phone to get on the do not call registry	2009-05-13 12:40:06
19740084	2817999338	register your cell  to prevent telemarketing calls when numbers go public next month 8883821222	2009-07-24 13:10:36
27582135	3097827387	RT  Cell Phone Numbers Go Public This Month Call 8883821222 from your phone to put your  on the Do Not Call List thanx DB	2009-08-03 03:34:18
20725118	1275105095	To avoid phone Spam reregister your phone its been 5yrs and registr your cell on DO NOT CALL LIST call from each phone 8883821222	2009-03-03 19:22:41
40015559	1204694929	RT  Cell s release to telemarketers tomorrowto prevent call 8883821222 from your cell phone	2009-02-13 00:17:28
10191596	1784426416	RT Gage Cell phone s go public today 4 telemarketers Call 8883821222 to join the do not call registry Pls RT R U Serious	2009-05-13 13:50:03
48577630	2884710835	Cell phone s go public next month Get on the do not call list 8883821222 Dont loose minutes 2 telemarketers tcot tpp spwbt	2009-07-28 04:59:02
90069	1125185356	Call the do not call list for cell phones 8883821222  you have to call from the phone you want blocked it only takes about 20 seconds	2009-01-17 01:05:22
24155124	1784182839	Cell phone s go public today 4 telemarketers  Call 8883821222 to put it on the do not call registry  Pls RT	2009-05-13 13:20:48
90520	2212952256	Called 8883821222 to keep my cell number away from telemarketers	2009-06-17 21:44:46
22000878	1810754049	nothing ruins a Friday night like a telemarketer calling your CEL PHONE Get listed on the NATIONAL DO NOT CALL LIST at 18883821222	2009-05-15 22:08:53
42420497	3465762426	phone     8883821222                                                  It is the National DO NOT CALL list It will only take a	2009-08-22 04:00:52
10662436	2513423760	cell phone s go public next month call  8883821222              It is the National DO NOT CALL list	2009-07-07 12:55:11
1220849	1173906429	RT  Carriers start selling your cellphone s to telemarketers today Use your phone 2 call 8883821222 DO NOT CALL registry	2009-02-03 19:31:10
36528949	1980842098	Cells will be released to telemarketers to reg wdonotcall registry call 8883821222 from any phone Takes 60 seconds	2009-05-31 14:48:41
29785125	2642874744	Do not call number For Cell Phones 8883821222 Cell Numbers Go Public this month Cell numbers are being released to telemarketing	2009-07-15 01:19:55
28709327	2017900916	 Call the NATIONAL DO NOT CALL registry at 8883821222 It will block your phone for 5 years	2009-06-03 16:07:32
30367576	2099745170	Cell Phone Numbers Go Public next month To prevent this call the following number from your cell phone 8883821222 Pse RT	2009-06-10 05:01:10
24864447	2242056079	all cell  s being released to telemarketing companies amp u will start to receive sales calls to prevent call 8883821222 from your cell	2009-06-19 18:42:48
29791630	1787435834	Do not call registry 18883821222 Cell phones can be called so block your 	2009-05-13 20:00:22
11059080	2135529592	 If it still works the quotDo Not Callquot Hotline  is 18883821222  List yourself amp they cant call you  I dont get calls	2009-06-12 19:30:10
55819768	667229402	Get your cell phone off the spam list This is the remove number to call 18883821222 or wwwdonotcallgov call from the phone itself	2008-02-01 18:35:17
34267812	1633142358	Cell phone numbers go public today which means more annoying sales calls Call 8883821222 to have ur number blocked	2009-04-27 22:11:23
19372482	3306917757	register your cellphone on the DoNotCall list 8883821222 Next month cell phones will become public to telemarketers I JUST DID IT	2009-08-14 12:58:19
1272344	1102642274	RT  cell phone numbers are being released to telemarketing companies today To protect yours call 8883821222 from your cell	2009-01-07 19:58:10
34039508	2191691174	8883821222 It is the National DO NOT CALL listIt will only take a minute of your time It blocks your number for five 5 years Do it	2009-06-16 12:47:15
16370183	1125775270	Call the do not call list for cell phones 8883821222  call from the phone you want blocked it takes about 20 seconds Soon telemarket 	2009-01-17 07:34:14
16218091	2339324878	RT  cells released to telemarketers next month to prevent 8883821222 from ur mobile its legit takes 15secs amp safe for 5yrs	2009-06-26 04:38:54
22320016	1599816416	Register ur cell fone w the natl Do Not Call list  8883821222	2009-04-24 01:42:19
37881080	1798739324	call this number if you dont want telemarketing calls on your phone  honestly do this 8883821222	2009-05-14 20:39:55
25831913	1784756473	 Thank you for the heads up  Cell phone s go public today 4 telemarketers Call 8883821222 to join do not call List	2009-05-13 14:31:11
44990657	2216328085	8883821222 is the National DO NOT CALL list for your cell phone Numbers Go Public next month n r being released to telemarketers	2009-06-18 02:20:18
7475629	903299908	Tomorrow all cell phone numbers become public domain so get yours on the DO NOT CALL list 8883821222	2008-08-29 19:48:57
25827198	2334519979	cell s being released to telemarketing cos YOU WILL BE CHARGED FOR sales CALLS To prevent this call 8883821222 from your cell phone	2009-06-25 23:08:36
21805179	1981014066	RT  Cells wb released to telemarketers  Reg wdonotcall registry call 8883821222 from any phone Takes 60 seconds	2009-05-31 15:12:55
15600174	2506510294	want to block telemarketers from your cell phone  register your number by calling 8883821222  Numbers go public this month	2009-07-07 01:25:10
21417876	2024676727	Call this number to stop telemarket calls on cell phone 8883821222	2009-06-04 02:38:39
23335083	1703518078	FYI Telemarkting cos can call cellphones and UR charged when they call8883821222 NATIONAL DO NOT CALL list blocks UR no for 5 yrs	2009-05-05 05:11:23
30592460	1576582499	Get on the Do Not Call list now before all cell phone s are released to telemarketers  8883821222 it takes 2 seconds	2009-04-21 17:09:08
12932855	2081448911	Starting next month all cell phone s will be go public  To prevent telemarketers call  18883821222 it will put you on the DNC list	2009-06-08 21:25:22
8390280	2156990086	If youre in the US call 8883821222 to get on the ntl DO NOT CALL list Im sick of telemarketers ampgt	2009-06-13 19:46:00
21569478	1451272387	In a few days cel phones will be listed and you will get many calls Call 18883821222 to register your phone on a do not call list	2009-04-04 12:50:36
5160766	1595704975	RT  ACTION   US mobile phones Call 18883821222 Take 30 sec to restrict Telemarketing calls  to your mobile donotcallgov	2009-04-23 16:58:29
20708978	1173822632	RT  Carriers start selling your cellphone s to telemarketers today Use your phone 2 call 8883821222 DO NOT CALL registry	2009-02-03 19:02:39
3267648	1784482886	RT Gage Cell phone s go public today 4 telemarketers Call 8883821222 to join do not call registry Pls RT	2009-05-13 13:56:37
55935979	2004384691	RT  Reminder all cell s will b released to telemarketers in 1 mo to prevent calls register 4 DO NOT CALL list 8883821222	2009-06-02 15:07:06
10722776	867354989	To prevent this call 8883821222 or go to wwwdonotcallgov	2008-07-24 18:27:46
29172959	2330041326	Call 8883821222 from your cell phone its the do not call telemarketers phone list  gotta call from ur cell	2009-06-25 18:29:29
20014697	1797767341	RT  National Do Not Call Number 4 cell phones is 8883821222 Cell phone numbers go public soon Spread the word	2009-05-14 18:43:13
34596669	2303917059	PLEASE RT  Stop unwanted telemarketing calls to your cell phone by going to wwwdonotcallgov or call 8883821222	2009-06-24 01:49:20
5386751	1835968091	RT  kbmarketeer Cell Phone Numbers Go Public next month  Nat DO NOT CALL  8883821222 Register your phone today	2009-05-18 14:06:49
17761396	1340434712	go to  to register all of your s home amp cells or call 8883821222	2009-03-17 04:01:41
12828953	2095076327	Cell phone numbers are being released to telemarketing companies To prevent extra charges call from your cell phone 8883821222	2009-06-09 21:57:22
9945434	2120865715	No Call List 4 Cell Phones 8883821222 follow promptsit keeps u off the telemarketing radar for 5 years 	2009-06-11 19:21:24
35634157	1697451287	Call 8883821222It is the National DO NOT CALL listYou must call  from the cell you want to have blockedWont receive sales calls again	2009-05-04 17:15:57
55690481	1962005929	Tired of telemarketing calls to your cell phone call 8883821222 from your cell and register it with the Do Not Call List	2009-05-29 17:22:37
9243810	1105602909	RT  Cell numbers go public tomorrow register your number on the do not call list 8883821222	2009-01-09 00:14:43
25120625	1575372076	I HATE ph spam And all cell ph s go public next mo  spam ur billed for Call 8883821222 to get on do not call list Takes 20 sec	2009-04-21 14:41:40
38898877	1805263676	Dont forget telemarketers on June 1st can call your cell Call the Do Not Call Registry today 8883821222 It takes 31 days to enable	2009-05-15 12:02:59
32962112	2538303881	REMEMBER Cell Phone s Go Public this month To prevent this call from your cell phone the National DONOTCALL list 8883821222	2009-07-08 20:26:07
763250	1161855228	Starting next month cell numbers are going to be public domain Register on the do not call list 18883821222	2009-01-30 15:18:28
21380087	1939478842	RT  Dont let telemarketers get your Cell Phone starting June  Do not Call List Register 8883821222	2009-05-27 20:40:46
55983528	1875962514	Just called 8883821222 with cellphone to add number to the national do not call list for 5yrs	2009-05-21 22:17:32
20074855	1015467489	Put you cellphone on do not call 8883821222 Marketers can start calling today	2008-11-20 22:02:44
44004411	2713603161	Block Telemarketers  call this number 8883821222 For more info go to  This really worked  i called	2009-07-18 23:50:43
36528949	1947857053	Cells will be released to telemarketers to reg wdonotcall registry call 8883821222 from any phone Takes 60 seconds	2009-05-28 14:49:23
26524650	1784655581	RT Lemberg Gage Cell phone s go public today 4 telemarketers Call 8883821222 to join do not call registry Pls RT	2009-05-13 14:17:57
9116084	1866573464	RT  CELL PHONE NUMBERS GO PUBLIC PROTECT YOUR SANITY CALL THE DO NOT CALL LIST  8883821222 EASY BREEZY LEMON SQUEEZY	2009-05-21 02:13:29
38938504	2839581632	Cell phone numbers might be released to telemarketers National Do Not Call List 8883821222 Call from the phone you want to remove Eric	2009-07-25 16:59:39
11633932	1959715081	Cell Phone Numbers Go Public next month  To prevent telemarketingsales callsdial 8883821222 from your cell phone	2009-05-29 13:46:13
32131052	1953257914	Fail  numbers are not going public  urban myth RT  RT  Cell Phone Numbers Go Public next month Must call 8883821222	2009-05-28 23:33:16
5154345	1571678756	Cell Phone Numbers Go Public next month Call 18883821222 from your cell phone to get on DO Not Call List Just did it and it took 15 sec	2009-04-21 02:48:54
55836672	1204634706	Just found out cell s release to telemarketers tomorrowto prevent call 8883821222 from your cell phone I just did  it was easy	2009-02-12 23:55:08
21300923	1571609423	RT  Cell Phone s Go Public next month Call 18883821222 from ur cell to get on DO Not Call List Just did it amp it took 15 sec	2009-04-21 02:40:10
9193617	1738181252	Marketers can call cell phones soon Call 8883821222 from your cell to get on the do not call list	2009-05-08 15:00:19
16293225	2026030245	Shaw  18883821222 Good for 5 years wwwdonotcallgov is web site	2009-06-04 05:03:17
13503288	1383015950	To make sure u do not get telemarketing calls on ur cell phone call 18883821222 from ur cell and register ur numberits good for 5 yrs	2009-03-24 17:51:34
55018338	1493278537	RT  Cell numbers go public soon to telemarketers You will be charged Call 18883821222 to get on the Do Not Call list	2009-04-10 21:41:06
24403411	1572525125	RT  Cell Phone Numbers Go Public next month Call 18883821222 from your cell phone to get on DO Not Call List	2009-04-21 04:45:51
22624295	2287359139	Cell Phone s available to telemarketers next month Remember to call the Do Not Call List if you dont want the calls 8883821222 	2009-06-23 00:42:48
13827142	2326725234	RT  Nonfashion recommendation 4the day Telemarketers gt ur cell next week amp u have 2pay Natl do not call list 8883821222	2009-06-25 14:25:42
3851086	992259406	In US cell s going public todaycall from your cell  18883821222 to block your phonetakes 20 seconds	2008-11-05 20:36:48
25182892	2854245193	Cell Phone Numbers Go Public this month Call the National Do Not Call List from your cell to block yours 8883821222 RT 	2009-07-26 15:36:01
39249902	2626174965	Cell phone s r going public this month From your cell phone important call 8883821222 to get on the do not call list Takes 30 secs	2009-07-14 03:29:09
30913024	2137193131	Cell phone s go public in a month get ur phone on the do not call list to stop telemarketersANNOYING do not call list 8883821222	2009-06-12 21:48:42
10665060	1203362858	Cell phone numbers being released to telemarketers this month  Prevent yours by calling 18883821222 National Do Not Call List	2009-02-12 17:34:04
6284527	1173829022	RT  Carriers start selling your cellphone s to telemarketers today Use your phone 2 call 8883821222 DO NOT CALL registry	2009-02-03 19:04:50
6181089	1389400226	Cell phone numbers going public next month Telemarketers will be calling and you get charged for call get on DO NOT CALL LIST 8883821222	2009-03-25 18:10:48
28709327	2017928621	 Call the NATIONAL DO NOT CALL registry at 8883821222 It will block your cell phone for 5 years	2009-06-03 16:10:07
15012264	1595766243	RT  ACTION  Do this today US mobile phones Call 18883821222 Restrict Telemarketing calls  to your cell phone donotcallgov	2009-04-23 17:06:53
37902703	1619715918	Fwd The National Dont Call List 8883821222	2009-04-26 10:24:44
31188484	1953119396	Cell Phone Numbers Go Public next month Must call 8883821222 from phone National DO NOT CALL list	2009-05-28 23:18:47
32709925	1472509036	Telemarketers already calling cell phone need to call 8883821222 to get on the DO NOT CALL registry	2009-04-07 22:22:46
20108977	1571808721	Good reminder RT  Cell Phone Numbers Go Public next month Call 18883821222 from your cell phone to get on DO Not Call List	2009-04-21 03:05:17
10226852	1022822032	National Do Not Call registry for cellphones 18883821222 Stop those telemarketers from calling you  wwwdonotcallgovdefaultaspx	2008-11-25 15:30:57
35450980	2106351350	Cell phone numbers go public next month Call from cell to 8883821222 to FTC to prevent	2009-06-10 18:14:59
409224	2153783396	RT  Cell phone numbers go public next month Add yours to the Do Not Call Registry 8883821222	2009-06-13 14:04:06
6454434	1173832612	RT  Carriers start selling your cellphone s to telemarketers today Use your phone 2 call 8883821222 DO NOT CALL registry	2009-02-03 19:06:03
14919879	984035009	Remember cell phones go public today To block 8883821222	2008-10-31 16:50:30
31199043	1854572239	BTW Cell phone s go public next month 8883821222 to be put on Do Not Call list	2009-05-20 02:04:52
50935940	2550326872	Cell Phone s Go Public this month to Telemarketers Youll Be Charged To Prevent call 8883821222 Its the NATIONAL DO NOT CALL list	2009-07-09 13:53:05
23335083	1698121036	Telemarkting cos can now call cellphones and UR charged when they call8883821222 NATIONAL DO NOT CALL list blocks UR no for 5 yrs	2009-05-04 18:32:35
32268151	2326591984	Nonfashion recommendation 4 the day Telemarketers get your cell  next week amp you have to pay National do not call list 18883821222	2009-06-25 14:14:58
26923131	1939229679	RT MattWilsontv Dont let telemarketers get your Cell Phone starting June Do not Call List Register 8883821222	2009-05-27 20:10:59
26710189	3139642941	Already getting automated telemarking calls on my cell phone due to law changejust called 8883821222 to be added to DoNotCall list	2009-08-05 04:50:55
18302244	2388348351	Do Not Call Registry 8883821222 Call from the phone you want to have enlisted Block telemarketers for 5 years	2009-06-29 14:57:35
15479101	1149722816	Cell phone s go public Feb 2009 Call the Do Not Call Registry from your cell phone to have your cell phone  blocked 8883821222	2009-01-26 18:19:16
14561052	1788149974	RT SheilaAtwoodCell phone s go public today 4 telemarketers Call 8883821222 to put it on the do not call registry Pls R	2009-05-13 21:16:27
25420548	2625720081	Cell phone s r going public this month From your cell phone important call 8883821222 to get on the do not call list Takes 30 secs	2009-07-14 02:57:18
15421096	1808971536	Cell Phone Numbers Go Public next month Call the following  number from your cell phone to prevent telemarketers 8883821222	2009-05-15 18:51:37
43672155	2018642386	 REMEMBER Cells go public YOU WILL BE CHARGED FOR THESE CALLS To prevent  call phone 8883821222 IT ONLY TAKES A FEW MIN	2009-06-03 17:17:01
23388673	1883582471	Cell phone numbers go public next month Call the Nat Do Not Call list today  8883821222	2009-05-22 15:46:55
22867921	2765582092	Prevent telemkting companies from calling your cell phone Call National DO NOT CALL list 8883821222 Takes 1 minblocks your  for 5 yrs	2009-07-21 21:41:52
30479594	3199961150	HEADS UP Cell s being released 2 telemrktng cos Call Natl DO NOT CALL LIST 8883821222 from ur cell 2 block calls U pay if they call u	2009-08-09 00:28:55
9055200	948754177	Cell numbers just went publicTo block your cell phone number to telemarketers call 8883821222 wwwdonotcallgov	2008-10-06 20:41:29
45096167	1899625884	annoying telemarketers calling your cell phone get on the do not call registry the number is tollfree 18883821222	2009-05-24 03:40:51
45489318	2312688186	Hey twitter world So I want to share some 411 weveryone This  18883821222 will prevent and stop sales amp telemarketers calls	2009-06-24 16:41:16
33758807	1419968714	A listener reminds us today to get your cell phone on the Do Not Call list  Call 8883821222 from your cell phone to do it	2009-03-30 20:21:23
55329984	1174020686	RT Carriers start selling your cellphone s to telemarketers today Use your phone 2 call 8883821222 DO NOT CALL registry	2009-02-03 20:09:54
1304432	943667575	Stop telemarketers OPT OUT by calling 8883821222 from your cell phone It is the government DO NOT CALL or OPT OUT   Good for 5 years	2008-10-02 18:58:35
6934411	1690985435	RT   Cell Phone Numbers Go Public this week To prevent thiscall the Natl DO NOT CALL list from your cell 8883821222	2009-05-03 23:49:59
2483395	957905631	Blocking telemarketers  mobile and home 8883821222  	2008-10-13 17:41:31
21007709	1784414753	Cell phone s go public today 4 telemarketers Call 8883821222 to join the do not call registry Pls RT	2009-05-13 13:48:39
44611388	1937625202	Call this  from ur cell to be on the do not call list for 5 years 8883821222	2009-05-27 17:05:30
36297426	1571690290	RT   Cell Phone Numbers Go Public next month Call 18883821222 from your cell phone to get on DO Not Call List	2009-04-21 02:50:20
29076006	2047319562	Call 8883821222 to register your phone so you DONT get calls from telemarketers cuz all cell s are going public p	2009-06-05 20:28:35
14166414	1783739356	RT Gage Cell phone s go public today 4 telemarketers  Call 8883821222 to put it on the do not call registry  Pls RT	2009-05-13 12:19:27
21313567	1108054367	Telemarketers get your cell phone today  Natl Do Not Registry  is 8883821222  Call from your cell	2009-01-10 00:19:19
25218421	1722133876	RT  To stop your Cell Phone Number from Going Public next month call 8883821222 for the National DO NOT CALL list	2009-05-07 00:15:06
22296549	1486309586	Do not call registry for mobile phoneshas anyone tried this yetampgt CALL THE FOLLOWING NUMBER FROM YOUR CELL PHONE 8883821222	2009-04-09 21:47:38
35445714	2058935722	All cell phone numbers go public next month  To put yours on the Do Not Call List call 18883821222  Good for 5 years	2009-06-06 22:55:24
4159484	1016569538	Today is last day to register for Natl DoNotCall list for mobile Call 8883821222 fr phone u want to block	2008-11-21 14:51:38
15247217	973182519	I just registered my cell phone with the do not call registry 8883821222 Cell numbers get released this month Takes 10 secs to register	2008-10-24 05:16:53
25198620	1709122420	To prevent this call the following number from your cell phone 8883821222 It is the National DO NOT CALL list I just did this	2009-05-05 19:29:28
33859600	3319296633	Want to be on the do not call registry  call 8883821222 and follow prompts	2009-08-15 00:45:44
34027257	3054866592	Do Not Call Registry for Cell Phones from the FTC 18883821222 	2009-07-31 17:39:05
5413986	1367188763	Dont want telemarketing calls Register online at  or call tollfree 18883821222	2009-03-21 19:48:05
44495216	1840602919	Cell phone s go public next month 8883821222 to be put on Do Not Call list	2009-05-18 22:15:40
7154441	1784509942	RT Gage Cell phone s go public today 4 telemarketers Call 8883821222 2 join the do not call registry Pls RT	2009-05-13 13:59:45
36528949	1991878276	Cells will be released to telemarketers to reg wdonotcall registry call 8883821222 from any phone Takes 60 seconds	2009-06-01 14:49:22
18686733	1028521808	Do Not Call list is here  You can also phone 1 8665803625 or 1 8883821222 from the phone you want to protect	2008-11-28 21:32:50
8645244	1571584706	RT  Cell Phone Numbers Go Public next month Call 18883821222 from your cell phone to get on DO Not Call List	2009-04-21 02:37:03
18879613	2406317534	RT  Remember  all cell phone numbers going live to telemarketers  Natl DO NOT CALL register is 8883821222 Takes 20 sec	2009-06-30 17:06:52
30563722	1783949768	RT Gage Cell phone s go public today 4 telemarketers  Call 8883821222 to put it on the do not call registry  Pls RT	2009-05-13 12:50:39
55819768	2929712241	get your cell phone number on the USFTC  DoNotCall registry to keep ads off of it 8883821222 You hafta call from your cell phone	2009-07-30 13:12:45
42173615	3095775583	YOU WILL BE CHARGED FOR THESE CALLS To prevent this call the following number from your cell phone 8883821222  A DO NOT CALL list	2009-08-03 01:21:41
5312044	1241546093	RT   Avoid telemarketing companies calling your Cell Phone Numbers call the National DO NOT CALL list 8883821222	2009-02-23 17:34:11
2593735	1568720152	RT  Remember cell phones go public next month 8883821222 to register your cell number on the nocall list	2009-04-20 20:40:43
3748586	1050499651	Cellphone numbers go public today  to  add your cell  to the do not call registry call 8883821222 Not a hoax Thwart telemarketers	2008-12-11 02:50:18
10497470	1695822766	FYI peeps Cell phone numbers go public this week To prevent this call 8883821222 or wwwdonotcallgov	2009-05-04 14:01:28
11534187	1784500232	rt Gage Cell phone s go public today 4 telemarketers Call 8883821222 from your cell phone to get on the do not call registry	2009-05-13 13:58:38
18910957	1061654606	Cell s go public 2day Call this number 8883821222  from your cell phone and register it as a do not call number	2008-12-16 23:16:20
8680398	2899263770	RT  Cell phones go public this month put your cell  on  or 8883821222 Via  	2009-07-28 23:23:34
16293225	2025161557	 Shaw 18883821222  good  4  five  years  Wwwdonotcallgov	2009-06-04 03:26:14
25775524	1204681417	Cell s release to telemarketers tomorrowto prevent call 8883821222 from your cell phone I did  it was easy via 	2009-02-13 00:12:19
20002832	1114068214	RT  avoid telemarketing calls to your cell phone you MUST CALL THIS NUMBER TODAY 8883821222 not BS I just did it	2009-01-12 21:28:31
9847036	1152005108	National Do Not Call List Now Takes Cell Phones 8883821222 ReTweet Please	2009-01-27 13:32:18
42768387	1873317645	Cells will be released to telemarketers next month to reg wdonotcall registry call 8883821222 from any phone Takes 60 seconds	2009-05-21 17:41:17
19564589	2314045881	just put  our phone s on the national do not call registry  8883821222  I really dislike telemarketers	2009-06-24 18:22:33
15715508	1114059525	To avoid telemarketing calls to your cell phone for the next year you MUST CALL THIS NUMBER TODAY 8883821222 not BS I just did it	2009-01-12 21:24:31
12563116	2800646646	RT  Call 8883821222 from cell phone amp add it to the quotDo Not Call Registryquot cell phone banks are being opened to telemarketing Aug09	2009-07-23 16:15:00
5522650	2426053216	FYI 8883821222 national Do Not Call registry Learn about it	2009-07-01 20:57:09
44535286	3199986081	RT  HEADS UP Cell s being released 2 telemrktng cos Call Natl DO NOT CALL LIST 8883821222 from ur cell 2 block calls	2009-08-09 00:31:11
1290379	1768368965	call 8883821222 from your cell phone to get on the do not call list cell numbers go public next month you will get telemarketing calls	2009-05-12 00:11:56
15500207	2678700548	Cell s public Call the National DO NOT CALL list from your cell  8883821222 This will block your number for 5 years	2009-07-16 23:52:48
6009997	1307378352	Cell numbers go public this mo to marketers amp youll be billed  call 8883821222 from your cell to register for natl Do Not Call reg	2009-03-10 21:16:38
35334213	2591970782	RT  cell ph no go public next mo call from yours to 8883821222 to block no for 5 years	2009-07-12 01:29:05
52640431	1976086013	Placing my cell phone  in the do not call registry  Marketers get to call your cell next month optout here 8883821222 Blessings	2009-05-30 23:33:18
40285162	1913209753	called the local FBI number to report register  18883821222 Fed do not call list to block home amp cell nos	2009-05-25 15:27:50
34566547	1173855246	RT  RT  Carriers start selling your cell  to telemarketers today Call 8883821222 DO NOT CALL registry Pass it on	2009-02-03 19:13:49
12653408	1571599054	RT  Phone Numbers Go Public next month Call 18883821222 from your cell phone to get on DO Not Call List takes 15 sec	2009-04-21 02:38:52
35077333	2162793038	Cells will be released to telemarketers next month to reg wdonotcall registry call 8883821222 from any phone Takes 60 seconds	2009-06-14 06:37:21
11293923	2215571279	July1cell ph nos Go Public Even if message is saved on Ur phone from Telemarketing Co U are CHARGED NoCall Registry 8883821222	2009-06-18 01:19:19
14231059	1440805184	is listening to a telemarketer leave a voice mail message time to renew at donotcallgov or call 8883821222	2009-04-02 20:42:29
17112181	1633779073	RT  Cell phone numbers go public today which means more annoying sales calls Call 8883821222 to have ur number blocked	2009-04-27 23:31:08
12546319	1130767898	Register cell phones wNatl Do Not Call List 8883821222	2009-01-19 16:28:39
18144666	1148273454	Do not call list8883821222	2009-01-26 04:31:03
21007709	1783732715	Cell phone s go public today 4 telemarketers  Call 8883821222 to put it on the do not call registry  Pls RT	2009-05-13 12:18:21
5617008	934540205	National Do Not Call Register keep Telemarketers from calling is 1 8883821222 Telemarketer will be fine if they call u Info 4 twitters	2008-09-25 16:12:10
25831913	1784749958	RT  Gage  Cell phone s go public today 4 telemarketers Call 8883821222 to join do not call List	2009-05-13 14:30:21
2171516	1105396326	Cell numbers go public tomorrow register your number on the do not call list 8883821222	2009-01-08 22:26:28
14486901	1784604254	RT Lemberg Gage Cell phone s go public today 4 telemarketers Call 8883821222 to join do not call registry Pls RT	2009-05-13 14:11:00
21630804	1279872813	I wouldnt steer my tweets in the wrong direction Forward the number to your friends 8883821222 It is the National DO NOT CALL list	2009-03-04 19:16:28
46655448	939391033	8883821222 Natl Do not call list  call from your cel phone to add your number to the us do not call registry	2008-09-29 16:26:49
11509252	2388484004	RT  Cell phones go public this month put your cell  on a do not call list at 8883821222  pretty sure this is a hoax	2009-06-29 15:08:08
17529223	1025175258	ATT CanadiansUr Cell numbrs being released2TelemarketersCharges per callNoCallList186658036258883821222Online wwwlnntednclgcca	2008-11-26 20:23:38
53135870	1960483015	RT  Cells will be released to telemarketers to reg wdonotcall registrycall 8883821222 from any phoneTakes 60 seconds	2009-05-29 15:02:06
15838306	3595458600	RT 5Adonia81cell phone s r being released 2 telemarketing companies2 stop these calls call from your cell phone 8883821222 RTpls	2009-08-28 03:43:45
10187104	1571754688	Cell Phone Numbers Go Public next month Call 18883821222 from your cell phone to get on DO Not Call List RT Thx Jerry	2009-04-21 02:58:39
24042847	1494821552	Natl Do Not Call Registry Reminder Cel Phone s are Public  Call 18883821222 to get on the DNC list if u like	2009-04-11 02:45:36
5598735	944930343	Cell Phone Numbers Go Public today released to telemarket companies tomorrow To prevent call following from your cell phone 18883821222	2008-10-03 14:03:08
55945436	948937017	Cell numbers just went publicTo block your cell phone number to telemarketers call 8883821222 wwwdonotcallgov	2008-10-06 23:34:57
2033375	964336126	Cell phone s go public todaytelemarketers can call and you get charged Call 8883821222 from your cell phone to get on DO NOT CALL list	2008-10-17 20:22:27
16221215	2852565506	RT  Cell Phone Numbers Go Public this month Call the National Do Not Call List from your cell 2 block yours 8883821222	2009-07-26 12:44:23
14223265	1204661396	Cell s release to telemarketers tomorrowto prevent call 8883821222 from your cell phone I just did  it was easy Thanks RG	2009-02-13 00:04:47
20991426	1118080978	Cell phone s are released to telemarketing companies next month To prevent call from your cell phone 8883821222 Natl DoNot call list	2009-01-14 12:00:12
3923303	2929796875	RT  Put cell phone number on the USFTC DoNotCall registry 2 keep ads off  8883821222 MUST call from your cell phone	2009-07-30 13:19:05
36697095	2221089348	RT warrior cell phone numbers go public next month No Call List 2 prevent this u must call from your cell phone 8883821222	2009-06-18 11:40:30
9192539	2537220690	RT  Add your cell phone or asterisk DID to DO NOT CALL Registry Just call 8883821222 with CallerID of number to block	2009-07-08 19:14:27
54232688	3395801561	FTC Natl Do Not Call Registry  8883821222 Must call from phone to be registered	2009-08-19 01:38:46
7608393	1571645218	Cell Phone Numbers Go Public next month Call 18883821222 from your cell phone to get on DO Not Call List	2009-04-21 02:44:45
25321165	1786748756	RT MaryJane Cell phone s go public today 4 telemarketers Call 8883821222 to join the do not call registry Pls RT	2009-05-13 17:58:20
44919084	2153807931	RT  RT  Cell phone numbers go public next month Add yours to the Do Not Call Registry 8883821222	2009-06-13 14:07:12
21049596	2649868211	RT  RT Cell Phone s Go Public ths month 2 prevent this call frm cell phone   DONOTCALL list 8883821222	2009-07-15 12:04:38
43463809	2128331700	cell s will be released to telemarketers as of next month To prevent this call the following number from your cell phone   8883821222	2009-06-12 06:34:33
32636587	1396402760	new york state do not call list 8883821222 callthis number to sign up so you do not get telemarketing calls  block your cell phone 	2009-03-26 19:52:56
44057755	2818189142	RT  register your cell  to prevent telemarketing calls when numbers go public next month 8883821222	2009-07-24 13:24:41
38965301	1784508273	RT Lemberg RT Gage Cell phone s go public today 4 telemarketers Call 8883821222 to join do not call registry	2009-05-13 13:59:34
28252906	1571694719	RT Cell phone numbers go public next month Call 18883821222 from your cell phone to get on Do Not Call list Takes 15secs	2009-04-21 02:50:57
891512	1024913453	8883821222 National Do Not Call number to get your cell phone on the list before the telemarketers start calling your cell phone	2008-11-26 17:46:31
11625980	2338688175	cell s released to telemarketers next monthno joke  to prevent 8883821222 from ur mobile its legit takes 15secs amp safe for 5yrs	2009-06-26 03:45:19
39428284	2536892274	Add your cell phone or asterisk DID to DO NOT CALL Registry Just call 8883821222 with CallerID of number to block	2009-07-08 18:52:44
20268590	1142659430	putting my phone number on the National DO NOT CALL Registry you can too 8883821222	2009-01-23 18:36:55
6577483	2104659755	now u can reg for the DO NOT CALL registry by calling 18883821222 from the phone u want to reg 	2009-06-10 15:51:17
16514995	1633221062	Totally started already RT  Cell phone numbers go public today ampgt more annoying sales calls 8883821222 to have ur  blocked	2009-04-27 22:20:47
21189936	2101898974	National Do Not Call Registry for cell phones Your number will be released soon to telemarketersCall 8883821222  from your cell phone	2009-06-10 10:52:47
56020047	2593897453	Cell Phone go public next month to make sure telemarketers dont call you call this number 8883821222	2009-07-12 04:03:59
16370183	1145864070	Has everyone called the Do Not Call List for cell phones 8883821222	2009-01-25 02:16:25
20934776	3133365563	Perfect Tip RT  RT   Tip Call 8883821222 from your cell phone amp add it to the Do Not Call Registry	2009-08-04 22:37:05
50957332	2136873547	registering my cell phone  on the new national DO NOT CALL list  cell spamming is legal soon  do it now  8883821222	2009-06-12 21:20:46
10660722	3133219057	 Tip Call 8883821222 from your cell phone amp add it to the quotDo Not Call Registryquot via 	2009-08-04 22:28:20
18636560	1184431845	Cell phones are now public  Call 18883821222 from your cell phone to block your number from telemarketing call lists	2009-02-06 20:46:30
53254638	3395885620	FTC Natl Do Not Call Registry  8883821222 Must call from phone to be registered	2009-08-19 01:42:57
56012147	1046540241	Does everybody know about the National Do Not Call Registry 18883821222 to make telemarketers stop calling you	2008-12-09 05:32:49
37757057	2350715902	18883821222 You can call that number FROM the CELL PHONE you wish to be registered on the DO NOT CALL LIST  	2009-06-26 22:08:22
6936324	1883588380	RT  Cell phone numbers go public next month Call the Nat Do Not Call list today  8883821222	2009-05-22 15:47:30
12616480	1323847199	Cell Phone Numbers Go Public next month To prevent this call the following number from your cell phone 8883821222 thx 	2009-03-13 20:44:56
14591326	1199459771	Do you hate telemarketers Call 8883821222 and register your cell and home  on theNational DO NOT CALL list Please RT	2009-02-11 16:31:52
55638288	1040447395	unregistered my cell phone to dodge those telemarketers  cuz yaalls s will be released to them soon call 8883821222 to do this	2008-12-05 16:43:23
14229524	2553715937	Need to register my mobile  on the new national DO NOT CALL list Itll be legal to spam mobile s soon Do it via 8883821222	2009-07-09 17:43:40
33433331	2271238033	all cell phone numbers are being released to telemarketing companies in July to prevent call 8883821222 the National Do Not Call List	2009-06-21 23:10:52
17398478	1108452172	do not call registry for cell phones Call from your cell phone 8883821222 good for 5 years	2009-01-10 04:22:35
16741729	1121881077	Cell phone numbers go public again next month  Prevent this call this number from your cell phone  8883821222 DO NOT CALL LIST yourself	2009-01-15 20:21:00
41691570	2458181846	 YOU WILL BE CHARGED FOR THESE CALLSTo prevent this  call the following number from your cell phone 8883821222	2009-07-03 19:01:27
44810683	3245777064	If you choose to register for the donotcall list for your cell number it is 8883821222	2009-08-11 14:11:11
2697199	797795702	Cell phone numbers go public tomorrow  Go to Do Not Callgov or call 18883821222 from cell phone to stop telemarketers	2008-04-27 02:17:26
55805073	814511860	Did everyone hit the Cell Phone Do Not Call Registry 18883821222 My grandma just emails me about it	2008-05-19 00:07:20
16313018	1021418957	Cells go public 2daygiven 2 telemarketers 1125 U WILL B CHARGED 4 THE CALLS To stop it call wur cell 8883821222 or go donotcallgov	2008-11-24 20:05:55
9224748	2539349979	Add your cell phone numbers to donotcall register at 8883821222 MUST call from your cell phone Dont worry though  	2009-07-08 21:36:58
31417515	2802503690	RT  Call 8883821222 from your cell amp add it to the Do Not Call Registry Cell phone banks are being opened to telemarketing Aug 09	2009-07-23 18:03:36
53636229	1241447405	RT  Tip Avoid telemarketing companies calling your Cell Phone Numbers call the National DO NOT CALL list 8883821222	2009-02-23 17:05:48
41763514	1960565421	RT  Cells will be released to telemarketers to reg wdonotcall registry call 8883821222 from any phone Takes 60 s 	2009-05-29 15:09:42
39940993	2137425202	RT Barton registering my cell phone  on the new national DO NOT CALL list  cell spamming is legal soon  do it now  8883821222	2009-06-12 22:09:17
41655480	2008990135	Do Not Call Registry 1888382	2009-06-02 21:58:40
7036214	2235401922	Cell phone numbers released to telemarketing coTo stop them call this number from your cell phone 8883821222	2009-06-19 08:07:31
2704245	903319573	Retweet  Tomorrow all cell phone numbers become public domain so get yours on the DO NOT CALL list 8883821222	2008-08-29 20:08:55
53701718	1784540225	WAKE UP CALL RT Gage Cell phone s go public today 4 telemarketers 8883821222 do not call registry	2009-05-13 14:03:03
18245809	1757568792	RT  Cell phn Numbers Go Public nxt month Register on National dnt Call Directory Call 8883821222 from yr cell phn	2009-05-10 21:44:04
24300569	1126628869	Just called the National DO NOT CALL registery for cell phones 8883821222 Sorry telemarketers	2009-01-17 18:51:59
36868065	2076034210	DO NOT CALL LIST  8883821222  for your cell phone  call FROM your cell to do it  numbers go public next month I think  so act fast	2009-06-08 13:39:20
55927266	292680192	9 days from today all cell phone numbers are being released to telemarketing companies Call 8883821222 to register for Do Not Call List	2007-09-25 18:05:26
15509990	1994319287	Cell phone numbers go public  to telemarketers this week Get on the Do Not Call List 8883821222	2009-06-01 18:45:11
9007216	1531343219	a phone number to register for dont call lists call from the phone you want to register including cell phones 8883821222	2009-04-16 04:27:42
33738724	1873325114	Cells will be released to telemarketers next month to reg wdonotcall registry call 8883821222 from any phone Takes 60 seconds	2009-05-21 17:42:00
51901515	2707769170	Cell phn numbers went public July 1 09 cell s R released 2 telemarketing companies 2 prevent ths call  8883821222  fr your cell phn	2009-07-18 16:04:30
13147666	1571677032	HOAX Cell Phone Numbers Go Public next monthCall 18883821222 from Ur cell phone to get on DO Not Call List    	2009-04-21 02:48:41
14373243	1571676648	RT Cell phone numbers go public next month Call 18883821222 from your cell phone to get on Do Not Call list Takes 15secs	2009-04-21 02:48:38
45326606	916825951	REMINDER all cell phone numbers are being released to telemarketing companies tomorrow  to register donotcall  8883821222	2008-09-10 20:05:50
55807758	1784611276	RT Lemberg Gage Cell phone s go public today 4 telemarketers Call 8883821222 to join do not call registry Pls RT	2009-05-13 14:11:59
47732573	3273404271	FWD All cell phones call 8883821222 to block ur number for the next 5 yrs or as of next week telemarketers will call u Call from eac 	2009-08-12 21:30:12
5209766	944940692	Retweeting  Cell Phone Num Go Public today released to telemarket co tomorrow To prevent call g from your cell ph 18883821222	2008-10-03 14:11:43
26213944	1187778347	Cell numbers go public next month block yours at 8883821222  National DO NOT CALL list	2009-02-08 01:27:38
35137357	1987261771	Phone number for National Do Not Call List is 18883821222	2009-06-01 03:01:18
42552850	2032572571	Cell phones s go public next month to mkters get on the national DO NOT CALL registry by calling 8883821222just did it sounds legit	2009-06-04 18:27:12
15529933	2170150634	cell numbers go public again next month  add yourself to the NATIONAL DO NOT CALL list by calling 8883821222 from your cell	2009-06-14 22:41:06
7651224	2148912701	RT Barton registering my cell phone  on the new national DO NOT CALL list  cell spamming is legal soon  do it now  8883821222	2009-06-13 02:14:46
14783603	1136537199	RT  Telemarketers begin calling cell phones in Feb  If u dont want to receive calls heres the Natl No Call   8883821222	2009-01-21 16:07:31
10834716	1116173288	RT  register your cellphone for Do Not Call List  Cellphone may acc to Mighell be released into wild  Call 8883821222	2009-01-13 17:54:10
14378753	1136512361	ATTENTION  all cell phones go public today so to stop telemarketing calls call 18883821222 and stop them from calling Takes 30 sec	2009-01-21 15:58:08
14166414	1784281942	RT Gage Cell phone s go public today 4 telemarketers Call 8883821222 to put it on the do not call registry Pls RT	2009-05-13 13:32:53
25385916	1204787056	RT  Cell s release to telemarketers tomorrowto prevent call 8883821222 from your cell phone OK wSnopescom too	2009-02-13 00:53:05
36311055	1469358160	Call 18883821222  to get rid of those nagging solicitation phone calls Call from whatever phone you want blocked Takes seconds 	2009-04-07 13:07:44
2462703	1174363416	Just read this Carriers start selling your cellphone s to telemarketers today Use your phone 2 call 8883821222 DO NOT CALL registry	2009-02-03 22:07:12
6465980	1149798483	RT Cell phone s get unblocked Feb 2009  If you guys want yours on the Do Not Call list call 8883821222 I have to PAY to listen to it	2009-01-26 18:47:16
17208845	1225000299	 I think the did recell phone  public Donotcall number 8883821222	2009-02-19 00:51:28
36305898	2097352556	Cell Phone Numbers Go Public this month To prevent call 8883821222 National DO NOT CALL list Call from the number you want  blocked	2009-06-10 01:22:24
9576726	2553430894	 In re your spam calls To prevent this call the following number from your cell phone  8883821222 National DO NOT CALL list	2009-07-09 17:24:54
1848533	1591549147	add your mobile to the Do Not Call List  cell s will be released to telemarketers next month 18883821222 takes 20 seconds	2009-04-23 04:28:11
10307311	958010281	I just heard that telemarketers are allowed to call cell phones now National do not call list 8883821222	2008-10-13 19:07:25
5571495	1116165242	RT  register your cellphone for Do Not Call List  Cellphone s soon to be released into wild  Call 8883821222	2009-01-13 17:50:39
20475458	2108064374	Cell Phone Numbers go public next month to telemarketers Call National DO NOT CALL list 8883821222 from your cell phone  pass it on	2009-06-10 20:42:52
34365918	2783253267	Cell Phone s go public open to telemarketers call the following number from your cell phone to prevent this  8883821222	2009-07-22 19:12:05
27561712	1784892471	RT  WAKE UP CALL RT Gage Cell phone s go public today 4 telemarketers 8883821222 do not call registry	2009-05-13 14:46:09
33750466	1873317957	Cells will be released to telemarketers next month to reg wdonotcall registry call 8883821222 from any phone Takes 60 seconds	2009-05-21 17:41:18
38936024	2852045274	RT  Cell Phone Numbers Go Public this month Call the National Do Not Call List from your cell 2 block yours 8883821222	2009-07-26 11:30:55
17010330	3131803722	RT  Cell phone s go public this month  Call 8883821222 Do Not Call List  register your cell phone for 5 years	2009-08-04 21:05:34
40545107	1696226113	RT  All cell s are going public here is the registry  so you dont get called 8883821222 thanks to 	2009-05-04 14:52:02
23225035	1140064773	Do not call registry number 8883821222 must call from phone you are putting on do not call list	2009-01-22 20:26:43
21189936	2095029328	Cell phone numbers are being released to telemarketing companies To prevent extra charges call from your cell phone   8883821222 	2009-06-09 21:53:13
39860210	2224227488	Our cell phone number are going public next monthcall 18883821222 if you want it blocked	2009-06-18 16:14:37
23807294	1575704562	RT  All cell ph s go public next mo  spam ur billed for Call 8883821222 to get on do not call list	2009-04-21 15:22:26
24612734	1784503865	RT Lemberg RT Gage Cell phone s go public today 4 telemarketers Call 8883821222 to join do not call registry Pls RT	2009-05-13 13:59:04
6080877	1220878022	Cell phone numbers have gone public to telemarketing companies Call the national do not call list at 8883821222 Real quick amp easy U 	2009-02-17 23:44:38
43817215	2207937236	Remindercell phone s will be released to telemarketers July 1st Call 8883821222 and register your  on the national do not call list	2009-06-17 15:34:26
18793407	1787009211	Just got word that next month all cell phones will be public for solicitors  To be put on dont call registry 8883821222	2009-05-13 18:25:36
29060270	2021158840	National do not call llst 8883821222 to avoid telemarketers for your cell phoneMust call from your cell for it to work	2009-06-03 21:01:20
32354225	2132183985	National Do No Call time has come  Call the number from your cell today before it goes public  8883821222	2009-06-12 15:04:41
51715306	1490840098	To register your cell phone number on the Do Not Call list call 8883821222 It only takes a minute	2009-04-10 15:10:48
42221216	2046250754	Cell Phone Numbers Go Public next monthTo prevent this call 8883821222 or go 	2009-06-05 18:54:39
52358651	2932974665	Call the following number from your cell phone 8883821222 to remove your number off telemarketers list you will pay for these calls	2009-07-30 16:32:31
21425339	2082093765	RT  Cell phone numbers are going public the 1st of next month Here is the number for the do not call list 18883821222	2009-06-08 22:24:04
46213438	2910271797	Cell phone s go public this month  To put your cell on the do not call list for 5 years dial 8883821222 from your cell phone	2009-07-29 14:30:35
35374393	2462524422	REMINDER All cel numbers go public next month Here come the telemarketers From your cel phone call 8883821222  the donotcall list	2009-07-04 00:43:22
3336463	1757280310	Cell phn Numbers Go Public nxt month Register on National dnt Call Directory Call 8883821222 from yr cell phn via 	2009-05-10 21:02:52
44850859	2177145184	national do not call hotline 8883821222 cell phone numbers going public soon	2009-06-15 12:32:32
22121773	1323731377	REMEMBER Cell Phone Numbers Go Public next month To prevent this call the following number from your cell phone 8883821222	2009-03-13 20:22:48
32679559	1634897051	has registered her cell phone on the national Do Not Call list by calling 8883821222	2009-04-28 01:45:47
11684740	3094530794	Cell phone s go public this month  Call 8883821222 Do Not Call List  register your cell phone for 5 years Pass it on	2009-08-02 23:55:50
46512390	2500657690	Call 8883821222 from your cell phone to block telemarketers from calling for five years	2009-07-06 18:15:34
16177292	954213538	Cell phones open to public today CALL DO NOT CALL REGISTRY TO REGISTER YOUR CELL PHONE 8883821222	2008-10-10 14:25:41
42825958	2032355544	Cell Phone Numbers Go Public this month call 8883821222 to put your cell number on the Natl DO NOT CALL list  Take 20 seconds	2009-06-04 18:08:25
10312714	2136949202	RT barton registering my cell phone  on the new national DO NOT CALL list cell spamming is legal soon do it now 8883821222	2009-06-12 21:27:24
39696210	1556111664	YOU WILL BE CHARGED  FOR THESE CALLS To prevent  this call the following number from your cell phone    8883821222	2009-04-19 04:41:03
41870302	2577122724	Natl Do Not Call List 8883821222 Remove ur number for 5 yrs frm telemarketers It takes about 20 seconds DJ Mo 	2009-07-11 01:23:35
17052312	1140263709	Cell phone numbers go PUBLIC to telemarketers next month Call 8883821222 from your cell phone to register with national do not call list	2009-01-22 21:44:36
36528949	1971749053	Cells will be released to telemarketers to reg wdonotcall registry call 8883821222 from any phone Takes 60 seconds	2009-05-30 14:48:48
56019466	1173923087	RT  Carriers start selling your cellphone s to telemarketers today Use your phone 2 call 8883821222 DO NOT CALL registry	2009-02-03 19:36:45
55832769	1204683648	RT  Just found out cell s release to telemarketers tomorrowto prevent call 8883821222 from your cell phone I just did	2009-02-13 00:13:11
43543504	2181720507	Cell Phone Numbers Go Public this month for telemarketingcall 8883821222 from your cell phone to prevent them from calling you	2009-06-15 19:12:22
34467969	2498142587	Cell phones go public next month Call 8883821222 for National Do Not Call List  Must call from phone you want to have blocked	2009-07-06 15:18:08
15734038	1173833775	RT  Carriers start selling UR cellphone s 2 telemarketers 2day Use UR phone 2 call 8883821222 DO NOT CALL registry Pass it on	2009-02-03 19:06:28
29436053	1633884961	RT  Cell phone numbers go public today which means more annoying sales calls Call 8883821222 to have your number blocked	2009-04-27 23:44:16
55711317	1159072323	Getting telemarketers on your cell phone Heres the quotdo not callquot number 8883821222 More info 	2009-01-29 17:33:56
41288992	764693329	To those in the New York area with cell phones Call 18883821222 sometime soon to get yourself on the cell phone no call list	2008-02-29 00:00:56
15989295	2912194694	Put your cell number on the natl DO NOT CALL list call 8883821222 Cell s are released to the public and telemarketers next month	2009-07-29 16:27:01
30405654	1381147826	Too many telemarketing phone calls Sign up for the Do Not Call Registry by calling toll free 8883821222	2009-03-24 11:08:59
21655249	1158771897	I am having dinner list cell on DO NOT CALL LIST18883821222	2009-01-29 15:53:25
